
owens.elf:     file format elf32-littlenios2
owens.elf
architecture: nios2, flags 0x00000112:
EXEC_P, HAS_SYMS, D_PAGED
start address 0x010001b8

Program Header:
    LOAD off    0x00001000 vaddr 0x01000000 paddr 0x01000000 align 2**12
         filesz 0x00000020 memsz 0x00000020 flags r-x
    LOAD off    0x00001020 vaddr 0x01000020 paddr 0x01000020 align 2**12
         filesz 0x00018b64 memsz 0x00018b64 flags r-x
    LOAD off    0x00019b84 vaddr 0x01018b84 paddr 0x0101a7dc align 2**12
         filesz 0x00001c58 memsz 0x00001c58 flags rw-
    LOAD off    0x0001c434 vaddr 0x0101c434 paddr 0x0101c434 align 2**12
         filesz 0x00000000 memsz 0x00000de4 flags rw-

Sections:
Idx Name          Size      VMA       LMA       File off  Algn
  0 .entry        00000020  01000000  01000000  00001000  2**5
                  CONTENTS, ALLOC, LOAD, READONLY, CODE
  1 .exceptions   00000198  01000020  01000020  00001020  2**2
                  CONTENTS, ALLOC, LOAD, READONLY, CODE
  2 .text         00018138  010001b8  010001b8  000011b8  2**2
                  CONTENTS, ALLOC, LOAD, READONLY, CODE
  3 .rodata       00000894  010182f0  010182f0  000192f0  2**2
                  CONTENTS, ALLOC, LOAD, READONLY, DATA
  4 .rwdata       00001c58  01018b84  0101a7dc  00019b84  2**2
                  CONTENTS, ALLOC, LOAD, DATA, SMALL_DATA
  5 .bss          00000de4  0101c434  0101c434  0001c434  2**2
                  ALLOC, SMALL_DATA
  6 .comment      00000026  00000000  00000000  0001b7dc  2**0
                  CONTENTS, READONLY
  7 .debug_aranges 00000e98  00000000  00000000  0001b808  2**3
                  CONTENTS, READONLY, DEBUGGING
  8 .debug_pubnames 0000278c  00000000  00000000  0001c6a0  2**0
                  CONTENTS, READONLY, DEBUGGING
  9 .debug_info   00030085  00000000  00000000  0001ee2c  2**0
                  CONTENTS, READONLY, DEBUGGING
 10 .debug_abbrev 0000946e  00000000  00000000  0004eeb1  2**0
                  CONTENTS, READONLY, DEBUGGING
 11 .debug_line   0001a74c  00000000  00000000  0005831f  2**0
                  CONTENTS, READONLY, DEBUGGING
 12 .debug_frame  00002a04  00000000  00000000  00072a6c  2**2
                  CONTENTS, READONLY, DEBUGGING
 13 .debug_str    00002a87  00000000  00000000  00075470  2**0
                  CONTENTS, READONLY, DEBUGGING
 14 .debug_loc    0000dd80  00000000  00000000  00077ef7  2**0
                  CONTENTS, READONLY, DEBUGGING
 15 .debug_alt_sim_info 00000030  00000000  00000000  00085c78  2**2
                  CONTENTS, READONLY, DEBUGGING
 16 .debug_ranges 000009a8  00000000  00000000  00085ca8  2**3
                  CONTENTS, READONLY, DEBUGGING
 17 .thread_model 00000003  00000000  00000000  0008b43a  2**0
                  CONTENTS, READONLY
 18 .cpu          0000000f  00000000  00000000  0008b43d  2**0
                  CONTENTS, READONLY
 19 .qsys         00000001  00000000  00000000  0008b44c  2**0
                  CONTENTS, READONLY
 20 .simulation_enabled 00000001  00000000  00000000  0008b44d  2**0
                  CONTENTS, READONLY
 21 .stderr_dev   00000009  00000000  00000000  0008b44e  2**0
                  CONTENTS, READONLY
 22 .stdin_dev    00000009  00000000  00000000  0008b457  2**0
                  CONTENTS, READONLY
 23 .stdout_dev   00000009  00000000  00000000  0008b460  2**0
                  CONTENTS, READONLY
 24 .sopc_system_name 0000000b  00000000  00000000  0008b469  2**0
                  CONTENTS, READONLY
 25 .quartus_project_dir 00000027  00000000  00000000  0008b474  2**0
                  CONTENTS, READONLY
 26 .jdi          00005a68  00000000  00000000  0008b49b  2**0
                  CONTENTS, READONLY
 27 .sopcinfo     000a954e  00000000  00000000  00090f03  2**0
                  CONTENTS, READONLY
SYMBOL TABLE:
01000000 l    d  .entry	00000000 .entry
01000020 l    d  .exceptions	00000000 .exceptions
010001b8 l    d  .text	00000000 .text
010182f0 l    d  .rodata	00000000 .rodata
01018b84 l    d  .rwdata	00000000 .rwdata
0101c434 l    d  .bss	00000000 .bss
00000000 l    d  .comment	00000000 .comment
00000000 l    d  .debug_aranges	00000000 .debug_aranges
00000000 l    d  .debug_pubnames	00000000 .debug_pubnames
00000000 l    d  .debug_info	00000000 .debug_info
00000000 l    d  .debug_abbrev	00000000 .debug_abbrev
00000000 l    d  .debug_line	00000000 .debug_line
00000000 l    d  .debug_frame	00000000 .debug_frame
00000000 l    d  .debug_str	00000000 .debug_str
00000000 l    d  .debug_loc	00000000 .debug_loc
00000000 l    d  .debug_alt_sim_info	00000000 .debug_alt_sim_info
00000000 l    d  .debug_ranges	00000000 .debug_ranges
01000200 l       .text	00000000 alt_after_alt_main
00000000 l    df *ABS*	00000000 alt_irq_handler.c
00000000 l    df *ABS*	00000000 bomb.c
00000000 l    df *ABS*	00000000 draw.c
00000000 l    df *ABS*	00000000 rs232com.c
00000000 l    df *ABS*	00000000 sd_audio.c
00000000 l    df *ABS*	00000000 tightRopeGame.c
00000000 l    df *ABS*	00000000 atoi.c
00000000 l    df *ABS*	00000000 malloc.c
00000000 l    df *ABS*	00000000 mallocr.c
00000000 l    df *ABS*	00000000 printf.c
00000000 l    df *ABS*	00000000 putchar.c
00000000 l    df *ABS*	00000000 puts.c
00000000 l    df *ABS*	00000000 sbrkr.c
00000000 l    df *ABS*	00000000 sprintf.c
00000000 l    df *ABS*	00000000 strlen.c
00000000 l    df *ABS*	00000000 strtol.c
00000000 l    df *ABS*	00000000 vfprintf.c
01004f4c l     F .text	00000058 __sprint_r
01018566 l     O .rodata	00000010 blanks.3452
01018556 l     O .rodata	00000010 zeroes.3453
00000000 l    df *ABS*	00000000 wsetup.c
00000000 l    df *ABS*	00000000 ctype_.c
01018677 l     O .rodata	00000180 _ctype_b
00000000 l    df *ABS*	00000000 dtoa.c
01006fb0 l     F .text	00000218 quorem
00000000 l    df *ABS*	00000000 fflush.c
00000000 l    df *ABS*	00000000 findfp.c
010089ac l     F .text	00000058 std
01008ab8 l     F .text	00000008 __fp_lock
01008ac0 l     F .text	00000008 __fp_unlock
00000000 l    df *ABS*	00000000 mallocr.c
00000000 l    df *ABS*	00000000 fvwrite.c
00000000 l    df *ABS*	00000000 fwalk.c
00000000 l    df *ABS*	00000000 impure.c
01018f8c l     O .rwdata	00000400 impure_data
00000000 l    df *ABS*	00000000 int_errno.c
00000000 l    df *ABS*	00000000 locale.c
0101a7b0 l     O .rwdata	00000004 charset
0101881c l     O .rodata	00000030 lconv
00000000 l    df *ABS*	00000000 makebuf.c
00000000 l    df *ABS*	00000000 memchr.c
00000000 l    df *ABS*	00000000 memcpy.c
00000000 l    df *ABS*	00000000 memmove.c
00000000 l    df *ABS*	00000000 memset.c
00000000 l    df *ABS*	00000000 mprec.c
01018964 l     O .rodata	0000000c p05.2458
00000000 l    df *ABS*	00000000 putc.c
00000000 l    df *ABS*	00000000 mallocr.c
00000000 l    df *ABS*	00000000 s_isinfd.c
00000000 l    df *ABS*	00000000 s_isnand.c
00000000 l    df *ABS*	00000000 stdio.c
00000000 l    df *ABS*	00000000 strcmp.c
00000000 l    df *ABS*	00000000 wbuf.c
00000000 l    df *ABS*	00000000 writer.c
00000000 l    df *ABS*	00000000 mallocr.c
00000000 l    df *ABS*	00000000 closer.c
00000000 l    df *ABS*	00000000 fclose.c
00000000 l    df *ABS*	00000000 fstatr.c
00000000 l    df *ABS*	00000000 isattyr.c
00000000 l    df *ABS*	00000000 lseekr.c
00000000 l    df *ABS*	00000000 readr.c
00000000 l    df *ABS*	00000000 libgcc2.c
00000000 l    df *ABS*	00000000 libgcc2.c
00000000 l    df *ABS*	00000000 dp-bit.c
0100c7d4 l     F .text	00000410 _fpadd_parts
00000000 l    df *ABS*	00000000 dp-bit.c
00000000 l    df *ABS*	00000000 dp-bit.c
00000000 l    df *ABS*	00000000 dp-bit.c
00000000 l    df *ABS*	00000000 dp-bit.c
00000000 l    df *ABS*	00000000 dp-bit.c
00000000 l    df *ABS*	00000000 dp-bit.c
00000000 l    df *ABS*	00000000 dp-bit.c
00000000 l    df *ABS*	00000000 dp-bit.c
00000000 l    df *ABS*	00000000 dp-bit.c
00000000 l    df *ABS*	00000000 dp-bit.c
00000000 l    df *ABS*	00000000 dp-bit.c
00000000 l    df *ABS*	00000000 lib2-divmod.c
0100d900 l     F .text	0000007c udivmodsi4
00000000 l    df *ABS*	00000000 libgcc2.c
00000000 l    df *ABS*	00000000 libgcc2.c
00000000 l    df *ABS*	00000000 libgcc2.c
00000000 l    df *ABS*	00000000 dp-bit.c
00000000 l    df *ABS*	00000000 dp-bit.c
00000000 l    df *ABS*	00000000 dp-bit.c
00000000 l    df *ABS*	00000000 alt_close.c
0100e174 l     F .text	00000060 alt_get_errno
00000000 l    df *ABS*	00000000 alt_dev.c
0100e1d4 l     F .text	0000002c alt_dev_null_write
00000000 l    df *ABS*	00000000 alt_errno.c
00000000 l    df *ABS*	00000000 alt_fstat.c
0100e2d4 l     F .text	00000060 alt_get_errno
00000000 l    df *ABS*	00000000 alt_irq_register.c
00000000 l    df *ABS*	00000000 alt_irq_vars.c
00000000 l    df *ABS*	00000000 alt_isatty.c
0100e5b4 l     F .text	00000060 alt_get_errno
00000000 l    df *ABS*	00000000 alt_load.c
0100e694 l     F .text	0000006c alt_load_section
00000000 l    df *ABS*	00000000 alt_lseek.c
0100e7f0 l     F .text	00000060 alt_get_errno
00000000 l    df *ABS*	00000000 alt_main.c
00000000 l    df *ABS*	00000000 alt_malloc_lock.c
00000000 l    df *ABS*	00000000 alt_read.c
0100ea1c l     F .text	00000060 alt_get_errno
00000000 l    df *ABS*	00000000 alt_release_fd.c
00000000 l    df *ABS*	00000000 alt_sbrk.c
0101a7d0 l     O .rwdata	00000004 heap_end
00000000 l    df *ABS*	00000000 alt_write.c
0100ecb8 l     F .text	00000060 alt_get_errno
00000000 l    df *ABS*	00000000 alt_sys_init.c
01019540 l     O .rwdata	00001060 jtag_uart
0101a5a0 l     O .rwdata	00000030 av_config
0101a5d0 l     O .rwdata	00000030 audio
0101a600 l     O .rwdata	0000002c character_lcd_0
0101a62c l     O .rwdata	0000002c push_button
0101a658 l     O .rwdata	00000038 ps2_0
0101a690 l     O .rwdata	0000002c rs232_0
0101a6bc l     O .rwdata	00000048 char_drawer
0101a704 l     O .rwdata	00000054 pixel_buffer_dma
0101a758 l     O .rwdata	0000002c sd_card
0100f0c4 l     F .text	00000038 alt_dev_reg
00000000 l    df *ABS*	00000000 altera_avalon_jtag_uart_fd.c
00000000 l    df *ABS*	00000000 altera_avalon_jtag_uart_init.c
0100f2fc l     F .text	0000022c altera_avalon_jtag_uart_irq
0100f528 l     F .text	000000b0 altera_avalon_jtag_uart_timeout
00000000 l    df *ABS*	00000000 altera_avalon_jtag_uart_ioctl.c
00000000 l    df *ABS*	00000000 altera_avalon_jtag_uart_read.c
00000000 l    df *ABS*	00000000 altera_avalon_jtag_uart_write.c
00000000 l    df *ABS*	00000000 altera_avalon_timer_sc.c
0100fba4 l     F .text	00000074 alt_avalon_timer_sc_irq
00000000 l    df *ABS*	00000000 altera_up_avalon_audio_and_video_config.c
00000000 l    df *ABS*	00000000 altera_up_avalon_character_lcd.c
00000000 l    df *ABS*	00000000 altera_up_avalon_ps2.c
00000000 l    df *ABS*	00000000 altera_up_avalon_rs232.c
00000000 l    df *ABS*	00000000 altera_up_avalon_video_character_buffer_with_dma.c
00000000 l    df *ABS*	00000000 altera_up_avalon_video_pixel_buffer_dma.c
00000000 l    df *ABS*	00000000 altera_up_sd_card_avalon_interface.c
00000000 l    df *ABS*	00000000 alt_alarm_start.c
00000000 l    df *ABS*	00000000 alt_dcache_flush_all.c
00000000 l    df *ABS*	00000000 alt_dev_llist_insert.c
01017460 l     F .text	00000060 alt_get_errno
00000000 l    df *ABS*	00000000 alt_do_ctors.c
00000000 l    df *ABS*	00000000 alt_do_dtors.c
00000000 l    df *ABS*	00000000 alt_find_dev.c
00000000 l    df *ABS*	00000000 alt_icache_flush_all.c
00000000 l    df *ABS*	00000000 alt_io_redirect.c
0101764c l     F .text	000000c4 alt_open_fd
00000000 l    df *ABS*	00000000 alt_open.c
01017788 l     F .text	000000dc alt_file_locked
010179ec l     F .text	00000060 alt_get_errno
00000000 l    df *ABS*	00000000 alt_tick.c
00000000 l    df *ABS*	00000000 altera_nios2_qsys_irq.c
00000000 l    df *ABS*	00000000 alt_find_file.c
00000000 l    df *ABS*	00000000 alt_get_fd.c
00000000 l    df *ABS*	00000000 alt_icache_flush.c
00000000 l    df *ABS*	00000000 atexit.c
00000000 l    df *ABS*	00000000 exit.c
00000000 l    df *ABS*	00000000 memcmp.c
00000000 l    df *ABS*	00000000 __atexit.c
00000000 l    df *ABS*	00000000 __call_atexit.c
0101806c l     F .text	00000004 register_fini
00000000 l    df *ABS*	00000000 alt_exit.c
01018220 l     F .text	00000040 alt_sim_halt
0100fdf4 g     F .text	00000038 alt_up_av_config_reset
0101c48c g     O .bss	00000004 aux_status_register
01004a54 g     F .text	0000001c putchar
0100a028 g     F .text	00000094 _mprec_log10
01010298 g     F .text	00000064 alt_up_av_config_read_D5M_cfg_register
0100a114 g     F .text	00000088 __any_on
0100bae8 g     F .text	00000070 _isatty_r
0101893c g     O .rodata	00000028 __mprec_tinytens
0100fe64 g     F .text	00000030 alt_up_av_config_disable_interrupt
0100e850 g     F .text	0000006c alt_main
01012360 g     F .text	000003d0 alt_up_pixel_buffer_dma_draw_vline
01004a78 g     F .text	000000a0 _puts_r
01010ba4 g     F .text	00000058 alt_up_ps2_disable_read_interrupt
0101cf88 g     O .bss	00000100 alt_irq
0100bb58 g     F .text	00000078 _lseek_r
01003df0 g     F .text	00000074 acc
0101a7dc g       *ABS*	00000000 __flash_rwdata_start
010104a4 g     F .text	00000034 alt_up_character_lcd_send_cmd
0100d2f4 g     F .text	00000088 __eqdf2
01013010 g     F .text	000001b0 Check_for_Master_Boot_Record
0100ff34 g     F .text	000000ac alt_up_av_config_write_audio_cfg_register
0101d218 g       *ABS*	00000000 __alt_heap_start
01016ebc g     F .text	000001cc alt_up_sd_card_fclose
010049dc g     F .text	00000044 printf
0100b468 g     F .text	00000068 __sseek
01008a14 g     F .text	000000a4 __sinit
01011584 g     F .text	00000114 alt_up_char_buffer_string
0100b668 g     F .text	00000130 __swbuf_r
010109bc g     F .text	00000034 read_CE_bit
0101c4e8 g     O .bss	00000088 p
010096ec g     F .text	00000084 _setlocale_r
01008b14 g     F .text	00000068 __sfmoreglue
0100e8dc g     F .text	00000020 __malloc_unlock
01010d50 g     F .text	000000b0 alt_up_ps2_read_data_byte_timeout
0101128c g     F .text	00000090 alt_up_rs232_read_fd
0101c4b0 g     O .bss	00000004 current_sector_modified
010114b4 g     F .text	000000d0 alt_up_char_buffer_draw
01017184 g     F .text	00000090 Read_Sector_Data_Attempt_CRC
01009aa4 g     F .text	000000e0 memmove
01008b04 g     F .text	00000010 _cleanup
0100a19c g     F .text	000000bc _Balloc
01015a84 g     F .text	000000c8 alt_up_sd_card_is_Present
01012d28 g     F .text	00000050 Save_Modified_Sector
01002504 g     F .text	000003e4 read_bmp
01011734 g     F .text	000001a0 alt_up_pixel_buffer_dma_draw
0100d404 g     F .text	00000088 __gtdf2
00000000  w      *UND*	00000000 __errno
01010428 g     F .text	0000007c get_DDRAM_addr
010116f4 g     F .text	00000040 alt_up_pixel_buffer_dma_open_dev
01002c38 g     F .text	000011b8 tight_rope_game
01000000 g     F .entry	0000001c __reset
0101c4a8 g     O .bss	00000004 fat_partition_size_in_512_byte_sectors
0101c454 g     O .bss	00000004 wind_now
01000020 g       *ABS*	00000000 __flash_exceptions_start
0101c43d g     O .bss	00000001 dataType
0100ba74 g     F .text	00000074 _fstat_r
01000fe8 g     F .text	0000005c reset_audio_buffer
0101c464 g     O .bss	00000004 errno
0101c47c g     O .bss	00000004 alt_argv
01022784 g       *ABS*	00000000 _gp
01016044 g     F .text	000003a8 alt_up_sd_card_fopen
0100162c g     F .text	00000298 audio_write_fifo
01015bc0 g     F .text	000000d4 alt_up_sd_card_find_first
0101c49c g     O .bss	00000004 command_argument_register
010118d4 g     F .text	00000058 alt_up_pixel_buffer_dma_change_back_buffer_address
01000514 g     F .text	00000220 draw_object
010193c0 g     O .rwdata	00000180 alt_fd_list
01004a70 g     F .text	00000008 _putchar_r
010152b4 g     F .text	0000012c find_first_empty_record_in_root_directory
01017588 g     F .text	00000094 alt_find_dev
01009a04 g     F .text	000000a0 memcpy
0101063c g     F .text	0000004c alt_up_character_lcd_write_fd
01011698 g     F .text	0000005c alt_up_char_buffer_clear
01001150 g     F .text	00000064 init_read_wav
01008af8 g     F .text	0000000c _cleanup_r
0100d59c g     F .text	000000f8 __floatsidf
01017710 g     F .text	00000078 alt_io_redirect
0100d514 g     F .text	00000088 __ltdf2
010182f0 g       *ABS*	00000000 __DTOR_END__
01011218 g     F .text	00000074 alt_up_rs232_read_data
01004b18 g     F .text	00000014 puts
01014ec4 g     F .text	000001a4 find_first_empty_cluster
01009f78 g     F .text	000000b0 __ratio
010159c0 g     F .text	000000c4 alt_up_sd_card_open_dev
01011984 g     F .text	00000034 alt_up_pixel_buffer_dma_check_swap_buffers_status
0100f740 g     F .text	00000224 altera_avalon_jtag_uart_read
01004288 g     F .text	00000014 malloc
01004a20 g     F .text	00000034 _printf_r
0100da3c g     F .text	00000008 __udivsi3
0100e4f4 g     F .text	000000c0 isatty
0101884c g     O .rodata	000000c8 __mprec_tens
01012010 g     F .text	00000350 alt_up_pixel_buffer_dma_draw_hline
010096c8 g     F .text	00000008 __locale_charset
01017de8 g     F .text	00000090 alt_icache_flush
0101c458 g     O .bss	00000004 __malloc_top_pad
0100fd68 g     F .text	0000008c alt_up_av_config_read_data
0101a7ac g     O .rwdata	00000004 __mb_cur_max
010096d0 g     F .text	0000000c _localeconv_r
0100a894 g     F .text	0000003c __i2b
010090ac g     F .text	0000049c __sfvwrite_r
010141a0 g     F .text	000000c0 get_dir_divider_location
0101a790 g     O .rwdata	00000004 right
01004b2c g     F .text	00000070 _sbrk_r
010127f4 g     F .text	000000d0 helper_plot_pixel
01013e40 g     F .text	000000d0 filename_to_upper_case
010163ec g     F .text	00000090 alt_up_sd_card_set_attributes
010131c0 g     F .text	00000284 Read_File_Record_At_Offset
0100bbd0 g     F .text	00000078 _read_r
0101938c g     O .rwdata	0000000c __lc_ctype
0101a7c4 g     O .rwdata	00000004 alt_max_fd
01011180 g     F .text	00000050 alt_up_rs232_check_parity
0100de78 g     F .text	00000138 __unpack_d
01014a60 g     F .text	00000464 find_file_in_directory
0100b950 g     F .text	00000110 _fclose_r
010109f0 g     F .text	00000034 read_num_bytes_available
01008978 g     F .text	00000034 fflush
0101c45c g     O .bss	00000004 __malloc_max_sbrked_mem
0101c440 g     O .bss	00000004 End
0100e334 g     F .text	000001c0 alt_irq_register
01010958 g     F .text	00000034 read_RI_bit
01015b4c g     F .text	00000074 alt_up_sd_card_is_FAT16
0100cc64 g     F .text	00000074 __adddf3
01009e58 g     F .text	00000120 __b2d
010119b8 g     F .text	00000164 alt_up_pixel_buffer_dma_clear_screen
0100c224 g     F .text	000005b0 __umoddi3
0100e700 g     F .text	000000f0 lseek
0101a7a8 g     O .rwdata	00000004 _global_impure_ptr
0101454c g     F .text	00000514 get_home_directory_cluster_for_file
0100adfc g     F .text	000005f4 _realloc_r
0101d218 g       *ABS*	00000000 __bss_end
01001088 g     F .text	00000088 audio_isr
01011b1c g     F .text	000004f4 alt_up_pixel_buffer_dma_draw_box
01017ae4 g     F .text	0000010c alt_tick
0100bc48 g     F .text	000005dc __udivdi3
0101c570 g     O .bss	00000400 send
01018914 g     O .rodata	00000028 __mprec_bigtens
0100aaf0 g     F .text	00000120 __s2b
0100d76c g     F .text	00000194 __floatunsidf
01009d78 g     F .text	00000060 __mcmp
0101c4b4 g     O .bss	00000004 current_sector_index
01010a58 g     F .text	0000002c read_data_byte
0101a7a0 g     O .rwdata	00000004 __ctype_ptr
01008ae0 g     F .text	00000018 __fp_lock_all
01001c1c g     F .text	00000034 free_sfx
01017a4c g     F .text	00000098 alt_alarm_stop
01004f28 g     F .text	00000024 strtol
0101098c g     F .text	00000030 read_RE_bit
01012f2c g     F .text	000000e4 mark_cluster
01000f44 g     F .text	00000068 get_buffer_space
0101c474 g     O .bss	00000004 alt_irq_active
0101a794 g     O .rwdata	00000004 left
0101c444 g     O .bss	00000001 id
01001c50 g     F .text	00000034 free_sfx1
010000ec g     F .exceptions	000000cc alt_irq_handler
01019398 g     O .rwdata	00000028 alt_dev_null
010153e0 g     F .text	000001b8 convert_filename_to_name_extension
0101c434 g     O .bss	00000004 set_name_i
01010924 g     F .text	00000034 alt_up_character_lcd_cursor_blink_on
0100206c g     F .text	0000029c sd_read_players
01010bfc g     F .text	00000078 alt_up_ps2_write_data_byte
01017368 g     F .text	00000044 alt_dcache_flush_all
01009c44 g     F .text	00000070 __hi0bits
0101c488 g     O .bss	00000004 is_sd_card_formated_as_FAT16
01012730 g     F .text	000000c4 alt_up_pixel_buffer_dma_draw_rectangle
0100d694 g     F .text	000000d8 __fixdfsi
01015068 g     F .text	0000024c find_first_empty_record_in_a_subdirectory
010011b4 g     F .text	00000078 refill_buffer
0101a7dc g       *ABS*	00000000 __ram_rwdata_end
01001044 g     F .text	00000044 av_config_setup
00000000 g       *ABS*	00000000 __alt_mem_onchip_memory
0101a7bc g     O .rwdata	00000008 alt_dev_list
0100eb98 g     F .text	00000120 write
0100ad14 g     F .text	000000e8 _putc_r
0101c4ac g     O .bss	00000004 device_pointer
01000824 g     F .text	00000300 uart_isr
010128c4 g     F .text	0000039c alt_up_pixel_buffer_dma_draw_line
01018b84 g       *ABS*	00000000 __ram_rodata_end
0100e200 g     F .text	000000d4 fstat
0101131c g     F .text	00000094 alt_up_rs232_write_fd
0100a9d0 g     F .text	00000120 __pow5mult
0101c468 g     O .bss	00000004 __nlocale_changed
0100da44 g     F .text	00000008 __umodsi3
0101c9f0 g     O .bss	00000010 ANDROID_INPUT
0101d218 g       *ABS*	00000000 end
01010f70 g     F .text	000000a8 alt_up_ps2_write_fd
010113f0 g     F .text	00000084 alt_up_char_buffer_init
0100425c g     F .text	0000000c _atoi_r
0100f244 g     F .text	000000b8 altera_avalon_jtag_uart_init
010182ec g       *ABS*	00000000 __CTOR_LIST__
01800000 g       *ABS*	00000000 __alt_stack_pointer
0100fc18 g     F .text	00000088 alt_avalon_timer_sc_init
0100dae4 g     F .text	00000080 __clzsi2
0100f964 g     F .text	00000240 altera_avalon_jtag_uart_write
01000c70 g     F .text	000000a8 uart_init
01008a04 g     F .text	00000004 __sfp_lock_acquire
01009920 g     F .text	000000e4 memchr
0101054c g     F .text	00000078 alt_up_character_lcd_write
01004fa4 g     F .text	00001eac ___vfprintf_internal_r
01004c10 g     F .text	00000060 _sprintf_r
01008d98 g     F .text	00000314 _free_r
01018070 g     F .text	000001b0 __call_exitprocs
0101a788 g     O .rwdata	00000004 LSL
0101c46c g     O .bss	00000004 __mlocale_changed
0101a79c g     O .rwdata	00000004 __malloc_sbrk_base
010001b8 g     F .text	0000004c _start
0101c4b8 g     O .bss	00000004 _alt_tick_rate
01002308 g     F .text	000001fc sd_write_players
010015c0 g     F .text	00000030 sd_fclose
0100a560 g     F .text	0000014c __lshift
0100fd04 g     F .text	00000064 alt_up_av_config_write_data
0101c4bc g     O .bss	00000004 _alt_nticks
0100e8fc g     F .text	00000120 read
0100ed4c g     F .text	00000378 alt_sys_init
010107b0 g     F .text	000000b0 alt_up_character_lcd_shift_display
010015f0 g     F .text	0000003c sd_readbyte
01017f38 g     F .text	00000134 __register_exitproc
010103c4 g     F .text	00000064 alt_up_av_config_write_LTM_cfg_register
0101c970 g     O .bss	00000080 buffer
01010e7c g     F .text	00000058 alt_up_ps2_clear_fifo
01011140 g     F .text	00000040 alt_up_rs232_get_available_space_in_write_FIFO
0100a6ac g     F .text	000001e8 __multiply
01010860 g     F .text	00000090 alt_up_character_lcd_erase_pos
01003e64 g     F .text	000000ac wind
0101ca00 g     O .bss	00000010 player_fall
0100f5d8 g     F .text	00000074 altera_avalon_jtag_uart_close
0101ca10 g     O .bss	00000010 axis
01018b84 g       *ABS*	00000000 __ram_rwdata_start
010182f0 g       *ABS*	00000000 __ram_rodata_start
0100122c g     F .text	00000354 fill_buffer
0101c4c0 g     O .bss	00000028 __malloc_current_mallinfo
0100a258 g     F .text	0000017c __d2b
0101c484 g     O .bss	00000004 initialized
0100f0fc g     F .text	00000058 altera_avalon_jtag_uart_read_fd
01017d30 g     F .text	000000b8 alt_get_fd
0101ca20 g     O .bss	00000014 search_data
0100dfb0 g     F .text	000000c8 __fpcmp_parts_d
0100b8e0 g     F .text	00000070 _close_r
01017ec4 g     F .text	00000074 memcmp
0100f1ac g     F .text	00000048 altera_avalon_jtag_uart_close_fd
0101d218 g       *ABS*	00000000 __alt_stack_base
0100f1f4 g     F .text	00000050 altera_avalon_jtag_uart_ioctl_fd
01002b00 g     F .text	00000138 clear_loc
01006e74 g     F .text	0000013c __swsetup_r
01000454 g     F .text	000000c0 sendNameAll
0100d09c g     F .text	00000258 __divdf3
01008b7c g     F .text	000000f0 __sfp
0101ca34 g     O .bss	00000054 boot_sector_data
0100a0bc g     F .text	00000058 __copybits
01018b84 g     O .rwdata	00000408 __malloc_av_
01008a10 g     F .text	00000004 __sinit_lock_release
010018c4 g     F .text	000001ac preload_sfx
0100ccd8 g     F .text	000003c4 __muldf3
0100b54c g     F .text	00000060 __sread
010110ac g     F .text	00000058 alt_up_rs232_disable_read_interrupt
01017c10 g     F .text	00000120 alt_find_file
010173ac g     F .text	000000b4 alt_dev_llist_insert
0100e8bc g     F .text	00000020 __malloc_lock
0101c43c g     O .bss	00000001 hasReadHeader
0100eadc g     F .text	000000bc sbrk
0100877c g     F .text	000001fc _fflush_r
0100b82c g     F .text	000000b4 _calloc_r
0101c434 g       *ABS*	00000000 __bss_start
01009b84 g     F .text	00000098 memset
01000fac g     F .text	0000003c main
0101c480 g     O .bss	00000004 alt_envp
0101c460 g     O .bss	00000004 __malloc_max_total_mem
0101192c g     F .text	00000058 alt_up_pixel_buffer_dma_swap_buffers
01011474 g     F .text	00000040 alt_up_char_buffer_open_dev
0100f154 g     F .text	00000058 altera_avalon_jtag_uart_write_fd
0100b798 g     F .text	0000001c __swbuf
01003f8c g     F .text	00000208 handle_timer_interrupts
0101647c g     F .text	0000008c alt_up_sd_card_get_attributes
01012c60 g     F .text	000000c8 Write_Sector_Data
0101689c g     F .text	00000620 alt_up_sd_card_write
01010700 g     F .text	000000b0 alt_up_character_lcd_shift_cursor
0100b460 g     F .text	00000008 __sclose
01800000 g       *ABS*	00000000 __alt_heap_limit
0100ba60 g     F .text	00000014 fclose
01003f10 g     F .text	0000007c cal_fall
01010e00 g     F .text	0000007c alt_up_ps2_read_data_byte
0101c445 g     O .bss	00000001 size
01000734 g     F .text	000000f0 clear_object
01004ce4 g     F .text	00000244 _strtol_r
0101d088 g     O .bss	00000190 _atexit0
010071c8 g     F .text	000015b4 _dtoa_r
0100429c g     F .text	00000740 _malloc_r
0101a7c8 g     O .rwdata	00000004 alt_errno
01009610 g     F .text	000000b8 _fwalk
01011018 g     F .text	00000040 alt_up_ps2_open_dev
0100ac10 g     F .text	00000104 putc
0100d97c g     F .text	00000060 __divsi3
01018970 g     O .rodata	00000014 __thenan_df
0101050c g     F .text	00000040 alt_up_character_lcd_open_dev
01008c6c g     F .text	0000012c _malloc_trim_r
01010b50 g     F .text	00000054 alt_up_ps2_enable_read_interrupt
010182f0 g       *ABS*	00000000 __CTOR_END__
0101c490 g     O .bss	00000004 status_register
010104d8 g     F .text	00000034 alt_up_character_lcd_init
0100b5ac g     F .text	000000bc strcmp
0101c498 g     O .bss	00000004 command_register
010182f0 g       *ABS*	00000000 __flash_rodata_start
010182f0 g       *ABS*	00000000 __DTOR_LIST__
010113b0 g     F .text	00000040 alt_up_rs232_open_dev
0100d37c g     F .text	00000088 __nedf2
0100fca0 g     F .text	00000064 alt_up_av_config_open_dev
0100ed18 g     F .text	00000034 alt_irq_init
0100ea7c g     F .text	00000060 alt_release_fd
01012e74 g     F .text	000000b8 get_cluster_flag
01010a24 g     F .text	00000034 read_data_valid
01004b9c g     F .text	00000074 sprintf
010108f0 g     F .text	00000034 alt_up_character_lcd_cursor_off
01018984 g     O .rodata	00000100 __clz_tab
01013444 g     F .text	000002b8 Write_File_Record_At_Offset
0101c470 g     O .bss	00000004 _PathLocale
0101c438 g     O .bss	00000004 pixel_buffer
01010ce4 g     F .text	0000006c alt_up_ps2_write_data_byte_with_ack
01017e78 g     F .text	00000014 atexit
0100b7b4 g     F .text	00000078 _write_r
0100fefc g     F .text	00000038 alt_up_av_config_read_ready
01009770 g     F .text	0000001c setlocale
0101c450 g     O .bss	00000004 p_shift
010136fc g     F .text	00000640 Check_for_DOS_FAT
01015598 g     F .text	000002d4 create_file
0101a7a4 g     O .rwdata	00000004 _impure_ptr
0101c494 g     O .bss	00000004 CSD_register_w0
0101c478 g     O .bss	00000004 alt_argc
01017524 g     F .text	00000064 _do_dtors
01000204 g     F .text	00000250 setName
01000020 g       .exceptions	00000000 alt_irq_entry
01009dd8 g     F .text	00000080 __ulp
0100b3f0 g     F .text	00000040 __isinfd
01008ac8 g     F .text	00000018 __fp_unlock_all
01000d18 g     F .text	0000022c send_data
0101a7b4 g     O .rwdata	00000008 alt_fs_list
01013f10 g     F .text	00000290 check_file_name_for_FAT16_compliance
0101c4a0 g     O .bss	00000004 buffer_memory
01011058 g     F .text	00000054 alt_up_rs232_enable_read_interrupt
01001580 g     F .text	00000040 sd_fopen
010028e8 g     F .text	00000080 free_bmp
01001110 g     F .text	00000040 sd_init
010111d0 g     F .text	00000048 alt_up_rs232_write_data
01001a70 g     F .text	000001ac preload_sfx1
01000020 g       *ABS*	00000000 __ram_exceptions_start
010096dc g     F .text	00000010 localeconv
0100fe2c g     F .text	00000038 alt_up_av_config_enable_interrupt
0101c4a4 g     O .bss	00000004 fat_partition_offset_in_512_byte_sectors
0100fe94 g     F .text	00000068 alt_up_av_config_read_acknowledge
01010234 g     F .text	00000064 alt_up_av_config_write_DC2_cfg_register
0101a7dc g       *ABS*	00000000 _edata
0101d218 g       *ABS*	00000000 _end
0101ca88 g     O .bss	00000500 active_files
010001b8 g       *ABS*	00000000 __ram_exceptions_end
0101586c g     F .text	00000154 copy_file_record_name_to_string
0100f64c g     F .text	000000f4 altera_avalon_jtag_uart_ioctl
01013d3c g     F .text	00000104 Look_for_FAT16
0100b4d0 g     F .text	0000007c __swrite
0101a798 g     O .rwdata	00000004 __malloc_trim_threshold
01017bf0 g     F .text	00000020 altera_nios2_qsys_irq_init
01017e8c g     F .text	00000038 exit
01015c94 g     F .text	000003b0 alt_up_sd_card_find_next
01009548 g     F .text	000000c8 _fwalk_reent
01010a84 g     F .text	000000cc alt_up_ps2_init
0100a3d4 g     F .text	0000018c __mdiff
01010360 g     F .text	00000064 alt_up_av_config_read_LTM_cfg_register
0100d9dc g     F .text	00000060 __modsi3
01012d78 g     F .text	000000fc Read_Sector_Data
01800000 g       *ABS*	00000000 __alt_data_end
01000020 g     F .exceptions	00000000 alt_exception
0101c448 g     O .bss	00000004 uart
01008a08 g     F .text	00000004 __sfp_lock_release
01000000 g       *ABS*	00000000 __alt_mem_sdram
010105c4 g     F .text	00000078 alt_up_character_lcd_string
0101a784 g     O .rwdata	00000004 RSL
01004268 g     F .text	0000000c atoi
01018576 g     O .rodata	00000101 _ctype_
01018260 g     F .text	00000020 _exit
0100b430 g     F .text	00000030 __isnand
0101c44c g     O .bss	00000004 Start
01017214 g     F .text	00000154 alt_alarm_start
01001c84 g     F .text	000003e8 sd_read_level
0100da4c g     F .text	00000098 __muldi3
01017088 g     F .text	000000fc Read_Sector_Data_CRC
01016508 g     F .text	00000394 alt_up_sd_card_read
0100978c g     F .text	00000194 __smakebuf_r
01010c74 g     F .text	00000070 alt_up_ps2_wait_for_ack
01004c70 g     F .text	00000074 strlen
01017864 g     F .text	00000188 open
0100d48c g     F .text	00000088 __gedf2
0100ffe0 g     F .text	000000f8 alt_up_av_config_read_video_cfg_register
0101a78c g     O .rwdata	00000004 mid
0101761c g     F .text	00000030 alt_icache_flush_all
01000b24 g     F .text	0000014c send_ack
01010688 g     F .text	00000078 alt_up_character_lcd_set_cursor_pos
0101a7cc g     O .rwdata	00000004 alt_priority_mask
01002968 g     F .text	00000198 draw_bmp
01006e50 g     F .text	00000024 __vfprintf_internal
010102fc g     F .text	00000064 alt_up_av_config_write_D5M_cfg_register
01010ed4 g     F .text	0000009c alt_up_ps2_read_fd
0100cbe4 g     F .text	00000080 __subdf3
01004194 g     F .text	000000c8 dump_data
01009cb4 g     F .text	000000c4 __lo0bits
0101a7d4 g     O .rwdata	00000008 alt_alarm_list
010174c0 g     F .text	00000064 _do_ctors
01011104 g     F .text	0000003c alt_up_rs232_get_used_space_in_read_FIFO
0100e078 g     F .text	000000fc close
0100e614 g     F .text	00000080 alt_load
010100d8 g     F .text	000000f8 alt_up_av_config_write_video_cfg_register
0100db64 g     F .text	00000314 __pack_d
01014260 g     F .text	000002ec match_file_record_to_name_ext
01004274 g     F .text	00000014 free
01008a0c g     F .text	00000004 __sinit_lock_acquire
0100a8d0 g     F .text	00000100 __multadd
01009c1c g     F .text	00000028 _Bfree
010101d0 g     F .text	00000064 alt_up_av_config_read_DC2_cfg_register



Disassembly of section .entry:

01000000 <__reset>:
#if NIOS2_ICACHE_SIZE > 0 && defined(ALT_ALLOW_CODE_AT_RESET) && !defined(ALT_SIM_OPTIMIZE)
    /* Assume the instruction cache size is always a power of two. */
#if NIOS2_ICACHE_SIZE > 0x8000
    movhi r2, %hi(NIOS2_ICACHE_SIZE)
#else
    movui r2, NIOS2_ICACHE_SIZE
 1000000:	00840014 	movui	r2,4096
#endif

0:
    initi r2
 1000004:	1001483a 	initi	r2
    addi r2, r2, -NIOS2_ICACHE_LINE_SIZE
 1000008:	10bff804 	addi	r2,r2,-32
    bgt r2, zero, 0b
 100000c:	00bffd16 	blt	zero,r2,1000004 <__reset+0x4>
 * Jump to the _start entry point in the .text section if reset code
 * is allowed or if optimizing for RTL simulation.
 */
#if defined(ALT_ALLOW_CODE_AT_RESET) || defined(ALT_SIM_OPTIMIZE)
    /* Jump to the _start entry point in the .text section. */
    movhi r1, %hi(_start)
 1000010:	00404034 	movhi	at,256
    ori r1, r1, %lo(_start)
 1000014:	08406e14 	ori	at,at,440
    jmp r1
 1000018:	0800683a 	jmp	at
 100001c:	00000000 	call	0 <__alt_mem_onchip_memory>

Disassembly of section .exceptions:

01000020 <alt_exception>:
         * Process an exception.  For all exceptions we must preserve all
         * caller saved registers on the stack (See the Nios2 ABI
         * documentation for details).
         */

        addi  sp, sp, -76
 1000020:	deffed04 	addi	sp,sp,-76

#endif

#endif

        stw   ra,  0(sp)
 1000024:	dfc00015 	stw	ra,0(sp)
        /*
         * Leave a gap in the stack frame at 4(sp) for the muldiv handler to
         * store zero into.
         */

        stw   r1,   8(sp)
 1000028:	d8400215 	stw	at,8(sp)
        stw   r2,  12(sp)
 100002c:	d8800315 	stw	r2,12(sp)
        stw   r3,  16(sp)
 1000030:	d8c00415 	stw	r3,16(sp)
        stw   r4,  20(sp)
 1000034:	d9000515 	stw	r4,20(sp)
        stw   r5,  24(sp)
 1000038:	d9400615 	stw	r5,24(sp)
        stw   r6,  28(sp)
 100003c:	d9800715 	stw	r6,28(sp)
        stw   r7,  32(sp)
 1000040:	d9c00815 	stw	r7,32(sp)

        rdctl r5, estatus
 1000044:	000b307a 	rdctl	r5,estatus

        stw   r8,  36(sp)
 1000048:	da000915 	stw	r8,36(sp)
        stw   r9,  40(sp)
 100004c:	da400a15 	stw	r9,40(sp)
        stw   r10, 44(sp)
 1000050:	da800b15 	stw	r10,44(sp)
        stw   r11, 48(sp)
 1000054:	dac00c15 	stw	r11,48(sp)
        stw   r12, 52(sp)
 1000058:	db000d15 	stw	r12,52(sp)
        stw   r13, 56(sp)
 100005c:	db400e15 	stw	r13,56(sp)
        stw   r14, 60(sp)
 1000060:	db800f15 	stw	r14,60(sp)
        stw   r15, 64(sp)
 1000064:	dbc01015 	stw	r15,64(sp)
        /*
         * ea-4 contains the address of the instruction being executed
         * when the exception occured. For interrupt exceptions, we will
         * will be re-issue the isntruction. Store it in 72(sp)
         */
        stw   r5,  68(sp)  /* estatus */
 1000068:	d9401115 	stw	r5,68(sp)
        addi  r15, ea, -4  /* instruction that caused exception */
 100006c:	ebffff04 	addi	r15,ea,-4
        stw   r15,  72(sp)
 1000070:	dbc01215 	stw	r15,72(sp)
#else
        /*
         * Test to see if the exception was a software exception or caused 
         * by an external interrupt, and vector accordingly.
         */
        rdctl r4, ipending
 1000074:	0009313a 	rdctl	r4,ipending
        andi  r2, r5, 1
 1000078:	2880004c 	andi	r2,r5,1
        beq   r2, zero, .Lnot_irq
 100007c:	10000326 	beq	r2,zero,100008c <alt_exception+0x6c>
        beq   r4, zero, .Lnot_irq
 1000080:	20000226 	beq	r4,zero,100008c <alt_exception+0x6c>
        /*
         * Now that all necessary registers have been preserved, call 
         * alt_irq_handler() to process the interrupts.
         */

        call alt_irq_handler
 1000084:	10000ec0 	call	10000ec <alt_irq_handler>

        .section .exceptions.irqreturn, "xa"

        br    .Lexception_exit
 1000088:	00000306 	br	1000098 <alt_exception+0x78>
         * upon completion, so we write ea (address of instruction *after*
         * the one where the exception occured) into 72(sp). The actual
         * instruction that caused the exception is written in r2, which these
         * handlers will utilize.
         */
        stw   ea,  72(sp)  /* Don't re-issue */
 100008c:	df401215 	stw	ea,72(sp)
        ldw   r2, -4(ea)   /* Instruction that caused exception */
 1000090:	e8bfff17 	ldw	r2,-4(ea)
#ifdef NIOS2_HAS_DEBUG_STUB
       /*
        *  Either tell the user now (if there is a debugger attached) or go into
        *  the debug monitor which will loop until a debugger is attached.
        */
        break
 1000094:	003da03a 	break	0
        /* 
         * Restore the saved registers, so that all general purpose registers 
         * have been restored to their state at the time the interrupt occured.
         */

        ldw   r5,  68(sp)
 1000098:	d9401117 	ldw	r5,68(sp)
        ldw   ea,  72(sp)  /* This becomes the PC once eret is executed */
 100009c:	df401217 	ldw	ea,72(sp)
        ldw   ra,   0(sp)
 10000a0:	dfc00017 	ldw	ra,0(sp)

        wrctl estatus, r5
 10000a4:	2801707a 	wrctl	estatus,r5

        ldw   r1,   8(sp)
 10000a8:	d8400217 	ldw	at,8(sp)
        ldw   r2,  12(sp)
 10000ac:	d8800317 	ldw	r2,12(sp)
        ldw   r3,  16(sp)
 10000b0:	d8c00417 	ldw	r3,16(sp)
        ldw   r4,  20(sp)
 10000b4:	d9000517 	ldw	r4,20(sp)
        ldw   r5,  24(sp)
 10000b8:	d9400617 	ldw	r5,24(sp)
        ldw   r6,  28(sp)
 10000bc:	d9800717 	ldw	r6,28(sp)
        ldw   r7,  32(sp)
 10000c0:	d9c00817 	ldw	r7,32(sp)
#ifdef ALT_STACK_CHECK
        ldw   et, %gprel(alt_exception_old_stack_limit)(gp)
#endif
#endif

        ldw   r8,  36(sp)
 10000c4:	da000917 	ldw	r8,36(sp)
        ldw   r9,  40(sp)
 10000c8:	da400a17 	ldw	r9,40(sp)
        ldw   r10, 44(sp)
 10000cc:	da800b17 	ldw	r10,44(sp)
        ldw   r11, 48(sp)
 10000d0:	dac00c17 	ldw	r11,48(sp)
        ldw   r12, 52(sp)
 10000d4:	db000d17 	ldw	r12,52(sp)
        ldw   r13, 56(sp)
 10000d8:	db400e17 	ldw	r13,56(sp)
        ldw   r14, 60(sp)
 10000dc:	db800f17 	ldw	r14,60(sp)
        ldw   r15, 64(sp)
 10000e0:	dbc01017 	ldw	r15,64(sp)
#endif

        ldw   sp,  76(sp)

#else
        addi  sp, sp, 76
 10000e4:	dec01304 	addi	sp,sp,76

        /*
         * Return to the interrupted instruction.
         */

        eret
 10000e8:	ef80083a 	eret

010000ec <alt_irq_handler>:
 * instruction is present if the macro ALT_CI_INTERRUPT_VECTOR defined.
 */

void alt_irq_handler (void) __attribute__ ((section (".exceptions")));
void alt_irq_handler (void)
{
 10000ec:	defff904 	addi	sp,sp,-28
 10000f0:	dfc00615 	stw	ra,24(sp)
 10000f4:	df000515 	stw	fp,20(sp)
 10000f8:	df000504 	addi	fp,sp,20
#ifndef NIOS2_EIC_PRESENT
static ALT_INLINE alt_u32 ALT_ALWAYS_INLINE alt_irq_pending (void)
{
  alt_u32 active;

  NIOS2_READ_IPENDING (active);
 10000fc:	0005313a 	rdctl	r2,ipending
 1000100:	e0bffc15 	stw	r2,-16(fp)

  return active;
 1000104:	e0bffc17 	ldw	r2,-16(fp)
   * Consider the case where the high priority interupt is asserted during
   * the interrupt entry sequence for a lower priority interrupt to see why
   * this is the case.
   */

  active = alt_irq_pending ();
 1000108:	e0bfff15 	stw	r2,-4(fp)

  do
  {
    i = 0;
 100010c:	e03ffd15 	stw	zero,-12(fp)
    mask = 1;
 1000110:	00800044 	movi	r2,1
 1000114:	e0bffe15 	stw	r2,-8(fp)
     * called to clear the interrupt condition.
     */

    do
    {
      if (active & mask)
 1000118:	e0ffff17 	ldw	r3,-4(fp)
 100011c:	e0bffe17 	ldw	r2,-8(fp)
 1000120:	1884703a 	and	r2,r3,r2
 1000124:	1005003a 	cmpeq	r2,r2,zero
 1000128:	1000171e 	bne	r2,zero,1000188 <alt_irq_handler+0x9c>
      { 
#ifdef ALT_ENHANCED_INTERRUPT_API_PRESENT
        alt_irq[i].handler(alt_irq[i].context); 
#else
        alt_irq[i].handler(alt_irq[i].context, i); 
 100012c:	e0bffd17 	ldw	r2,-12(fp)
 1000130:	00c040b4 	movhi	r3,258
 1000134:	18f3e204 	addi	r3,r3,-12408
 1000138:	100490fa 	slli	r2,r2,3
 100013c:	10c5883a 	add	r2,r2,r3
 1000140:	11800017 	ldw	r6,0(r2)
 1000144:	e0bffd17 	ldw	r2,-12(fp)
 1000148:	00c040b4 	movhi	r3,258
 100014c:	18f3e204 	addi	r3,r3,-12408
 1000150:	100490fa 	slli	r2,r2,3
 1000154:	10c5883a 	add	r2,r2,r3
 1000158:	10800104 	addi	r2,r2,4
 100015c:	11000017 	ldw	r4,0(r2)
 1000160:	e17ffd17 	ldw	r5,-12(fp)
 1000164:	303ee83a 	callr	r6
#ifndef NIOS2_EIC_PRESENT
static ALT_INLINE alt_u32 ALT_ALWAYS_INLINE alt_irq_pending (void)
{
  alt_u32 active;

  NIOS2_READ_IPENDING (active);
 1000168:	0005313a 	rdctl	r2,ipending
 100016c:	e0bffb15 	stw	r2,-20(fp)

  return active;
 1000170:	e0bffb17 	ldw	r2,-20(fp)
      mask <<= 1;
      i++;

    } while (1);

    active = alt_irq_pending ();
 1000174:	e0bfff15 	stw	r2,-4(fp)
    
  } while (active);
 1000178:	e0bfff17 	ldw	r2,-4(fp)
 100017c:	1004c03a 	cmpne	r2,r2,zero
 1000180:	103fe21e 	bne	r2,zero,100010c <alt_irq_handler+0x20>
 1000184:	00000706 	br	10001a4 <alt_irq_handler+0xb8>
#else
        alt_irq[i].handler(alt_irq[i].context, i); 
#endif
        break;
      }
      mask <<= 1;
 1000188:	e0bffe17 	ldw	r2,-8(fp)
 100018c:	1085883a 	add	r2,r2,r2
 1000190:	e0bffe15 	stw	r2,-8(fp)
      i++;
 1000194:	e0bffd17 	ldw	r2,-12(fp)
 1000198:	10800044 	addi	r2,r2,1
 100019c:	e0bffd15 	stw	r2,-12(fp)

    } while (1);
 10001a0:	003fdd06 	br	1000118 <alt_irq_handler+0x2c>
  /*
   * Notify the operating system that interrupt processing is complete.
   */ 

  ALT_OS_INT_EXIT();
}
 10001a4:	e037883a 	mov	sp,fp
 10001a8:	dfc00117 	ldw	ra,4(sp)
 10001ac:	df000017 	ldw	fp,0(sp)
 10001b0:	dec00204 	addi	sp,sp,8
 10001b4:	f800283a 	ret

Disassembly of section .text:

010001b8 <_start>:

    /* Assume the data cache size is always a power of two. */
#if NIOS2_DCACHE_SIZE > 0x8000
    movhi r2, %hi(NIOS2_DCACHE_SIZE)
#else
    movui r2, NIOS2_DCACHE_SIZE
 10001b8:	00820014 	movui	r2,2048
#endif

0:
    initd 0(r2)
 10001bc:	10000033 	initd	0(r2)
    addi r2, r2, -NIOS2_DCACHE_LINE_SIZE
 10001c0:	10bff804 	addi	r2,r2,-32
    bgt r2, zero, 0b
 10001c4:	00bffd16 	blt	zero,r2,10001bc <_start+0x4>
#if (NIOS2_NUM_OF_SHADOW_REG_SETS == 0)    
    /*
     * Now that the caches are initialized, set up the stack pointer.
     * The value provided by the linker is assumed to be correctly aligned.
     */
    movhi sp, %hi(__alt_stack_pointer)
 10001c8:	06c06034 	movhi	sp,384
    ori sp, sp, %lo(__alt_stack_pointer)
 10001cc:	dec00014 	ori	sp,sp,0

    /* Set up the global pointer. */
    movhi gp, %hi(_gp)
 10001d0:	068040b4 	movhi	gp,258
    ori gp, gp, %lo(_gp)
 10001d4:	d689e114 	ori	gp,gp,10116
 */
#ifndef ALT_SIM_OPTIMIZE
    /* Log that the BSS is about to be cleared. */
    ALT_LOG_PUTS(alt_log_msg_bss)

    movhi r2, %hi(__bss_start)
 10001d8:	00804074 	movhi	r2,257
    ori r2, r2, %lo(__bss_start)
 10001dc:	10b10d14 	ori	r2,r2,50228

    movhi r3, %hi(__bss_end)
 10001e0:	00c04074 	movhi	r3,257
    ori r3, r3, %lo(__bss_end)
 10001e4:	18f48614 	ori	r3,r3,53784

    beq r2, r3, 1f
 10001e8:	10c00326 	beq	r2,r3,10001f8 <_start+0x40>

0:
    stw zero, (r2)
 10001ec:	10000015 	stw	zero,0(r2)
    addi r2, r2, 4
 10001f0:	10800104 	addi	r2,r2,4
    bltu r2, r3, 0b
 10001f4:	10fffd36 	bltu	r2,r3,10001ec <_start+0x34>
     * section aren't defined until alt_load() has been called).
     */
    mov   et, zero
#endif

    call alt_load
 10001f8:	100e6140 	call	100e614 <alt_load>

    /* Log that alt_main is about to be called. */
    ALT_LOG_PUTS(alt_log_msg_alt_main)

    /* Call the C entry point. It should never return. */
    call alt_main
 10001fc:	100e8500 	call	100e850 <alt_main>

01000200 <alt_after_alt_main>:

    /* Wait in infinite loop in case alt_main does return. */
alt_after_alt_main:
    br alt_after_alt_main
 1000200:	003fff06 	br	1000200 <alt_after_alt_main>

01000204 <setName>:
#include "stdio.h"

players p;
volatile int set_name_i = 0;

void setName(unsigned char id, unsigned char size, unsigned char *name){
 1000204:	defff904 	addi	sp,sp,-28
 1000208:	dfc00615 	stw	ra,24(sp)
 100020c:	df000515 	stw	fp,20(sp)
 1000210:	df000504 	addi	fp,sp,20
 1000214:	e1bffe15 	stw	r6,-8(fp)
 1000218:	e13ffc05 	stb	r4,-16(fp)
 100021c:	e17ffd05 	stb	r5,-12(fp)
	int i;
	switch(set_name_i){
 1000220:	d0a72c17 	ldw	r2,-25424(gp)
 1000224:	e0bfff15 	stw	r2,-4(fp)
 1000228:	e0ffff17 	ldw	r3,-4(fp)
 100022c:	18800060 	cmpeqi	r2,r3,1
 1000230:	1000291e 	bne	r2,zero,10002d8 <setName+0xd4>
 1000234:	e0ffff17 	ldw	r3,-4(fp)
 1000238:	18800088 	cmpgei	r2,r3,2
 100023c:	1000041e 	bne	r2,zero,1000250 <setName+0x4c>
 1000240:	e0ffff17 	ldw	r3,-4(fp)
 1000244:	1805003a 	cmpeq	r2,r3,zero
 1000248:	1000081e 	bne	r2,zero,100026c <setName+0x68>
 100024c:	00007506 	br	1000424 <setName+0x220>
 1000250:	e0ffff17 	ldw	r3,-4(fp)
 1000254:	188000a0 	cmpeqi	r2,r3,2
 1000258:	10003b1e 	bne	r2,zero,1000348 <setName+0x144>
 100025c:	e0ffff17 	ldw	r3,-4(fp)
 1000260:	188000e0 	cmpeqi	r2,r3,3
 1000264:	1000541e 	bne	r2,zero,10003b8 <setName+0x1b4>
 1000268:	00006e06 	br	1000424 <setName+0x220>
	case 0:
		for(i = 0; i < size; i++){
 100026c:	e03ffb15 	stw	zero,-20(fp)
 1000270:	00000d06 	br	10002a8 <setName+0xa4>
			p.p0name[i] = name[i];
 1000274:	e13ffb17 	ldw	r4,-20(fp)
 1000278:	e0bffb17 	ldw	r2,-20(fp)
 100027c:	1007883a 	mov	r3,r2
 1000280:	e0bffe17 	ldw	r2,-8(fp)
 1000284:	1885883a 	add	r2,r3,r2
 1000288:	10c00003 	ldbu	r3,0(r2)
 100028c:	008040b4 	movhi	r2,258
 1000290:	10b13a04 	addi	r2,r2,-15128
 1000294:	1105883a 	add	r2,r2,r4
 1000298:	10c00005 	stb	r3,0(r2)

void setName(unsigned char id, unsigned char size, unsigned char *name){
	int i;
	switch(set_name_i){
	case 0:
		for(i = 0; i < size; i++){
 100029c:	e0bffb17 	ldw	r2,-20(fp)
 10002a0:	10800044 	addi	r2,r2,1
 10002a4:	e0bffb15 	stw	r2,-20(fp)
 10002a8:	e0fffd03 	ldbu	r3,-12(fp)
 10002ac:	e0bffb17 	ldw	r2,-20(fp)
 10002b0:	10fff016 	blt	r2,r3,1000274 <setName+0x70>
			p.p0name[i] = name[i];
		}
		p.size0 = size;
 10002b4:	00c040b4 	movhi	r3,258
 10002b8:	18f13a04 	addi	r3,r3,-15128
 10002bc:	e0bffd03 	ldbu	r2,-12(fp)
 10002c0:	18802005 	stb	r2,128(r3)
		p.pid0 = id;
 10002c4:	00c040b4 	movhi	r3,258
 10002c8:	18f13a04 	addi	r3,r3,-15128
 10002cc:	e0bffc03 	ldbu	r2,-16(fp)
 10002d0:	18802105 	stb	r2,132(r3)
		break;
 10002d4:	00005306 	br	1000424 <setName+0x220>
	case 1:
		for(i = 0; i < size; i++){
 10002d8:	e03ffb15 	stw	zero,-20(fp)
 10002dc:	00000e06 	br	1000318 <setName+0x114>
			p.p1name[i] = name[i];
 10002e0:	e13ffb17 	ldw	r4,-20(fp)
 10002e4:	e0bffb17 	ldw	r2,-20(fp)
 10002e8:	1007883a 	mov	r3,r2
 10002ec:	e0bffe17 	ldw	r2,-8(fp)
 10002f0:	1885883a 	add	r2,r3,r2
 10002f4:	10c00003 	ldbu	r3,0(r2)
 10002f8:	008040b4 	movhi	r2,258
 10002fc:	10b13a04 	addi	r2,r2,-15128
 1000300:	2085883a 	add	r2,r4,r2
 1000304:	10800804 	addi	r2,r2,32
 1000308:	10c00005 	stb	r3,0(r2)
		}
		p.size0 = size;
		p.pid0 = id;
		break;
	case 1:
		for(i = 0; i < size; i++){
 100030c:	e0bffb17 	ldw	r2,-20(fp)
 1000310:	10800044 	addi	r2,r2,1
 1000314:	e0bffb15 	stw	r2,-20(fp)
 1000318:	e0fffd03 	ldbu	r3,-12(fp)
 100031c:	e0bffb17 	ldw	r2,-20(fp)
 1000320:	10ffef16 	blt	r2,r3,10002e0 <setName+0xdc>
			p.p1name[i] = name[i];
		}
		p.size1 = size;
 1000324:	00c040b4 	movhi	r3,258
 1000328:	18f13a04 	addi	r3,r3,-15128
 100032c:	e0bffd03 	ldbu	r2,-12(fp)
 1000330:	18802045 	stb	r2,129(r3)
		p.pid1 = id;
 1000334:	00c040b4 	movhi	r3,258
 1000338:	18f13a04 	addi	r3,r3,-15128
 100033c:	e0bffc03 	ldbu	r2,-16(fp)
 1000340:	18802145 	stb	r2,133(r3)
		break;
 1000344:	00003706 	br	1000424 <setName+0x220>
	case 2:
		for(i = 0; i < size; i++){
 1000348:	e03ffb15 	stw	zero,-20(fp)
 100034c:	00000e06 	br	1000388 <setName+0x184>
			p.p2name[i] = name[i];
 1000350:	e13ffb17 	ldw	r4,-20(fp)
 1000354:	e0bffb17 	ldw	r2,-20(fp)
 1000358:	1007883a 	mov	r3,r2
 100035c:	e0bffe17 	ldw	r2,-8(fp)
 1000360:	1885883a 	add	r2,r3,r2
 1000364:	10c00003 	ldbu	r3,0(r2)
 1000368:	008040b4 	movhi	r2,258
 100036c:	10b13a04 	addi	r2,r2,-15128
 1000370:	2085883a 	add	r2,r4,r2
 1000374:	10801004 	addi	r2,r2,64
 1000378:	10c00005 	stb	r3,0(r2)
		}
		p.size1 = size;
		p.pid1 = id;
		break;
	case 2:
		for(i = 0; i < size; i++){
 100037c:	e0bffb17 	ldw	r2,-20(fp)
 1000380:	10800044 	addi	r2,r2,1
 1000384:	e0bffb15 	stw	r2,-20(fp)
 1000388:	e0fffd03 	ldbu	r3,-12(fp)
 100038c:	e0bffb17 	ldw	r2,-20(fp)
 1000390:	10ffef16 	blt	r2,r3,1000350 <setName+0x14c>
			p.p2name[i] = name[i];
		}
		p.size2 = size;
 1000394:	00c040b4 	movhi	r3,258
 1000398:	18f13a04 	addi	r3,r3,-15128
 100039c:	e0bffd03 	ldbu	r2,-12(fp)
 10003a0:	18802085 	stb	r2,130(r3)
		p.pid2 = id;
 10003a4:	00c040b4 	movhi	r3,258
 10003a8:	18f13a04 	addi	r3,r3,-15128
 10003ac:	e0bffc03 	ldbu	r2,-16(fp)
 10003b0:	18802185 	stb	r2,134(r3)
		break;
 10003b4:	00001b06 	br	1000424 <setName+0x220>
	case 3:
		for(i = 0; i < size; i++){
 10003b8:	e03ffb15 	stw	zero,-20(fp)
 10003bc:	00000e06 	br	10003f8 <setName+0x1f4>
			p.p3name[i] = name[i];
 10003c0:	e13ffb17 	ldw	r4,-20(fp)
 10003c4:	e0bffb17 	ldw	r2,-20(fp)
 10003c8:	1007883a 	mov	r3,r2
 10003cc:	e0bffe17 	ldw	r2,-8(fp)
 10003d0:	1885883a 	add	r2,r3,r2
 10003d4:	10c00003 	ldbu	r3,0(r2)
 10003d8:	008040b4 	movhi	r2,258
 10003dc:	10b13a04 	addi	r2,r2,-15128
 10003e0:	2085883a 	add	r2,r4,r2
 10003e4:	10801804 	addi	r2,r2,96
 10003e8:	10c00005 	stb	r3,0(r2)
		}
		p.size2 = size;
		p.pid2 = id;
		break;
	case 3:
		for(i = 0; i < size; i++){
 10003ec:	e0bffb17 	ldw	r2,-20(fp)
 10003f0:	10800044 	addi	r2,r2,1
 10003f4:	e0bffb15 	stw	r2,-20(fp)
 10003f8:	e0fffd03 	ldbu	r3,-12(fp)
 10003fc:	e0bffb17 	ldw	r2,-20(fp)
 1000400:	10ffef16 	blt	r2,r3,10003c0 <setName+0x1bc>
			p.p3name[i] = name[i];
		}
		p.size3 = size;
 1000404:	00c040b4 	movhi	r3,258
 1000408:	18f13a04 	addi	r3,r3,-15128
 100040c:	e0bffd03 	ldbu	r2,-12(fp)
 1000410:	188020c5 	stb	r2,131(r3)
		p.pid3 = id;
 1000414:	00c040b4 	movhi	r3,258
 1000418:	18f13a04 	addi	r3,r3,-15128
 100041c:	e0bffc03 	ldbu	r2,-16(fp)
 1000420:	188021c5 	stb	r2,135(r3)
		break;
	}
	set_name_i++;
 1000424:	d0a72c17 	ldw	r2,-25424(gp)
 1000428:	10800044 	addi	r2,r2,1
 100042c:	d0a72c15 	stw	r2,-25424(gp)
	printf("i: %i\n", set_name_i);
 1000430:	d1672c17 	ldw	r5,-25424(gp)
 1000434:	010040b4 	movhi	r4,258
 1000438:	2120bc04 	addi	r4,r4,-32016
 100043c:	10049dc0 	call	10049dc <printf>
}
 1000440:	e037883a 	mov	sp,fp
 1000444:	dfc00117 	ldw	ra,4(sp)
 1000448:	df000017 	ldw	fp,0(sp)
 100044c:	dec00204 	addi	sp,sp,8
 1000450:	f800283a 	ret

01000454 <sendNameAll>:

void sendNameAll(){
 1000454:	defffe04 	addi	sp,sp,-8
 1000458:	dfc00115 	stw	ra,4(sp)
 100045c:	df000015 	stw	fp,0(sp)
 1000460:	d839883a 	mov	fp,sp
	printf("sending names\n");
 1000464:	010040b4 	movhi	r4,258
 1000468:	2120be04 	addi	r4,r4,-32008
 100046c:	1004b180 	call	1004b18 <puts>
	send_data(SEND_TO_ALL,12,p.size0,p.p0name);
 1000470:	008040b4 	movhi	r2,258
 1000474:	10b13a04 	addi	r2,r2,-15128
 1000478:	10802003 	ldbu	r2,128(r2)
 100047c:	11803fcc 	andi	r6,r2,255
 1000480:	01003fc4 	movi	r4,255
 1000484:	01400304 	movi	r5,12
 1000488:	01c040b4 	movhi	r7,258
 100048c:	39f13a04 	addi	r7,r7,-15128
 1000490:	1000d180 	call	1000d18 <send_data>
	send_data(SEND_TO_ALL,12,p.size1,p.p1name);
 1000494:	008040b4 	movhi	r2,258
 1000498:	10b13a04 	addi	r2,r2,-15128
 100049c:	10802043 	ldbu	r2,129(r2)
 10004a0:	11803fcc 	andi	r6,r2,255
 10004a4:	01003fc4 	movi	r4,255
 10004a8:	01400304 	movi	r5,12
 10004ac:	01c040b4 	movhi	r7,258
 10004b0:	39f14204 	addi	r7,r7,-15096
 10004b4:	1000d180 	call	1000d18 <send_data>
	send_data(SEND_TO_ALL,12,p.size2,p.p2name);
 10004b8:	008040b4 	movhi	r2,258
 10004bc:	10b13a04 	addi	r2,r2,-15128
 10004c0:	10802083 	ldbu	r2,130(r2)
 10004c4:	11803fcc 	andi	r6,r2,255
 10004c8:	01003fc4 	movi	r4,255
 10004cc:	01400304 	movi	r5,12
 10004d0:	01c040b4 	movhi	r7,258
 10004d4:	39f14a04 	addi	r7,r7,-15064
 10004d8:	1000d180 	call	1000d18 <send_data>
	send_data(SEND_TO_ALL,12,p.size3,p.p3name);
 10004dc:	008040b4 	movhi	r2,258
 10004e0:	10b13a04 	addi	r2,r2,-15128
 10004e4:	108020c3 	ldbu	r2,131(r2)
 10004e8:	11803fcc 	andi	r6,r2,255
 10004ec:	01003fc4 	movi	r4,255
 10004f0:	01400304 	movi	r5,12
 10004f4:	01c040b4 	movhi	r7,258
 10004f8:	39f15204 	addi	r7,r7,-15032
 10004fc:	1000d180 	call	1000d18 <send_data>
}
 1000500:	e037883a 	mov	sp,fp
 1000504:	dfc00117 	ldw	ra,4(sp)
 1000508:	df000017 	ldw	fp,0(sp)
 100050c:	dec00204 	addi	sp,sp,8
 1000510:	f800283a 	ret

01000514 <draw_object>:

alt_up_pixel_buffer_dma_dev* pixel_buffer;



void draw_object(alt_up_pixel_buffer_dma_dev *pixel_buffer, draw object, bmp* b, int num) {
 1000514:	defff304 	addi	sp,sp,-52
 1000518:	df000915 	stw	fp,36(sp)
 100051c:	df000904 	addi	fp,sp,36
 1000520:	e13fff15 	stw	r4,-4(fp)
 1000524:	e1400115 	stw	r5,4(fp)
 1000528:	e1800215 	stw	r6,8(fp)
 100052c:	e1c00315 	stw	r7,12(fp)
	unsigned int i,j,k,l;
	unsigned int addr = pixel_buffer->back_buffer_start_address;
 1000530:	e0bfff17 	ldw	r2,-4(fp)
 1000534:	10800c17 	ldw	r2,48(r2)
 1000538:	e0bffa15 	stw	r2,-24(fp)
	unsigned int limit_x = pixel_buffer->x_resolution;
 100053c:	e0bfff17 	ldw	r2,-4(fp)
 1000540:	10800f17 	ldw	r2,60(r2)
 1000544:	e0bff915 	stw	r2,-28(fp)
	short int** pic = b->pic;
 1000548:	e0801117 	ldw	r2,68(fp)
 100054c:	10800217 	ldw	r2,8(r2)
 1000550:	e0bff815 	stw	r2,-32(fp)
	short int temp;


	limit_x = limit_x << 1;
 1000554:	e0bff917 	ldw	r2,-28(fp)
 1000558:	1085883a 	add	r2,r2,r2
 100055c:	e0bff915 	stw	r2,-28(fp)
	addr += object.y[num] * (limit_x);
 1000560:	e0801217 	ldw	r2,72(fp)
 1000564:	1085883a 	add	r2,r2,r2
 1000568:	1085883a 	add	r2,r2,r2
 100056c:	e0c00104 	addi	r3,fp,4
 1000570:	10c5883a 	add	r2,r2,r3
 1000574:	10800404 	addi	r2,r2,16
 1000578:	10800017 	ldw	r2,0(r2)
 100057c:	1007883a 	mov	r3,r2
 1000580:	e0bff917 	ldw	r2,-28(fp)
 1000584:	1887383a 	mul	r3,r3,r2
 1000588:	e0bffa17 	ldw	r2,-24(fp)
 100058c:	10c5883a 	add	r2,r2,r3
 1000590:	e0bffa15 	stw	r2,-24(fp)

	for(i = object.y[num], k = 0; i < object.y[num] + b->y; i++, k++) {
 1000594:	e0801217 	ldw	r2,72(fp)
 1000598:	1085883a 	add	r2,r2,r2
 100059c:	1085883a 	add	r2,r2,r2
 10005a0:	e1000104 	addi	r4,fp,4
 10005a4:	1105883a 	add	r2,r2,r4
 10005a8:	10800404 	addi	r2,r2,16
 10005ac:	10800017 	ldw	r2,0(r2)
 10005b0:	e0bffe15 	stw	r2,-8(fp)
 10005b4:	e03ffc15 	stw	zero,-16(fp)
 10005b8:	00004d06 	br	10006f0 <draw_object+0x1dc>
		for (j = object.x[num], l = 0; j < object.length[num]+ object.x[num]; j++, l++)
 10005bc:	e0801217 	ldw	r2,72(fp)
 10005c0:	1085883a 	add	r2,r2,r2
 10005c4:	1085883a 	add	r2,r2,r2
 10005c8:	e0c00104 	addi	r3,fp,4
 10005cc:	10c5883a 	add	r2,r2,r3
 10005d0:	10800017 	ldw	r2,0(r2)
 10005d4:	e0bffd15 	stw	r2,-12(fp)
 10005d8:	e03ffb15 	stw	zero,-20(fp)
 10005dc:	00002906 	br	1000684 <draw_object+0x170>
		{
			//alternative pixel drawing function
			//alt_up_pixel_buffer_dma_draw(pixel_buffer, pic[k][l], l, k);

			//draw pixel
			temp = pic[k][l];
 10005e0:	e0bffc17 	ldw	r2,-16(fp)
 10005e4:	1085883a 	add	r2,r2,r2
 10005e8:	1085883a 	add	r2,r2,r2
 10005ec:	1007883a 	mov	r3,r2
 10005f0:	e0bff817 	ldw	r2,-32(fp)
 10005f4:	1885883a 	add	r2,r3,r2
 10005f8:	10c00017 	ldw	r3,0(r2)
 10005fc:	e0bffb17 	ldw	r2,-20(fp)
 1000600:	1085883a 	add	r2,r2,r2
 1000604:	1885883a 	add	r2,r3,r2
 1000608:	1080000b 	ldhu	r2,0(r2)
 100060c:	e0bff70d 	sth	r2,-36(fp)
			if(pic[k][l] != 0x789) //if pure white, don't draw
 1000610:	e0bffc17 	ldw	r2,-16(fp)
 1000614:	1085883a 	add	r2,r2,r2
 1000618:	1085883a 	add	r2,r2,r2
 100061c:	1007883a 	mov	r3,r2
 1000620:	e0bff817 	ldw	r2,-32(fp)
 1000624:	1885883a 	add	r2,r3,r2
 1000628:	10c00017 	ldw	r3,0(r2)
 100062c:	e0bffb17 	ldw	r2,-20(fp)
 1000630:	1085883a 	add	r2,r2,r2
 1000634:	1885883a 	add	r2,r3,r2
 1000638:	1080000b 	ldhu	r2,0(r2)
 100063c:	10bfffcc 	andi	r2,r2,65535
 1000640:	10a0001c 	xori	r2,r2,32768
 1000644:	10a00004 	addi	r2,r2,-32768
 1000648:	1081e260 	cmpeqi	r2,r2,1929
 100064c:	1000071e 	bne	r2,zero,100066c <draw_object+0x158>
				IOWR_16DIRECT(addr, j << 1, temp);
 1000650:	e0bffd17 	ldw	r2,-12(fp)
 1000654:	1085883a 	add	r2,r2,r2
 1000658:	1007883a 	mov	r3,r2
 100065c:	e0bffa17 	ldw	r2,-24(fp)
 1000660:	1885883a 	add	r2,r3,r2
 1000664:	e0fff70f 	ldh	r3,-36(fp)
 1000668:	10c0002d 	sthio	r3,0(r2)

	limit_x = limit_x << 1;
	addr += object.y[num] * (limit_x);

	for(i = object.y[num], k = 0; i < object.y[num] + b->y; i++, k++) {
		for (j = object.x[num], l = 0; j < object.length[num]+ object.x[num]; j++, l++)
 100066c:	e0bffd17 	ldw	r2,-12(fp)
 1000670:	10800044 	addi	r2,r2,1
 1000674:	e0bffd15 	stw	r2,-12(fp)
 1000678:	e0bffb17 	ldw	r2,-20(fp)
 100067c:	10800044 	addi	r2,r2,1
 1000680:	e0bffb15 	stw	r2,-20(fp)
 1000684:	e0801217 	ldw	r2,72(fp)
 1000688:	1085883a 	add	r2,r2,r2
 100068c:	1085883a 	add	r2,r2,r2
 1000690:	e1000104 	addi	r4,fp,4
 1000694:	1105883a 	add	r2,r2,r4
 1000698:	10800804 	addi	r2,r2,32
 100069c:	10c00017 	ldw	r3,0(r2)
 10006a0:	e0801217 	ldw	r2,72(fp)
 10006a4:	1085883a 	add	r2,r2,r2
 10006a8:	1085883a 	add	r2,r2,r2
 10006ac:	e1000104 	addi	r4,fp,4
 10006b0:	1105883a 	add	r2,r2,r4
 10006b4:	10800017 	ldw	r2,0(r2)
 10006b8:	1885883a 	add	r2,r3,r2
 10006bc:	1007883a 	mov	r3,r2
 10006c0:	e0bffd17 	ldw	r2,-12(fp)
 10006c4:	10ffc636 	bltu	r2,r3,10005e0 <draw_object+0xcc>
			//draw pixel
			temp = pic[k][l];
			if(pic[k][l] != 0x789) //if pure white, don't draw
				IOWR_16DIRECT(addr, j << 1, temp);
		}
		addr += limit_x;
 10006c8:	e0fffa17 	ldw	r3,-24(fp)
 10006cc:	e0bff917 	ldw	r2,-28(fp)
 10006d0:	1885883a 	add	r2,r3,r2
 10006d4:	e0bffa15 	stw	r2,-24(fp)


	limit_x = limit_x << 1;
	addr += object.y[num] * (limit_x);

	for(i = object.y[num], k = 0; i < object.y[num] + b->y; i++, k++) {
 10006d8:	e0bffe17 	ldw	r2,-8(fp)
 10006dc:	10800044 	addi	r2,r2,1
 10006e0:	e0bffe15 	stw	r2,-8(fp)
 10006e4:	e0bffc17 	ldw	r2,-16(fp)
 10006e8:	10800044 	addi	r2,r2,1
 10006ec:	e0bffc15 	stw	r2,-16(fp)
 10006f0:	e0801217 	ldw	r2,72(fp)
 10006f4:	1085883a 	add	r2,r2,r2
 10006f8:	1085883a 	add	r2,r2,r2
 10006fc:	e0c00104 	addi	r3,fp,4
 1000700:	10c5883a 	add	r2,r2,r3
 1000704:	10800404 	addi	r2,r2,16
 1000708:	10c00017 	ldw	r3,0(r2)
 100070c:	e0801117 	ldw	r2,68(fp)
 1000710:	10800117 	ldw	r2,4(r2)
 1000714:	1885883a 	add	r2,r3,r2
 1000718:	1007883a 	mov	r3,r2
 100071c:	e0bffe17 	ldw	r2,-8(fp)
 1000720:	10ffa636 	bltu	r2,r3,10005bc <draw_object+0xa8>
		//if(V_VERBOSE) printf("finished line %i\n", k);
	}
	//if(V_VERBOSE) printf("ended bmp draw\n");


}
 1000724:	e037883a 	mov	sp,fp
 1000728:	df000017 	ldw	fp,0(sp)
 100072c:	dec00404 	addi	sp,sp,16
 1000730:	f800283a 	ret

01000734 <clear_object>:

void clear_object(alt_up_pixel_buffer_dma_dev *pixel_buffer, draw box, bmp* b, int num)
{
 1000734:	defff804 	addi	sp,sp,-32
 1000738:	dfc00415 	stw	ra,16(sp)
 100073c:	df000315 	stw	fp,12(sp)
 1000740:	df000304 	addi	fp,sp,12
 1000744:	e13fff15 	stw	r4,-4(fp)
 1000748:	e1400215 	stw	r5,8(fp)
 100074c:	e1800315 	stw	r6,12(fp)
 1000750:	e1c00415 	stw	r7,16(fp)

	clear_loc(pixel_buffer, box.x[num], box.y[num], box.x[num] + box.length[num], box.y[num]+box.height[num],b);
 1000754:	e0801317 	ldw	r2,76(fp)
 1000758:	1085883a 	add	r2,r2,r2
 100075c:	1085883a 	add	r2,r2,r2
 1000760:	e0c00204 	addi	r3,fp,8
 1000764:	10c5883a 	add	r2,r2,r3
 1000768:	11400017 	ldw	r5,0(r2)
 100076c:	e0801317 	ldw	r2,76(fp)
 1000770:	1085883a 	add	r2,r2,r2
 1000774:	1085883a 	add	r2,r2,r2
 1000778:	e1000204 	addi	r4,fp,8
 100077c:	1105883a 	add	r2,r2,r4
 1000780:	10800404 	addi	r2,r2,16
 1000784:	11800017 	ldw	r6,0(r2)
 1000788:	e0801317 	ldw	r2,76(fp)
 100078c:	1085883a 	add	r2,r2,r2
 1000790:	1085883a 	add	r2,r2,r2
 1000794:	e0c00204 	addi	r3,fp,8
 1000798:	10c5883a 	add	r2,r2,r3
 100079c:	10c00017 	ldw	r3,0(r2)
 10007a0:	e0801317 	ldw	r2,76(fp)
 10007a4:	1085883a 	add	r2,r2,r2
 10007a8:	1085883a 	add	r2,r2,r2
 10007ac:	e1000204 	addi	r4,fp,8
 10007b0:	1105883a 	add	r2,r2,r4
 10007b4:	10800804 	addi	r2,r2,32
 10007b8:	10800017 	ldw	r2,0(r2)
 10007bc:	188f883a 	add	r7,r3,r2
 10007c0:	e0801317 	ldw	r2,76(fp)
 10007c4:	1085883a 	add	r2,r2,r2
 10007c8:	1085883a 	add	r2,r2,r2
 10007cc:	e0c00204 	addi	r3,fp,8
 10007d0:	10c5883a 	add	r2,r2,r3
 10007d4:	10800404 	addi	r2,r2,16
 10007d8:	10c00017 	ldw	r3,0(r2)
 10007dc:	e0801317 	ldw	r2,76(fp)
 10007e0:	1085883a 	add	r2,r2,r2
 10007e4:	1085883a 	add	r2,r2,r2
 10007e8:	e1000204 	addi	r4,fp,8
 10007ec:	1105883a 	add	r2,r2,r4
 10007f0:	10800c04 	addi	r2,r2,48
 10007f4:	10800017 	ldw	r2,0(r2)
 10007f8:	1885883a 	add	r2,r3,r2
 10007fc:	d8800015 	stw	r2,0(sp)
 1000800:	e0801217 	ldw	r2,72(fp)
 1000804:	d8800115 	stw	r2,4(sp)
 1000808:	e13fff17 	ldw	r4,-4(fp)
 100080c:	1002b000 	call	1002b00 <clear_loc>

}
 1000810:	e037883a 	mov	sp,fp
 1000814:	dfc00117 	ldw	ra,4(sp)
 1000818:	df000017 	ldw	fp,0(sp)
 100081c:	dec00504 	addi	sp,sp,20
 1000820:	f800283a 	ret

01000824 <uart_isr>:
unsigned char buffer[128]; //input buffer

unsigned char send[BUFFER_SIZE]; //output buffer
int Start, End;

void uart_isr() {
 1000824:	deffee04 	addi	sp,sp,-72
 1000828:	dfc01115 	stw	ra,68(sp)
 100082c:	df001015 	stw	fp,64(sp)
 1000830:	df001004 	addi	fp,sp,64


	unsigned char parity;
	int start, end, queue_size, amount_to_send,FIFO_avail;

	while(alt_up_rs232_get_used_space_in_read_FIFO(uart) > 0) {
 1000834:	00005b06 	br	10009a4 <uart_isr+0x180>
		if(!hasReadHeader) {
 1000838:	d0a72e03 	ldbu	r2,-25416(gp)
 100083c:	1080005c 	xori	r2,r2,1
 1000840:	10803fcc 	andi	r2,r2,255
 1000844:	1005003a 	cmpeq	r2,r2,zero
 1000848:	1000151e 	bne	r2,zero,10008a0 <uart_isr+0x7c>
			if(alt_up_rs232_get_used_space_in_read_FIFO(uart) >= 3) {
 100084c:	d1273117 	ldw	r4,-25404(gp)
 1000850:	10111040 	call	1011104 <alt_up_rs232_get_used_space_in_read_FIFO>
 1000854:	108000f0 	cmpltui	r2,r2,3
 1000858:	1000561e 	bne	r2,zero,10009b4 <uart_isr+0x190>
				// First byte is ID
				alt_up_rs232_read_data(uart, &id, &parity);
 100085c:	d1273117 	ldw	r4,-25404(gp)
 1000860:	e1bffb04 	addi	r6,fp,-20
 1000864:	d1673004 	addi	r5,gp,-25408
 1000868:	10112180 	call	1011218 <alt_up_rs232_read_data>
				//2nd byte is the amount of data (including the dataType)
				alt_up_rs232_read_data(uart, &size, &parity);
 100086c:	d1273117 	ldw	r4,-25404(gp)
 1000870:	e1bffb04 	addi	r6,fp,-20
 1000874:	d1673044 	addi	r5,gp,-25407
 1000878:	10112180 	call	1011218 <alt_up_rs232_read_data>
				//3rd byte is the dataType
				alt_up_rs232_read_data(uart, &dataType, &parity);
 100087c:	d1273117 	ldw	r4,-25404(gp)
 1000880:	e1bffb04 	addi	r6,fp,-20
 1000884:	d1672e44 	addi	r5,gp,-25415
 1000888:	10112180 	call	1011218 <alt_up_rs232_read_data>

				hasReadHeader = true;
 100088c:	00800044 	movi	r2,1
 1000890:	d0a72e05 	stb	r2,-25416(gp)
				size--; //remaining data
 1000894:	d0a73043 	ldbu	r2,-25407(gp)
 1000898:	10bfffc4 	addi	r2,r2,-1
 100089c:	d0a73045 	stb	r2,-25407(gp)
				//printf("0:id: %i size: %i datatype: %i \n", id,size,dataType);
			}else {
				goto Send;
			}
		}
		if(size > 0) {
 10008a0:	d0a73043 	ldbu	r2,-25407(gp)
 10008a4:	10803fcc 	andi	r2,r2,255
 10008a8:	1005003a 	cmpeq	r2,r2,zero
 10008ac:	1000191e 	bne	r2,zero,1000914 <uart_isr+0xf0>
			//printf("1: space_avail: %i, size: %i\n",alt_up_rs232_get_used_space_in_read_FIFO(uart),size);
			//wait for all the data to arrive

			if(alt_up_rs232_get_used_space_in_read_FIFO(uart) < size ) {
 10008b0:	d1273117 	ldw	r4,-25404(gp)
 10008b4:	10111040 	call	1011104 <alt_up_rs232_get_used_space_in_read_FIFO>
 10008b8:	1007883a 	mov	r3,r2
 10008bc:	d0a73043 	ldbu	r2,-25407(gp)
 10008c0:	10803fcc 	andi	r2,r2,255
 10008c4:	1880032e 	bgeu	r3,r2,10008d4 <uart_isr+0xb0>
				printf("1");
 10008c8:	01000c44 	movi	r4,49
 10008cc:	1004a540 	call	1004a54 <putchar>
				goto Send;
 10008d0:	00003806 	br	10009b4 <uart_isr+0x190>
			}
			//printf("2:id: %i size: %i datatype: %i \n", id,size,dataType);
			//receiving data into buffer
			unsigned i;
			for (i = 0; i < size; i++) {
 10008d4:	e03ff315 	stw	zero,-52(fp)
 10008d8:	00000a06 	br	1000904 <uart_isr+0xe0>
				alt_up_rs232_read_data(uart, buffer+i, &parity);
 10008dc:	d1273117 	ldw	r4,-25404(gp)
 10008e0:	e0fff317 	ldw	r3,-52(fp)
 10008e4:	008040b4 	movhi	r2,258
 10008e8:	10b25c04 	addi	r2,r2,-13968
 10008ec:	188b883a 	add	r5,r3,r2
 10008f0:	e1bffb04 	addi	r6,fp,-20
 10008f4:	10112180 	call	1011218 <alt_up_rs232_read_data>
				goto Send;
			}
			//printf("2:id: %i size: %i datatype: %i \n", id,size,dataType);
			//receiving data into buffer
			unsigned i;
			for (i = 0; i < size; i++) {
 10008f8:	e0bff317 	ldw	r2,-52(fp)
 10008fc:	10800044 	addi	r2,r2,1
 1000900:	e0bff315 	stw	r2,-52(fp)
 1000904:	d0a73043 	ldbu	r2,-25407(gp)
 1000908:	10c03fcc 	andi	r3,r2,255
 100090c:	e0bff317 	ldw	r2,-52(fp)
 1000910:	10fff236 	bltu	r2,r3,10008dc <uart_isr+0xb8>
			}
			//printf("\n");
		}

		//turn off hasReadHeader
		hasReadHeader = false;
 1000914:	d0272e05 	stb	zero,-25416(gp)

		//send ack
		if(!send_ack(id)){
 1000918:	d0a73003 	ldbu	r2,-25408(gp)
 100091c:	11003fcc 	andi	r4,r2,255
 1000920:	1000b240 	call	1000b24 <send_ack>
		}else{
			//printf("ack to ID: %i\n",id);
		}

		//TODO: Modify stuff here to do different things for different data type
		switch(dataType){
 1000924:	d0a72e43 	ldbu	r2,-25415(gp)
 1000928:	10803fcc 	andi	r2,r2,255
 100092c:	e0bffd15 	stw	r2,-12(fp)
 1000930:	e0fffd17 	ldw	r3,-12(fp)
 1000934:	18800060 	cmpeqi	r2,r3,1
 1000938:	1000041e 	bne	r2,zero,100094c <uart_isr+0x128>
 100093c:	e0fffd17 	ldw	r3,-12(fp)
 1000940:	188002a0 	cmpeqi	r2,r3,10
 1000944:	10000b1e 	bne	r2,zero,1000974 <uart_isr+0x150>
 1000948:	00001606 	br	10009a4 <uart_isr+0x180>
		case 0:
			//speed test mode, do nothing
			break;
		case 1:
			send_data(id, dataType, size, buffer);
 100094c:	d0a73003 	ldbu	r2,-25408(gp)
 1000950:	11003fcc 	andi	r4,r2,255
 1000954:	d0a72e43 	ldbu	r2,-25415(gp)
 1000958:	11403fcc 	andi	r5,r2,255
 100095c:	d0a73043 	ldbu	r2,-25407(gp)
 1000960:	11803fcc 	andi	r6,r2,255
 1000964:	01c040b4 	movhi	r7,258
 1000968:	39f25c04 	addi	r7,r7,-13968
 100096c:	1000d180 	call	1000d18 <send_data>
			break;
 1000970:	00000c06 	br	10009a4 <uart_isr+0x180>
		case 10:
			if( set_name_i != 4) {
 1000974:	008040b4 	movhi	r2,258
 1000978:	10b10d04 	addi	r2,r2,-15308
 100097c:	10800017 	ldw	r2,0(r2)
 1000980:	10800120 	cmpeqi	r2,r2,4
 1000984:	1000071e 	bne	r2,zero,10009a4 <uart_isr+0x180>
				setName(id, size, buffer);
 1000988:	d0a73003 	ldbu	r2,-25408(gp)
 100098c:	11003fcc 	andi	r4,r2,255
 1000990:	d0a73043 	ldbu	r2,-25407(gp)
 1000994:	11403fcc 	andi	r5,r2,255
 1000998:	018040b4 	movhi	r6,258
 100099c:	31b25c04 	addi	r6,r6,-13968
 10009a0:	10002040 	call	1000204 <setName>


	unsigned char parity;
	int start, end, queue_size, amount_to_send,FIFO_avail;

	while(alt_up_rs232_get_used_space_in_read_FIFO(uart) > 0) {
 10009a4:	d1273117 	ldw	r4,-25404(gp)
 10009a8:	10111040 	call	1011104 <alt_up_rs232_get_used_space_in_read_FIFO>
 10009ac:	1004c03a 	cmpne	r2,r2,zero
 10009b0:	103fa11e 	bne	r2,zero,1000838 <uart_isr+0x14>
	Send:

	//sending data

	//create a copy of the global variables
	start = Start;
 10009b4:	d0a73217 	ldw	r2,-25400(gp)
 10009b8:	e0bffa15 	stw	r2,-24(fp)
	end = End;
 10009bc:	d0a72f17 	ldw	r2,-25412(gp)
 10009c0:	e0bff915 	stw	r2,-28(fp)

	queue_size = start < end ? end - start : end + BUFFER_SIZE - start; //how much is there to send
 10009c4:	e0fffa17 	ldw	r3,-24(fp)
 10009c8:	e0bff917 	ldw	r2,-28(fp)
 10009cc:	1880050e 	bge	r3,r2,10009e4 <uart_isr+0x1c0>
 10009d0:	e0fff917 	ldw	r3,-28(fp)
 10009d4:	e0bffa17 	ldw	r2,-24(fp)
 10009d8:	1887c83a 	sub	r3,r3,r2
 10009dc:	e0fffc15 	stw	r3,-16(fp)
 10009e0:	00000506 	br	10009f8 <uart_isr+0x1d4>
 10009e4:	e0bff917 	ldw	r2,-28(fp)
 10009e8:	e0fffa17 	ldw	r3,-24(fp)
 10009ec:	10c5c83a 	sub	r2,r2,r3
 10009f0:	10810004 	addi	r2,r2,1024
 10009f4:	e0bffc15 	stw	r2,-16(fp)
 10009f8:	e0bffc17 	ldw	r2,-16(fp)
 10009fc:	e0bff815 	stw	r2,-32(fp)
	queue_size--; //start != end
 1000a00:	e0bff817 	ldw	r2,-32(fp)
 1000a04:	10bfffc4 	addi	r2,r2,-1
 1000a08:	e0bff815 	stw	r2,-32(fp)
	FIFO_avail = alt_up_rs232_get_available_space_in_write_FIFO(uart); //how much can we send?
 1000a0c:	d1273117 	ldw	r4,-25404(gp)
 1000a10:	10111400 	call	1011140 <alt_up_rs232_get_available_space_in_write_FIFO>
 1000a14:	e0bff615 	stw	r2,-40(fp)
	amount_to_send = FIFO_avail > queue_size ? queue_size : FIFO_avail; //send the lower amount
 1000a18:	e0fff817 	ldw	r3,-32(fp)
 1000a1c:	e0ffff15 	stw	r3,-4(fp)
 1000a20:	e0bff617 	ldw	r2,-40(fp)
 1000a24:	e0bffe15 	stw	r2,-8(fp)
 1000a28:	e0ffff17 	ldw	r3,-4(fp)
 1000a2c:	e0bffe17 	ldw	r2,-8(fp)
 1000a30:	1880020e 	bge	r3,r2,1000a3c <uart_isr+0x218>
 1000a34:	e0ffff17 	ldw	r3,-4(fp)
 1000a38:	e0fffe15 	stw	r3,-8(fp)
 1000a3c:	e0bffe17 	ldw	r2,-8(fp)
 1000a40:	e0bff715 	stw	r2,-36(fp)

	const unsigned int BASE_addr = uart->base;
 1000a44:	d0a73117 	ldw	r2,-25404(gp)
 1000a48:	10800a17 	ldw	r2,40(r2)
 1000a4c:	e0bff515 	stw	r2,-44(fp)
	const unsigned int RAVAIL = uart->base + 2;
 1000a50:	d0a73117 	ldw	r2,-25404(gp)
 1000a54:	10800a17 	ldw	r2,40(r2)
 1000a58:	10800084 	addi	r2,r2,2
 1000a5c:	e0bff415 	stw	r2,-48(fp)

	if(amount_to_send > 0){
 1000a60:	e0bff717 	ldw	r2,-36(fp)
 1000a64:	10800050 	cmplti	r2,r2,1
 1000a68:	1000221e 	bne	r2,zero,1000af4 <uart_isr+0x2d0>
		//printf("transmit:  %i bytes\n\n\n",amount_to_send);
		int i;
		for(i = 0; i < amount_to_send; i++) {
 1000a6c:	e03ff215 	stw	zero,-56(fp)
 1000a70:	00001d06 	br	1000ae8 <uart_isr+0x2c4>
			int temp_start = start;
 1000a74:	e0bffa17 	ldw	r2,-24(fp)
 1000a78:	e0bff115 	stw	r2,-60(fp)
			start++;
 1000a7c:	e0bffa17 	ldw	r2,-24(fp)
 1000a80:	10800044 	addi	r2,r2,1
 1000a84:	e0bffa15 	stw	r2,-24(fp)
			if(start == BUFFER_SIZE) start = 0;
 1000a88:	e0bffa17 	ldw	r2,-24(fp)
 1000a8c:	10810018 	cmpnei	r2,r2,1024
 1000a90:	1000011e 	bne	r2,zero,1000a98 <uart_isr+0x274>
 1000a94:	e03ffa15 	stw	zero,-24(fp)
			unsigned char temp_data = send[start];
 1000a98:	e0fffa17 	ldw	r3,-24(fp)
 1000a9c:	008040b4 	movhi	r2,258
 1000aa0:	10b15c04 	addi	r2,r2,-14992
 1000aa4:	10c5883a 	add	r2,r2,r3
 1000aa8:	10800003 	ldbu	r2,0(r2)
 1000aac:	e0bff005 	stb	r2,-64(fp)

			if(IORD_8DIRECT(RAVAIL,0)==0){
 1000ab0:	e0bff417 	ldw	r2,-48(fp)
 1000ab4:	10800023 	ldbuio	r2,0(r2)
 1000ab8:	1004c03a 	cmpne	r2,r2,zero
 1000abc:	1000071e 	bne	r2,zero,1000adc <uart_isr+0x2b8>
				IOWR_8DIRECT(BASE_addr,0,temp_data); //sends the actual data
 1000ac0:	e0bff517 	ldw	r2,-44(fp)
 1000ac4:	e0fff003 	ldbu	r3,-64(fp)
 1000ac8:	10c00025 	stbio	r3,0(r2)
	const unsigned int RAVAIL = uart->base + 2;

	if(amount_to_send > 0){
		//printf("transmit:  %i bytes\n\n\n",amount_to_send);
		int i;
		for(i = 0; i < amount_to_send; i++) {
 1000acc:	e0bff217 	ldw	r2,-56(fp)
 1000ad0:	10800044 	addi	r2,r2,1
 1000ad4:	e0bff215 	stw	r2,-56(fp)
 1000ad8:	00000306 	br	1000ae8 <uart_isr+0x2c4>
			unsigned char temp_data = send[start];

			if(IORD_8DIRECT(RAVAIL,0)==0){
				IOWR_8DIRECT(BASE_addr,0,temp_data); //sends the actual data
			}else{ //revert changes if send not successful
				start = temp_start;
 1000adc:	e0bff117 	ldw	r2,-60(fp)
 1000ae0:	e0bffa15 	stw	r2,-24(fp)
				break;
 1000ae4:	00000306 	br	1000af4 <uart_isr+0x2d0>
	const unsigned int RAVAIL = uart->base + 2;

	if(amount_to_send > 0){
		//printf("transmit:  %i bytes\n\n\n",amount_to_send);
		int i;
		for(i = 0; i < amount_to_send; i++) {
 1000ae8:	e0fff217 	ldw	r3,-56(fp)
 1000aec:	e0bff717 	ldw	r2,-36(fp)
 1000af0:	18bfe016 	blt	r3,r2,1000a74 <uart_isr+0x250>
			//printf("\n%c,%X,%i",send[start],send[start],send[start]);

		}
	}

	Start = start; //sets the global
 1000af4:	e0bffa17 	ldw	r2,-24(fp)
 1000af8:	d0a73215 	stw	r2,-25400(gp)
	IOWR_16DIRECT(TIMER_0_BASE,0,0); //needed to show that interrupt finished executing
 1000afc:	00910804 	movi	r2,17440
 1000b00:	1000002d 	sthio	zero,0(r2)
	IOWR_16DIRECT(TIMER_0_BASE,4,0x5); //restarts timer
 1000b04:	00d10904 	movi	r3,17444
 1000b08:	00800144 	movi	r2,5
 1000b0c:	1880002d 	sthio	r2,0(r3)
	return;
}
 1000b10:	e037883a 	mov	sp,fp
 1000b14:	dfc00117 	ldw	ra,4(sp)
 1000b18:	df000017 	ldw	fp,0(sp)
 1000b1c:	dec00204 	addi	sp,sp,8
 1000b20:	f800283a 	ret

01000b24 <send_ack>:

//sends ack to the android phone
bool send_ack(unsigned char id) {
 1000b24:	defff804 	addi	sp,sp,-32
 1000b28:	dfc00715 	stw	ra,28(sp)
 1000b2c:	df000615 	stw	fp,24(sp)
 1000b30:	df000604 	addi	fp,sp,24
 1000b34:	e13ffd05 	stb	r4,-12(fp)
	//calculate available space
	int end = End;
 1000b38:	d0a72f17 	ldw	r2,-25412(gp)
 1000b3c:	e0bffc15 	stw	r2,-16(fp)
	int start = Start;
 1000b40:	d0a73217 	ldw	r2,-25400(gp)
 1000b44:	e0bffb15 	stw	r2,-20(fp)
	int avail_to_fill = start > end ? start - end : start + BUFFER_SIZE - end;
 1000b48:	e0fffb17 	ldw	r3,-20(fp)
 1000b4c:	e0bffc17 	ldw	r2,-16(fp)
 1000b50:	10c0050e 	bge	r2,r3,1000b68 <send_ack+0x44>
 1000b54:	e0fffb17 	ldw	r3,-20(fp)
 1000b58:	e0bffc17 	ldw	r2,-16(fp)
 1000b5c:	1887c83a 	sub	r3,r3,r2
 1000b60:	e0ffff15 	stw	r3,-4(fp)
 1000b64:	00000506 	br	1000b7c <send_ack+0x58>
 1000b68:	e0bffb17 	ldw	r2,-20(fp)
 1000b6c:	e0fffc17 	ldw	r3,-16(fp)
 1000b70:	10c5c83a 	sub	r2,r2,r3
 1000b74:	10810004 	addi	r2,r2,1024
 1000b78:	e0bfff15 	stw	r2,-4(fp)
 1000b7c:	e0bfff17 	ldw	r2,-4(fp)
 1000b80:	e0bffa15 	stw	r2,-24(fp)
	avail_to_fill--; //start != end
 1000b84:	e0bffa17 	ldw	r2,-24(fp)
 1000b88:	10bfffc4 	addi	r2,r2,-1
 1000b8c:	e0bffa15 	stw	r2,-24(fp)

	if(avail_to_fill < 3){
 1000b90:	e0bffa17 	ldw	r2,-24(fp)
 1000b94:	108000c8 	cmpgei	r2,r2,3
 1000b98:	1000051e 	bne	r2,zero,1000bb0 <send_ack+0x8c>
		printf("error: send(): not enough space in buffer");
 1000b9c:	010040b4 	movhi	r4,258
 1000ba0:	2120c204 	addi	r4,r4,-31992
 1000ba4:	10049dc0 	call	10049dc <printf>
		return false;
 1000ba8:	e03ffe15 	stw	zero,-8(fp)
 1000bac:	00002a06 	br	1000c58 <send_ack+0x134>
	}else{
		send[end++] = id;
 1000bb0:	e0fffc17 	ldw	r3,-16(fp)
 1000bb4:	008040b4 	movhi	r2,258
 1000bb8:	10b15c04 	addi	r2,r2,-14992
 1000bbc:	10c7883a 	add	r3,r2,r3
 1000bc0:	e0bffd03 	ldbu	r2,-12(fp)
 1000bc4:	18800005 	stb	r2,0(r3)
 1000bc8:	e0bffc17 	ldw	r2,-16(fp)
 1000bcc:	10800044 	addi	r2,r2,1
 1000bd0:	e0bffc15 	stw	r2,-16(fp)
		if( end == BUFFER_SIZE ) end = 0; //reached end of buffer
 1000bd4:	e0bffc17 	ldw	r2,-16(fp)
 1000bd8:	10810018 	cmpnei	r2,r2,1024
 1000bdc:	1000011e 	bne	r2,zero,1000be4 <send_ack+0xc0>
 1000be0:	e03ffc15 	stw	zero,-16(fp)
		send[end++] = 1;
 1000be4:	e0fffc17 	ldw	r3,-16(fp)
 1000be8:	008040b4 	movhi	r2,258
 1000bec:	10b15c04 	addi	r2,r2,-14992
 1000bf0:	10c7883a 	add	r3,r2,r3
 1000bf4:	00800044 	movi	r2,1
 1000bf8:	18800005 	stb	r2,0(r3)
 1000bfc:	e0bffc17 	ldw	r2,-16(fp)
 1000c00:	10800044 	addi	r2,r2,1
 1000c04:	e0bffc15 	stw	r2,-16(fp)
		if( end == BUFFER_SIZE ) end = 0; //reached end of buffer
 1000c08:	e0bffc17 	ldw	r2,-16(fp)
 1000c0c:	10810018 	cmpnei	r2,r2,1024
 1000c10:	1000011e 	bne	r2,zero,1000c18 <send_ack+0xf4>
 1000c14:	e03ffc15 	stw	zero,-16(fp)
		send[end++] = 0;
 1000c18:	e0fffc17 	ldw	r3,-16(fp)
 1000c1c:	008040b4 	movhi	r2,258
 1000c20:	10b15c04 	addi	r2,r2,-14992
 1000c24:	10c5883a 	add	r2,r2,r3
 1000c28:	10000005 	stb	zero,0(r2)
 1000c2c:	e0bffc17 	ldw	r2,-16(fp)
 1000c30:	10800044 	addi	r2,r2,1
 1000c34:	e0bffc15 	stw	r2,-16(fp)
		if( end == BUFFER_SIZE ) end = 0; //reached end of buffer
 1000c38:	e0bffc17 	ldw	r2,-16(fp)
 1000c3c:	10810018 	cmpnei	r2,r2,1024
 1000c40:	1000011e 	bne	r2,zero,1000c48 <send_ack+0x124>
 1000c44:	e03ffc15 	stw	zero,-16(fp)
	}
	End = end;
 1000c48:	e0bffc17 	ldw	r2,-16(fp)
 1000c4c:	d0a72f15 	stw	r2,-25412(gp)
	return true;
 1000c50:	00800044 	movi	r2,1
 1000c54:	e0bffe15 	stw	r2,-8(fp)
 1000c58:	e0bffe17 	ldw	r2,-8(fp)
}
 1000c5c:	e037883a 	mov	sp,fp
 1000c60:	dfc00117 	ldw	ra,4(sp)
 1000c64:	df000017 	ldw	fp,0(sp)
 1000c68:	dec00204 	addi	sp,sp,8
 1000c6c:	f800283a 	ret

01000c70 <uart_init>:

//initialize uart functions
void uart_init() {
 1000c70:	defffd04 	addi	sp,sp,-12
 1000c74:	dfc00215 	stw	ra,8(sp)
 1000c78:	df000115 	stw	fp,4(sp)
 1000c7c:	df000104 	addi	fp,sp,4

	//crap data holder
	unsigned char parity, data;

    //UART Initialization
    uart = alt_up_rs232_open_dev(RS232_0_NAME);
 1000c80:	010040b4 	movhi	r4,258
 1000c84:	2120cd04 	addi	r4,r4,-31948
 1000c88:	10113b00 	call	10113b0 <alt_up_rs232_open_dev>
 1000c8c:	d0a73115 	stw	r2,-25404(gp)

    //Clearing read buffer to start
	while (alt_up_rs232_get_used_space_in_read_FIFO(uart)) {
 1000c90:	00000406 	br	1000ca4 <uart_init+0x34>
		alt_up_rs232_read_data(uart, &data, &parity);
 1000c94:	d1273117 	ldw	r4,-25404(gp)
 1000c98:	e17fff44 	addi	r5,fp,-3
 1000c9c:	e1bfff04 	addi	r6,fp,-4
 1000ca0:	10112180 	call	1011218 <alt_up_rs232_read_data>

    //UART Initialization
    uart = alt_up_rs232_open_dev(RS232_0_NAME);

    //Clearing read buffer to start
	while (alt_up_rs232_get_used_space_in_read_FIFO(uart)) {
 1000ca4:	d1273117 	ldw	r4,-25404(gp)
 1000ca8:	10111040 	call	1011104 <alt_up_rs232_get_used_space_in_read_FIFO>
 1000cac:	1004c03a 	cmpne	r2,r2,zero
 1000cb0:	103ff81e 	bne	r2,zero,1000c94 <uart_init+0x24>
		alt_up_rs232_read_data(uart, &data, &parity);
	}

	//clear the sending buffer
	Start = 0;
 1000cb4:	d0273215 	stw	zero,-25400(gp)
	End = 1;
 1000cb8:	00800044 	movi	r2,1
 1000cbc:	d0a72f15 	stw	r2,-25412(gp)

	//start the receiving interrupt
	IOWR_16DIRECT(TIMER_0_BASE, 8, TIMER_PERIOD & 0xFFFF); //writes the period to the hardware timer
 1000cc0:	00d10a04 	movi	r3,17448
 1000cc4:	00835004 	movi	r2,3392
 1000cc8:	1880002d 	sthio	r2,0(r3)
	IOWR_16DIRECT(TIMER_0_BASE, 12, TIMER_PERIOD >> 16);
 1000ccc:	00d10b04 	movi	r3,17452
 1000cd0:	008000c4 	movi	r2,3
 1000cd4:	1880002d 	sthio	r2,0(r3)
	IOWR_16DIRECT(TIMER_0_BASE, 4, 1 << 3); //stop timer
 1000cd8:	00d10904 	movi	r3,17444
 1000cdc:	00800204 	movi	r2,8
 1000ce0:	1880002d 	sthio	r2,0(r3)

	alt_irq_register(TIMER_0_IRQ,NULL,(void*)uart_isr);//registers function to a specific IRQ
 1000ce4:	01000084 	movi	r4,2
 1000ce8:	000b883a 	mov	r5,zero
 1000cec:	01804034 	movhi	r6,256
 1000cf0:	31820904 	addi	r6,r6,2084
 1000cf4:	100e3340 	call	100e334 <alt_irq_register>

	IOWR_16DIRECT(TIMER_0_BASE, 4, 0x5);	//starts timer with interrupt
 1000cf8:	00d10904 	movi	r3,17444
 1000cfc:	00800144 	movi	r2,5
 1000d00:	1880002d 	sthio	r2,0(r3)
}
 1000d04:	e037883a 	mov	sp,fp
 1000d08:	dfc00117 	ldw	ra,4(sp)
 1000d0c:	df000017 	ldw	fp,0(sp)
 1000d10:	dec00204 	addi	sp,sp,8
 1000d14:	f800283a 	ret

01000d18 <send_data>:
//dataType
//size: size of the data array, excluding the dataType byte (cannot exceed 124)
//*data: pointer to the character array
//output:
//true if send, false if not send
bool send_data(unsigned char id, unsigned char dataType, unsigned char size, unsigned char *data) {
 1000d18:	defff404 	addi	sp,sp,-48
 1000d1c:	dfc00b15 	stw	ra,44(sp)
 1000d20:	df000a15 	stw	fp,40(sp)
 1000d24:	df000a04 	addi	fp,sp,40
 1000d28:	e1fffd15 	stw	r7,-12(fp)
 1000d2c:	e13ffa05 	stb	r4,-24(fp)
 1000d30:	e17ffb05 	stb	r5,-20(fp)
 1000d34:	e1bffc05 	stb	r6,-16(fp)
	//[2] data_size + 1
	//[3] data_type
	//so max_size is 124 bytes

	//calculate available space
	int end = End;
 1000d38:	d0a72f17 	ldw	r2,-25412(gp)
 1000d3c:	e0bff915 	stw	r2,-28(fp)
	int start = Start;
 1000d40:	d0a73217 	ldw	r2,-25400(gp)
 1000d44:	e0bff815 	stw	r2,-32(fp)
	int avail_to_fill = start > end ? start - end : start + BUFFER_SIZE - end;
 1000d48:	e0fff817 	ldw	r3,-32(fp)
 1000d4c:	e0bff917 	ldw	r2,-28(fp)
 1000d50:	10c0050e 	bge	r2,r3,1000d68 <send_data+0x50>
 1000d54:	e0fff817 	ldw	r3,-32(fp)
 1000d58:	e0bff917 	ldw	r2,-28(fp)
 1000d5c:	1887c83a 	sub	r3,r3,r2
 1000d60:	e0ffff15 	stw	r3,-4(fp)
 1000d64:	00000506 	br	1000d7c <send_data+0x64>
 1000d68:	e0bff817 	ldw	r2,-32(fp)
 1000d6c:	e0fff917 	ldw	r3,-28(fp)
 1000d70:	10c5c83a 	sub	r2,r2,r3
 1000d74:	10810004 	addi	r2,r2,1024
 1000d78:	e0bfff15 	stw	r2,-4(fp)
 1000d7c:	e0bfff17 	ldw	r2,-4(fp)
 1000d80:	e0bff715 	stw	r2,-36(fp)
	avail_to_fill--; //start != end
 1000d84:	e0bff717 	ldw	r2,-36(fp)
 1000d88:	10bfffc4 	addi	r2,r2,-1
 1000d8c:	e0bff715 	stw	r2,-36(fp)

	if(size>124){
 1000d90:	e0bffc03 	ldbu	r2,-16(fp)
 1000d94:	10801f70 	cmpltui	r2,r2,125
 1000d98:	1000051e 	bne	r2,zero,1000db0 <send_data+0x98>
		printf("error: send(): sending too much data! size must be <= 124\n");
 1000d9c:	010040b4 	movhi	r4,258
 1000da0:	2120d104 	addi	r4,r4,-31932
 1000da4:	1004b180 	call	1004b18 <puts>
		return false;
 1000da8:	e03ffe15 	stw	zero,-8(fp)
 1000dac:	00005f06 	br	1000f2c <send_data+0x214>
	}else if((avail_to_fill - 60) < (size + 4)){ //leaving atleast 60 bytes exclusively for ack messages
 1000db0:	e0bff717 	ldw	r2,-36(fp)
 1000db4:	10fff104 	addi	r3,r2,-60
 1000db8:	e0bffc03 	ldbu	r2,-16(fp)
 1000dbc:	10800104 	addi	r2,r2,4
 1000dc0:	1880050e 	bge	r3,r2,1000dd8 <send_data+0xc0>
		printf("error: send(): not enough space in buffer");
 1000dc4:	010040b4 	movhi	r4,258
 1000dc8:	2120c204 	addi	r4,r4,-31992
 1000dcc:	10049dc0 	call	10049dc <printf>
		return false;
 1000dd0:	e03ffe15 	stw	zero,-8(fp)
 1000dd4:	00005506 	br	1000f2c <send_data+0x214>
	}else{
		send[end++] = id;
 1000dd8:	e0fff917 	ldw	r3,-28(fp)
 1000ddc:	008040b4 	movhi	r2,258
 1000de0:	10b15c04 	addi	r2,r2,-14992
 1000de4:	10c7883a 	add	r3,r2,r3
 1000de8:	e0bffa03 	ldbu	r2,-24(fp)
 1000dec:	18800005 	stb	r2,0(r3)
 1000df0:	e0bff917 	ldw	r2,-28(fp)
 1000df4:	10800044 	addi	r2,r2,1
 1000df8:	e0bff915 	stw	r2,-28(fp)
		if( end == BUFFER_SIZE ) end = 0; //reached end of buffer
 1000dfc:	e0bff917 	ldw	r2,-28(fp)
 1000e00:	10810018 	cmpnei	r2,r2,1024
 1000e04:	1000011e 	bne	r2,zero,1000e0c <send_data+0xf4>
 1000e08:	e03ff915 	stw	zero,-28(fp)
		send[end++] = size + 2;
 1000e0c:	e13ff917 	ldw	r4,-28(fp)
 1000e10:	e0bffc03 	ldbu	r2,-16(fp)
 1000e14:	10800084 	addi	r2,r2,2
 1000e18:	1007883a 	mov	r3,r2
 1000e1c:	008040b4 	movhi	r2,258
 1000e20:	10b15c04 	addi	r2,r2,-14992
 1000e24:	1105883a 	add	r2,r2,r4
 1000e28:	10c00005 	stb	r3,0(r2)
 1000e2c:	e0bff917 	ldw	r2,-28(fp)
 1000e30:	10800044 	addi	r2,r2,1
 1000e34:	e0bff915 	stw	r2,-28(fp)
		if( end == BUFFER_SIZE ) end = 0; //reached end of buffer
 1000e38:	e0bff917 	ldw	r2,-28(fp)
 1000e3c:	10810018 	cmpnei	r2,r2,1024
 1000e40:	1000011e 	bne	r2,zero,1000e48 <send_data+0x130>
 1000e44:	e03ff915 	stw	zero,-28(fp)
		send[end++] = size + 1;
 1000e48:	e13ff917 	ldw	r4,-28(fp)
 1000e4c:	e0bffc03 	ldbu	r2,-16(fp)
 1000e50:	10800044 	addi	r2,r2,1
 1000e54:	1007883a 	mov	r3,r2
 1000e58:	008040b4 	movhi	r2,258
 1000e5c:	10b15c04 	addi	r2,r2,-14992
 1000e60:	1105883a 	add	r2,r2,r4
 1000e64:	10c00005 	stb	r3,0(r2)
 1000e68:	e0bff917 	ldw	r2,-28(fp)
 1000e6c:	10800044 	addi	r2,r2,1
 1000e70:	e0bff915 	stw	r2,-28(fp)
		if( end == BUFFER_SIZE ) end = 0; //reached end of buffer
 1000e74:	e0bff917 	ldw	r2,-28(fp)
 1000e78:	10810018 	cmpnei	r2,r2,1024
 1000e7c:	1000011e 	bne	r2,zero,1000e84 <send_data+0x16c>
 1000e80:	e03ff915 	stw	zero,-28(fp)
		send[end++] = dataType;
 1000e84:	e0fff917 	ldw	r3,-28(fp)
 1000e88:	008040b4 	movhi	r2,258
 1000e8c:	10b15c04 	addi	r2,r2,-14992
 1000e90:	10c7883a 	add	r3,r2,r3
 1000e94:	e0bffb03 	ldbu	r2,-20(fp)
 1000e98:	18800005 	stb	r2,0(r3)
 1000e9c:	e0bff917 	ldw	r2,-28(fp)
 1000ea0:	10800044 	addi	r2,r2,1
 1000ea4:	e0bff915 	stw	r2,-28(fp)
		if( end == BUFFER_SIZE ) end = 0; //reached end of buffer
 1000ea8:	e0bff917 	ldw	r2,-28(fp)
 1000eac:	10810018 	cmpnei	r2,r2,1024
 1000eb0:	1000011e 	bne	r2,zero,1000eb8 <send_data+0x1a0>
 1000eb4:	e03ff915 	stw	zero,-28(fp)

		int i;
		for(i = 0; i < size; i++) {
 1000eb8:	e03ff615 	stw	zero,-40(fp)
 1000ebc:	00001406 	br	1000f10 <send_data+0x1f8>
			send[end] = data[i];
 1000ec0:	e13ff917 	ldw	r4,-28(fp)
 1000ec4:	e0bff617 	ldw	r2,-40(fp)
 1000ec8:	1007883a 	mov	r3,r2
 1000ecc:	e0bffd17 	ldw	r2,-12(fp)
 1000ed0:	1885883a 	add	r2,r3,r2
 1000ed4:	10c00003 	ldbu	r3,0(r2)
 1000ed8:	008040b4 	movhi	r2,258
 1000edc:	10b15c04 	addi	r2,r2,-14992
 1000ee0:	1105883a 	add	r2,r2,r4
 1000ee4:	10c00005 	stb	r3,0(r2)

			end++;
 1000ee8:	e0bff917 	ldw	r2,-28(fp)
 1000eec:	10800044 	addi	r2,r2,1
 1000ef0:	e0bff915 	stw	r2,-28(fp)
			if( end == BUFFER_SIZE ) end = 0; //reached end of buffer
 1000ef4:	e0bff917 	ldw	r2,-28(fp)
 1000ef8:	10810018 	cmpnei	r2,r2,1024
 1000efc:	1000011e 	bne	r2,zero,1000f04 <send_data+0x1ec>
 1000f00:	e03ff915 	stw	zero,-28(fp)
		if( end == BUFFER_SIZE ) end = 0; //reached end of buffer
		send[end++] = dataType;
		if( end == BUFFER_SIZE ) end = 0; //reached end of buffer

		int i;
		for(i = 0; i < size; i++) {
 1000f04:	e0bff617 	ldw	r2,-40(fp)
 1000f08:	10800044 	addi	r2,r2,1
 1000f0c:	e0bff615 	stw	r2,-40(fp)
 1000f10:	e0fffc03 	ldbu	r3,-16(fp)
 1000f14:	e0bff617 	ldw	r2,-40(fp)
 1000f18:	10ffe916 	blt	r2,r3,1000ec0 <send_data+0x1a8>

			end++;
			if( end == BUFFER_SIZE ) end = 0; //reached end of buffer
		}

		End = end;
 1000f1c:	e0bff917 	ldw	r2,-28(fp)
 1000f20:	d0a72f15 	stw	r2,-25412(gp)
	}
	return true;
 1000f24:	00800044 	movi	r2,1
 1000f28:	e0bffe15 	stw	r2,-8(fp)
 1000f2c:	e0bffe17 	ldw	r2,-8(fp)
}
 1000f30:	e037883a 	mov	sp,fp
 1000f34:	dfc00117 	ldw	ra,4(sp)
 1000f38:	df000017 	ldw	fp,0(sp)
 1000f3c:	dec00204 	addi	sp,sp,8
 1000f40:	f800283a 	ret

01000f44 <get_buffer_space>:

unsigned int get_buffer_space() {
 1000f44:	defffc04 	addi	sp,sp,-16
 1000f48:	df000315 	stw	fp,12(sp)
 1000f4c:	df000304 	addi	fp,sp,12
	int start = Start;
 1000f50:	d0a73217 	ldw	r2,-25400(gp)
 1000f54:	e0bffe15 	stw	r2,-8(fp)
	int end = End;
 1000f58:	d0a72f17 	ldw	r2,-25412(gp)
 1000f5c:	e0bffd15 	stw	r2,-12(fp)
	return start > end ? start - end - 1 : start + BUFFER_SIZE - end - 1;
 1000f60:	e0fffe17 	ldw	r3,-8(fp)
 1000f64:	e0bffd17 	ldw	r2,-12(fp)
 1000f68:	10c0060e 	bge	r2,r3,1000f84 <get_buffer_space+0x40>
 1000f6c:	e0fffe17 	ldw	r3,-8(fp)
 1000f70:	e0bffd17 	ldw	r2,-12(fp)
 1000f74:	1885c83a 	sub	r2,r3,r2
 1000f78:	10bfffc4 	addi	r2,r2,-1
 1000f7c:	e0bfff15 	stw	r2,-4(fp)
 1000f80:	00000506 	br	1000f98 <get_buffer_space+0x54>
 1000f84:	e0fffe17 	ldw	r3,-8(fp)
 1000f88:	e0bffd17 	ldw	r2,-12(fp)
 1000f8c:	1885c83a 	sub	r2,r3,r2
 1000f90:	1080ffc4 	addi	r2,r2,1023
 1000f94:	e0bfff15 	stw	r2,-4(fp)
 1000f98:	e0bfff17 	ldw	r2,-4(fp)
}
 1000f9c:	e037883a 	mov	sp,fp
 1000fa0:	df000017 	ldw	fp,0(sp)
 1000fa4:	dec00104 	addi	sp,sp,4
 1000fa8:	f800283a 	ret

01000fac <main>:

int main()
{
 1000fac:	defffe04 	addi	sp,sp,-8
 1000fb0:	dfc00115 	stw	ra,4(sp)
 1000fb4:	df000015 	stw	fp,0(sp)
 1000fb8:	d839883a 	mov	fp,sp
	uart_init();
 1000fbc:	1000c700 	call	1000c70 <uart_init>
	printf("uart init\n");
 1000fc0:	010040b4 	movhi	r4,258
 1000fc4:	2120e004 	addi	r4,r4,-31872
 1000fc8:	1004b180 	call	1004b18 <puts>
	tight_rope_game();
 1000fcc:	1002c380 	call	1002c38 <tight_rope_game>
//
//	sendNameAll();
//
//	return 0;

	return 0;
 1000fd0:	0005883a 	mov	r2,zero
}
 1000fd4:	e037883a 	mov	sp,fp
 1000fd8:	dfc00117 	ldw	ra,4(sp)
 1000fdc:	df000017 	ldw	fp,0(sp)
 1000fe0:	dec00204 	addi	sp,sp,8
 1000fe4:	f800283a 	ret

01000fe8 <reset_audio_buffer>:
int p_shift = 0;




void reset_audio_buffer(audio_buffer* ab) {
 1000fe8:	defffe04 	addi	sp,sp,-8
 1000fec:	df000115 	stw	fp,4(sp)
 1000ff0:	df000104 	addi	fp,sp,4
 1000ff4:	e13fff15 	stw	r4,-4(fp)
	ab->start = 0;
 1000ff8:	e0bfff17 	ldw	r2,-4(fp)
 1000ffc:	1002f815 	stw	zero,3040(r2)
	ab->end = 1;
 1001000:	e0ffff17 	ldw	r3,-4(fp)
 1001004:	00800044 	movi	r2,1
 1001008:	1882f915 	stw	r2,3044(r3)
	ab->finished = false;
 100100c:	e0bfff17 	ldw	r2,-4(fp)
 1001010:	10030215 	stw	zero,3080(r2)

	ab->sfx_flag = false;
 1001014:	e0bfff17 	ldw	r2,-4(fp)
 1001018:	1002fa15 	stw	zero,3048(r2)
	ab->sfx_count = 0;
 100101c:	e0bfff17 	ldw	r2,-4(fp)
 1001020:	1002fd15 	stw	zero,3060(r2)

	ab->sfx_flag1 = false;
 1001024:	e0bfff17 	ldw	r2,-4(fp)
 1001028:	1002fe15 	stw	zero,3064(r2)
	ab->sfx_count1 = 0;
 100102c:	e0bfff17 	ldw	r2,-4(fp)
 1001030:	10030115 	stw	zero,3076(r2)
}
 1001034:	e037883a 	mov	sp,fp
 1001038:	df000017 	ldw	fp,0(sp)
 100103c:	dec00104 	addi	sp,sp,4
 1001040:	f800283a 	ret

01001044 <av_config_setup>:

void av_config_setup() {
 1001044:	defffd04 	addi	sp,sp,-12
 1001048:	dfc00215 	stw	ra,8(sp)
 100104c:	df000115 	stw	fp,4(sp)
 1001050:	df000104 	addi	fp,sp,4
	alt_up_av_config_dev *av_config = alt_up_av_config_open_dev("/dev/av_config");
 1001054:	010040b4 	movhi	r4,258
 1001058:	2120e304 	addi	r4,r4,-31860
 100105c:	100fca00 	call	100fca0 <alt_up_av_config_open_dev>
 1001060:	e0bfff15 	stw	r2,-4(fp)
		// "/dev/audio_and_video_config"
	//assert(av_config);
	while (!alt_up_av_config_read_ready(av_config));
 1001064:	e13fff17 	ldw	r4,-4(fp)
 1001068:	100fefc0 	call	100fefc <alt_up_av_config_read_ready>
 100106c:	1005003a 	cmpeq	r2,r2,zero
 1001070:	103ffc1e 	bne	r2,zero,1001064 <av_config_setup+0x20>
}
 1001074:	e037883a 	mov	sp,fp
 1001078:	dfc00117 	ldw	ra,4(sp)
 100107c:	df000017 	ldw	fp,0(sp)
 1001080:	dec00204 	addi	sp,sp,8
 1001084:	f800283a 	ret

01001088 <audio_isr>:

void audio_isr(void* context, unsigned int id) {
 1001088:	defffa04 	addi	sp,sp,-24
 100108c:	dfc00515 	stw	ra,20(sp)
 1001090:	df000415 	stw	fp,16(sp)
 1001094:	df000404 	addi	fp,sp,16
 1001098:	e13ffe15 	stw	r4,-8(fp)
 100109c:	e17fff15 	stw	r5,-4(fp)

	audio_buffer *ab = (audio_buffer*)context;
 10010a0:	e0bffe17 	ldw	r2,-8(fp)
 10010a4:	e0bffd15 	stw	r2,-12(fp)
	int start = ab->start;
 10010a8:	e0bffd17 	ldw	r2,-12(fp)
 10010ac:	1082f817 	ldw	r2,3040(r2)
 10010b0:	e0bffc15 	stw	r2,-16(fp)
	}else{
		if( (start + 95)%BUFFER_SIZE >= end )
			alt_up_audio_disable_write_interrupt(ab->audio_dev);
	}*/

	audio_write_fifo(ab->audio_dev,(short int*) ab->cir_buffer+start, 95);
 10010b4:	e0bffd17 	ldw	r2,-12(fp)
 10010b8:	11030317 	ldw	r4,3084(r2)
 10010bc:	e0fffd17 	ldw	r3,-12(fp)
 10010c0:	e0bffc17 	ldw	r2,-16(fp)
 10010c4:	1085883a 	add	r2,r2,r2
 10010c8:	188b883a 	add	r5,r3,r2
 10010cc:	018017c4 	movi	r6,95
 10010d0:	100162c0 	call	100162c <audio_write_fifo>

	start += 95;
 10010d4:	e0bffc17 	ldw	r2,-16(fp)
 10010d8:	108017c4 	addi	r2,r2,95
 10010dc:	e0bffc15 	stw	r2,-16(fp)
	if( start == BUFFER_SIZE ) start = 0;
 10010e0:	e0bffc17 	ldw	r2,-16(fp)
 10010e4:	10817c18 	cmpnei	r2,r2,1520
 10010e8:	1000011e 	bne	r2,zero,10010f0 <audio_isr+0x68>
 10010ec:	e03ffc15 	stw	zero,-16(fp)

	ab->start = start;
 10010f0:	e0fffd17 	ldw	r3,-12(fp)
 10010f4:	e0bffc17 	ldw	r2,-16(fp)
 10010f8:	1882f815 	stw	r2,3040(r3)

	return;
}
 10010fc:	e037883a 	mov	sp,fp
 1001100:	dfc00117 	ldw	ra,4(sp)
 1001104:	df000017 	ldw	fp,0(sp)
 1001108:	dec00204 	addi	sp,sp,8
 100110c:	f800283a 	ret

01001110 <sd_init>:

//init sd
//call before any SD_card operation
//Input: nothing
//Output: Make SD I/O available to the user
void sd_init() {
 1001110:	defffd04 	addi	sp,sp,-12
 1001114:	dfc00215 	stw	ra,8(sp)
 1001118:	df000115 	stw	fp,4(sp)
 100111c:	df000104 	addi	fp,sp,4

	alt_up_sd_card_dev *sd_init = NULL; //initialize the sd_card driver
 1001120:	e03fff15 	stw	zero,-4(fp)
	sd_init = alt_up_sd_card_open_dev("/dev/sd_card");
 1001124:	010040b4 	movhi	r4,258
 1001128:	2120e704 	addi	r4,r4,-31844
 100112c:	10159c00 	call	10159c0 <alt_up_sd_card_open_dev>
 1001130:	e0bfff15 	stw	r2,-4(fp)

	alt_up_sd_card_is_Present();
 1001134:	1015a840 	call	1015a84 <alt_up_sd_card_is_Present>
	alt_up_sd_card_is_FAT16();
 1001138:	1015b4c0 	call	1015b4c <alt_up_sd_card_is_FAT16>
//	alt_up_sd_card_is_Present();
//	alt_up_sd_card_is_FAT16();
//
//	alt_up_sd_card_is_Present();
//	alt_up_sd_card_is_FAT16();
}
 100113c:	e037883a 	mov	sp,fp
 1001140:	dfc00117 	ldw	ra,4(sp)
 1001144:	df000017 	ldw	fp,0(sp)
 1001148:	dec00204 	addi	sp,sp,8
 100114c:	f800283a 	ret

01001150 <init_read_wav>:

//tested working
sdf init_read_wav(char *name) {
 1001150:	defffa04 	addi	sp,sp,-24
 1001154:	dfc00515 	stw	ra,20(sp)
 1001158:	df000415 	stw	fp,16(sp)
 100115c:	df000404 	addi	fp,sp,16
 1001160:	e13fff15 	stw	r4,-4(fp)

	sdf music_handle = sd_fopen(name);
 1001164:	e13fff17 	ldw	r4,-4(fp)
 1001168:	10015800 	call	1001580 <sd_fopen>
 100116c:	e0bffe0d 	sth	r2,-8(fp)

	//discard the first 44 bytes of data (not PCM)
	int i;
	short int a;
	if(VERBOSE)printf("fh: %i OffsetData: ", music_handle);
	for(i = 0; i < 44; i++){
 1001170:	e03ffd15 	stw	zero,-12(fp)
 1001174:	00000606 	br	1001190 <init_read_wav+0x40>
		a = sd_readbyte(music_handle);
 1001178:	e13ffe0f 	ldh	r4,-8(fp)
 100117c:	10015f00 	call	10015f0 <sd_readbyte>
 1001180:	e0bffc0d 	sth	r2,-16(fp)

	//discard the first 44 bytes of data (not PCM)
	int i;
	short int a;
	if(VERBOSE)printf("fh: %i OffsetData: ", music_handle);
	for(i = 0; i < 44; i++){
 1001184:	e0bffd17 	ldw	r2,-12(fp)
 1001188:	10800044 	addi	r2,r2,1
 100118c:	e0bffd15 	stw	r2,-12(fp)
 1001190:	e0bffd17 	ldw	r2,-12(fp)
 1001194:	10800b10 	cmplti	r2,r2,44
 1001198:	103ff71e 	bne	r2,zero,1001178 <init_read_wav+0x28>
		a = sd_readbyte(music_handle);
		if(VERBOSE)printf("%X ", a);
	}

	if(VERBOSE)printf("\n");
	return music_handle;
 100119c:	e0bffe0f 	ldh	r2,-8(fp)
}
 10011a0:	e037883a 	mov	sp,fp
 10011a4:	dfc00117 	ldw	ra,4(sp)
 10011a8:	df000017 	ldw	fp,0(sp)
 10011ac:	dec00204 	addi	sp,sp,8
 10011b0:	f800283a 	ret

010011b4 <refill_buffer>:

void refill_buffer(audio_buffer *ab, char* music_to_loop) {
 10011b4:	defffc04 	addi	sp,sp,-16
 10011b8:	dfc00315 	stw	ra,12(sp)
 10011bc:	df000215 	stw	fp,8(sp)
 10011c0:	df000204 	addi	fp,sp,8
 10011c4:	e13ffe15 	stw	r4,-8(fp)
 10011c8:	e17fff15 	stw	r5,-4(fp)
    fill_buffer(ab);
 10011cc:	e13ffe17 	ldw	r4,-8(fp)
 10011d0:	100122c0 	call	100122c <fill_buffer>
    if(ab->finished){
 10011d4:	e0bffe17 	ldw	r2,-8(fp)
 10011d8:	10830217 	ldw	r2,3080(r2)
 10011dc:	1005003a 	cmpeq	r2,r2,zero
 10011e0:	10000d1e 	bne	r2,zero,1001218 <refill_buffer+0x64>
    	sd_fclose(ab->wav);
 10011e4:	e0bffe17 	ldw	r2,-8(fp)
 10011e8:	1083040b 	ldhu	r2,3088(r2)
 10011ec:	113fffcc 	andi	r4,r2,65535
 10011f0:	2120001c 	xori	r4,r4,32768
 10011f4:	21200004 	addi	r4,r4,-32768
 10011f8:	10015c00 	call	10015c0 <sd_fclose>
    	ab->wav = init_read_wav(music_to_loop);
 10011fc:	e13fff17 	ldw	r4,-4(fp)
 1001200:	10011500 	call	1001150 <init_read_wav>
 1001204:	1007883a 	mov	r3,r2
 1001208:	e0bffe17 	ldw	r2,-8(fp)
 100120c:	10c3040d 	sth	r3,3088(r2)
    	ab->finished = false;
 1001210:	e0bffe17 	ldw	r2,-8(fp)
 1001214:	10030215 	stw	zero,3080(r2)
    }
}
 1001218:	e037883a 	mov	sp,fp
 100121c:	dfc00117 	ldw	ra,4(sp)
 1001220:	df000017 	ldw	fp,0(sp)
 1001224:	dec00204 	addi	sp,sp,8
 1001228:	f800283a 	ret

0100122c <fill_buffer>:

//this modifies end
void fill_buffer(audio_buffer *ab) {
 100122c:	defff304 	addi	sp,sp,-52
 1001230:	dfc00c15 	stw	ra,48(sp)
 1001234:	df000b15 	stw	fp,44(sp)
 1001238:	df000b04 	addi	fp,sp,44
 100123c:	e13ffe15 	stw	r4,-8(fp)

	sdf handle = ab->wav;
 1001240:	e0bffe17 	ldw	r2,-8(fp)
 1001244:	1083040b 	ldhu	r2,3088(r2)
 1001248:	e0bffd0d 	sth	r2,-12(fp)

	short int *cir_buffer = ab->cir_buffer;
 100124c:	e0bffe17 	ldw	r2,-8(fp)
 1001250:	e0bffc15 	stw	r2,-16(fp)
	bool finished = ab->finished;
 1001254:	e0bffe17 	ldw	r2,-8(fp)
 1001258:	10830217 	ldw	r2,3080(r2)
 100125c:	e0bffb15 	stw	r2,-20(fp)
	int end = ab->end;
 1001260:	e0bffe17 	ldw	r2,-8(fp)
 1001264:	1082f917 	ldw	r2,3044(r2)
 1001268:	e0bffa15 	stw	r2,-24(fp)
	int start = ab->start;
 100126c:	e0bffe17 	ldw	r2,-8(fp)
 1001270:	1082f817 	ldw	r2,3040(r2)
 1001274:	e0bff915 	stw	r2,-28(fp)

	short int temp_data1;
	short int temp_data2;

	int avail_to_fill = start > end ? start - end : start + BUFFER_SIZE - end;
 1001278:	e0fff917 	ldw	r3,-28(fp)
 100127c:	e0bffa17 	ldw	r2,-24(fp)
 1001280:	10c0050e 	bge	r2,r3,1001298 <fill_buffer+0x6c>
 1001284:	e0fff917 	ldw	r3,-28(fp)
 1001288:	e0bffa17 	ldw	r2,-24(fp)
 100128c:	1887c83a 	sub	r3,r3,r2
 1001290:	e0ffff15 	stw	r3,-4(fp)
 1001294:	00000506 	br	10012ac <fill_buffer+0x80>
 1001298:	e0bff917 	ldw	r2,-28(fp)
 100129c:	e0fffa17 	ldw	r3,-24(fp)
 10012a0:	10c5c83a 	sub	r2,r2,r3
 10012a4:	10817c04 	addi	r2,r2,1520
 10012a8:	e0bfff15 	stw	r2,-4(fp)
 10012ac:	e0bfff17 	ldw	r2,-4(fp)
 10012b0:	e0bff715 	stw	r2,-36(fp)
	avail_to_fill--; //start != end
 10012b4:	e0bff717 	ldw	r2,-36(fp)
 10012b8:	10bfffc4 	addi	r2,r2,-1
 10012bc:	e0bff715 	stw	r2,-36(fp)

	int i;

	for(i = 0; i < avail_to_fill; i++) {
 10012c0:	e03ff615 	stw	zero,-40(fp)
 10012c4:	0000a006 	br	1001548 <fill_buffer+0x31c>
		//read byte
		temp_data1 = sd_readbyte(handle);
 10012c8:	e13ffd0f 	ldh	r4,-12(fp)
 10012cc:	10015f00 	call	10015f0 <sd_readbyte>
 10012d0:	e0bff88d 	sth	r2,-30(fp)
		if( temp_data1 < 0 ) { //reached EOF
 10012d4:	e0bff88f 	ldh	r2,-30(fp)
 10012d8:	1004403a 	cmpge	r2,r2,zero
 10012dc:	10000b1e 	bne	r2,zero,100130c <fill_buffer+0xe0>
			finished = true;
 10012e0:	00800044 	movi	r2,1
 10012e4:	e0bffb15 	stw	r2,-20(fp)
			printf("THIS IS NOT SUPPOSE TO HAPPEN (so early) i = %i !\n", i);
 10012e8:	010040b4 	movhi	r4,258
 10012ec:	2120eb04 	addi	r4,r4,-31828
 10012f0:	e17ff617 	ldw	r5,-40(fp)
 10012f4:	10049dc0 	call	10049dc <printf>
			printf("Avail to fill: %i\n", avail_to_fill);
 10012f8:	010040b4 	movhi	r4,258
 10012fc:	2120f804 	addi	r4,r4,-31776
 1001300:	e17ff717 	ldw	r5,-36(fp)
 1001304:	10049dc0 	call	10049dc <printf>
			break;
 1001308:	00009206 	br	1001554 <fill_buffer+0x328>
		}
		temp_data2 = sd_readbyte(handle);
 100130c:	e13ffd0f 	ldh	r4,-12(fp)
 1001310:	10015f00 	call	10015f0 <sd_readbyte>
 1001314:	e0bff80d 	sth	r2,-32(fp)

		if(ab->sfx_flag || ab->sfx_flag1){
 1001318:	e0bffe17 	ldw	r2,-8(fp)
 100131c:	1082fa17 	ldw	r2,3048(r2)
 1001320:	1004c03a 	cmpne	r2,r2,zero
 1001324:	1000041e 	bne	r2,zero,1001338 <fill_buffer+0x10c>
 1001328:	e0bffe17 	ldw	r2,-8(fp)
 100132c:	1082fe17 	ldw	r2,3064(r2)
 1001330:	1005003a 	cmpeq	r2,r2,zero
 1001334:	10006f1e 	bne	r2,zero,10014f4 <fill_buffer+0x2c8>
			int t = 0;
 1001338:	e03ff515 	stw	zero,-44(fp)

			if(ab->sfx_flag) {
 100133c:	e0bffe17 	ldw	r2,-8(fp)
 1001340:	1082fa17 	ldw	r2,3048(r2)
 1001344:	1005003a 	cmpeq	r2,r2,zero
 1001348:	1000241e 	bne	r2,zero,10013dc <fill_buffer+0x1b0>
				t += (short int)((temp_data2 << 8) | temp_data1)
 100134c:	e0bff80f 	ldh	r2,-32(fp)
 1001350:	1004923a 	slli	r2,r2,8
 1001354:	1007883a 	mov	r3,r2
 1001358:	e0bff88b 	ldhu	r2,-30(fp)
 100135c:	1884b03a 	or	r2,r3,r2
 1001360:	113fffcc 	andi	r4,r2,65535
 1001364:	2120001c 	xori	r4,r4,32768
 1001368:	21200004 	addi	r4,r4,-32768
 100136c:	e0bffe17 	ldw	r2,-8(fp)
 1001370:	10c2fb17 	ldw	r3,3052(r2)
 1001374:	e0bffe17 	ldw	r2,-8(fp)
 1001378:	1082fd17 	ldw	r2,3060(r2)
 100137c:	1085883a 	add	r2,r2,r2
 1001380:	1885883a 	add	r2,r3,r2
 1001384:	1080000b 	ldhu	r2,0(r2)
 1001388:	10bfffcc 	andi	r2,r2,65535
 100138c:	10a0001c 	xori	r2,r2,32768
 1001390:	10a00004 	addi	r2,r2,-32768
 1001394:	2087883a 	add	r3,r4,r2
 1001398:	e0bff517 	ldw	r2,-44(fp)
 100139c:	10c5883a 	add	r2,r2,r3
 10013a0:	e0bff515 	stw	r2,-44(fp)
					+ (short int)(ab->sfx_ptr[ab->sfx_count]);
				ab->sfx_count++;
 10013a4:	e0bffe17 	ldw	r2,-8(fp)
 10013a8:	1082fd17 	ldw	r2,3060(r2)
 10013ac:	10c00044 	addi	r3,r2,1
 10013b0:	e0bffe17 	ldw	r2,-8(fp)
 10013b4:	10c2fd15 	stw	r3,3060(r2)
				if(ab->sfx_count == ab->sfx_size){
 10013b8:	e0bffe17 	ldw	r2,-8(fp)
 10013bc:	10c2fd17 	ldw	r3,3060(r2)
 10013c0:	e0bffe17 	ldw	r2,-8(fp)
 10013c4:	1082fc17 	ldw	r2,3056(r2)
 10013c8:	1880041e 	bne	r3,r2,10013dc <fill_buffer+0x1b0>
					ab->sfx_flag = false;
 10013cc:	e0bffe17 	ldw	r2,-8(fp)
 10013d0:	1002fa15 	stw	zero,3048(r2)
					ab->sfx_count = 0;
 10013d4:	e0bffe17 	ldw	r2,-8(fp)
 10013d8:	1002fd15 	stw	zero,3060(r2)
				}
			}

			if(ab->sfx_flag1) {
 10013dc:	e0bffe17 	ldw	r2,-8(fp)
 10013e0:	1082fe17 	ldw	r2,3064(r2)
 10013e4:	1005003a 	cmpeq	r2,r2,zero
 10013e8:	1000241e 	bne	r2,zero,100147c <fill_buffer+0x250>
				t += (short int)((temp_data2 << 8) | temp_data1)
 10013ec:	e0bff80f 	ldh	r2,-32(fp)
 10013f0:	1004923a 	slli	r2,r2,8
 10013f4:	1007883a 	mov	r3,r2
 10013f8:	e0bff88b 	ldhu	r2,-30(fp)
 10013fc:	1884b03a 	or	r2,r3,r2
 1001400:	113fffcc 	andi	r4,r2,65535
 1001404:	2120001c 	xori	r4,r4,32768
 1001408:	21200004 	addi	r4,r4,-32768
 100140c:	e0bffe17 	ldw	r2,-8(fp)
 1001410:	10c2ff17 	ldw	r3,3068(r2)
 1001414:	e0bffe17 	ldw	r2,-8(fp)
 1001418:	10830117 	ldw	r2,3076(r2)
 100141c:	1085883a 	add	r2,r2,r2
 1001420:	1885883a 	add	r2,r3,r2
 1001424:	1080000b 	ldhu	r2,0(r2)
 1001428:	10bfffcc 	andi	r2,r2,65535
 100142c:	10a0001c 	xori	r2,r2,32768
 1001430:	10a00004 	addi	r2,r2,-32768
 1001434:	2087883a 	add	r3,r4,r2
 1001438:	e0bff517 	ldw	r2,-44(fp)
 100143c:	10c5883a 	add	r2,r2,r3
 1001440:	e0bff515 	stw	r2,-44(fp)
					+ (short int)(ab->sfx_ptr1[ab->sfx_count1]);
				ab->sfx_count1++;
 1001444:	e0bffe17 	ldw	r2,-8(fp)
 1001448:	10830117 	ldw	r2,3076(r2)
 100144c:	10c00044 	addi	r3,r2,1
 1001450:	e0bffe17 	ldw	r2,-8(fp)
 1001454:	10c30115 	stw	r3,3076(r2)
				if(ab->sfx_count1 == ab->sfx_size1){
 1001458:	e0bffe17 	ldw	r2,-8(fp)
 100145c:	10c30117 	ldw	r3,3076(r2)
 1001460:	e0bffe17 	ldw	r2,-8(fp)
 1001464:	10830017 	ldw	r2,3072(r2)
 1001468:	1880041e 	bne	r3,r2,100147c <fill_buffer+0x250>
					ab->sfx_flag1 = false;
 100146c:	e0bffe17 	ldw	r2,-8(fp)
 1001470:	1002fe15 	stw	zero,3064(r2)
					ab->sfx_count1 = 0;
 1001474:	e0bffe17 	ldw	r2,-8(fp)
 1001478:	10030115 	stw	zero,3076(r2)
				}
			}

			if( t > 32767 )
 100147c:	e0fff517 	ldw	r3,-44(fp)
 1001480:	009fffc4 	movi	r2,32767
 1001484:	10c0080e 	bge	r2,r3,10014a8 <fill_buffer+0x27c>
				cir_buffer[end] = 0x7FFF; //cap it
 1001488:	e0bffa17 	ldw	r2,-24(fp)
 100148c:	1085883a 	add	r2,r2,r2
 1001490:	1007883a 	mov	r3,r2
 1001494:	e0bffc17 	ldw	r2,-16(fp)
 1001498:	1887883a 	add	r3,r3,r2
 100149c:	009fffc4 	movi	r2,32767
 10014a0:	1880000d 	sth	r2,0(r3)
 10014a4:	00001e06 	br	1001520 <fill_buffer+0x2f4>
			else if( t < -32768 )
 10014a8:	e0bff517 	ldw	r2,-44(fp)
 10014ac:	10a00008 	cmpgei	r2,r2,-32768
 10014b0:	1000081e 	bne	r2,zero,10014d4 <fill_buffer+0x2a8>
				cir_buffer[end] = 0x8000; //lower cap it
 10014b4:	e0bffa17 	ldw	r2,-24(fp)
 10014b8:	1085883a 	add	r2,r2,r2
 10014bc:	1007883a 	mov	r3,r2
 10014c0:	e0bffc17 	ldw	r2,-16(fp)
 10014c4:	1887883a 	add	r3,r3,r2
 10014c8:	00a00004 	movi	r2,-32768
 10014cc:	1880000d 	sth	r2,0(r3)
 10014d0:	00001306 	br	1001520 <fill_buffer+0x2f4>
			else
				cir_buffer[end] = t;
 10014d4:	e0bffa17 	ldw	r2,-24(fp)
 10014d8:	1085883a 	add	r2,r2,r2
 10014dc:	1007883a 	mov	r3,r2
 10014e0:	e0bffc17 	ldw	r2,-16(fp)
 10014e4:	1887883a 	add	r3,r3,r2
 10014e8:	e0bff517 	ldw	r2,-44(fp)
 10014ec:	1880000d 	sth	r2,0(r3)
			printf("Avail to fill: %i\n", avail_to_fill);
			break;
		}
		temp_data2 = sd_readbyte(handle);

		if(ab->sfx_flag || ab->sfx_flag1){
 10014f0:	00000b06 	br	1001520 <fill_buffer+0x2f4>
			else
				cir_buffer[end] = t;


		}else{
			cir_buffer[end]   = (short int)((temp_data2 << 8) | temp_data1);
 10014f4:	e0bffa17 	ldw	r2,-24(fp)
 10014f8:	1085883a 	add	r2,r2,r2
 10014fc:	1007883a 	mov	r3,r2
 1001500:	e0bffc17 	ldw	r2,-16(fp)
 1001504:	1889883a 	add	r4,r3,r2
 1001508:	e0bff80f 	ldh	r2,-32(fp)
 100150c:	1004923a 	slli	r2,r2,8
 1001510:	1007883a 	mov	r3,r2
 1001514:	e0bff88b 	ldhu	r2,-30(fp)
 1001518:	1884b03a 	or	r2,r3,r2
 100151c:	2080000d 	sth	r2,0(r4)
		}

		end++;
 1001520:	e0bffa17 	ldw	r2,-24(fp)
 1001524:	10800044 	addi	r2,r2,1
 1001528:	e0bffa15 	stw	r2,-24(fp)

		if( end == BUFFER_SIZE ) end = 0; //reached end of buffer
 100152c:	e0bffa17 	ldw	r2,-24(fp)
 1001530:	10817c18 	cmpnei	r2,r2,1520
 1001534:	1000011e 	bne	r2,zero,100153c <fill_buffer+0x310>
 1001538:	e03ffa15 	stw	zero,-24(fp)
	int avail_to_fill = start > end ? start - end : start + BUFFER_SIZE - end;
	avail_to_fill--; //start != end

	int i;

	for(i = 0; i < avail_to_fill; i++) {
 100153c:	e0bff617 	ldw	r2,-40(fp)
 1001540:	10800044 	addi	r2,r2,1
 1001544:	e0bff615 	stw	r2,-40(fp)
 1001548:	e0fff617 	ldw	r3,-40(fp)
 100154c:	e0bff717 	ldw	r2,-36(fp)
 1001550:	18bf5d16 	blt	r3,r2,10012c8 <fill_buffer+0x9c>
		end++;

		if( end == BUFFER_SIZE ) end = 0; //reached end of buffer
	}

	ab->end = end;
 1001554:	e0fffe17 	ldw	r3,-8(fp)
 1001558:	e0bffa17 	ldw	r2,-24(fp)
 100155c:	1882f915 	stw	r2,3044(r3)
	ab->finished = finished;
 1001560:	e0fffe17 	ldw	r3,-8(fp)
 1001564:	e0bffb17 	ldw	r2,-20(fp)
 1001568:	18830215 	stw	r2,3080(r3)
}
 100156c:	e037883a 	mov	sp,fp
 1001570:	dfc00117 	ldw	ra,4(sp)
 1001574:	df000017 	ldw	fp,0(sp)
 1001578:	dec00204 	addi	sp,sp,8
 100157c:	f800283a 	ret

01001580 <sd_fopen>:

//opens a file at location name
//eg. name = "sd.txt" opens sd.txt in root
//	  name = "/dir/w.txt"
//returns the file handle
sdf sd_fopen(char* name){
 1001580:	defffd04 	addi	sp,sp,-12
 1001584:	dfc00215 	stw	ra,8(sp)
 1001588:	df000115 	stw	fp,4(sp)
 100158c:	df000104 	addi	fp,sp,4
 1001590:	e13fff15 	stw	r4,-4(fp)
	return alt_up_sd_card_fopen(name,false);
 1001594:	e13fff17 	ldw	r4,-4(fp)
 1001598:	000b883a 	mov	r5,zero
 100159c:	10160440 	call	1016044 <alt_up_sd_card_fopen>
 10015a0:	10bfffcc 	andi	r2,r2,65535
 10015a4:	10a0001c 	xori	r2,r2,32768
 10015a8:	10a00004 	addi	r2,r2,-32768
}
 10015ac:	e037883a 	mov	sp,fp
 10015b0:	dfc00117 	ldw	ra,4(sp)
 10015b4:	df000017 	ldw	fp,0(sp)
 10015b8:	dec00204 	addi	sp,sp,8
 10015bc:	f800283a 	ret

010015c0 <sd_fclose>:

//closes a file
//takes a file handle
void sd_fclose(sdf handle) {
 10015c0:	defffd04 	addi	sp,sp,-12
 10015c4:	dfc00215 	stw	ra,8(sp)
 10015c8:	df000115 	stw	fp,4(sp)
 10015cc:	df000104 	addi	fp,sp,4
 10015d0:	e13fff0d 	sth	r4,-4(fp)
	alt_up_sd_card_fclose(handle);
 10015d4:	e13fff0f 	ldh	r4,-4(fp)
 10015d8:	1016ebc0 	call	1016ebc <alt_up_sd_card_fclose>
}
 10015dc:	e037883a 	mov	sp,fp
 10015e0:	dfc00117 	ldw	ra,4(sp)
 10015e4:	df000017 	ldw	fp,0(sp)
 10015e8:	dec00204 	addi	sp,sp,8
 10015ec:	f800283a 	ret

010015f0 <sd_readbyte>:

short int sd_readbyte(sdf handle) {
 10015f0:	defffd04 	addi	sp,sp,-12
 10015f4:	dfc00215 	stw	ra,8(sp)
 10015f8:	df000115 	stw	fp,4(sp)
 10015fc:	df000104 	addi	fp,sp,4
 1001600:	e13fff0d 	sth	r4,-4(fp)
	return alt_up_sd_card_read(handle);
 1001604:	e13fff0f 	ldh	r4,-4(fp)
 1001608:	10165080 	call	1016508 <alt_up_sd_card_read>
 100160c:	10bfffcc 	andi	r2,r2,65535
 1001610:	10a0001c 	xori	r2,r2,32768
 1001614:	10a00004 	addi	r2,r2,-32768
}
 1001618:	e037883a 	mov	sp,fp
 100161c:	dfc00117 	ldw	ra,4(sp)
 1001620:	df000017 	ldw	fp,0(sp)
 1001624:	dec00204 	addi	sp,sp,8
 1001628:	f800283a 	ret

0100162c <audio_write_fifo>:

//len in multiple of 5's
void audio_write_fifo(alt_up_audio_dev *audio, short int *buf, int len)
{
 100162c:	defffb04 	addi	sp,sp,-20
 1001630:	df000415 	stw	fp,16(sp)
 1001634:	df000404 	addi	fp,sp,16
 1001638:	e13ffd15 	stw	r4,-12(fp)
 100163c:	e17ffe15 	stw	r5,-8(fp)
 1001640:	e1bfff15 	stw	r6,-4(fp)
	int count = 0;
 1001644:	e03ffc15 	stw	zero,-16(fp)
	while ( count < len ) {
 1001648:	00009706 	br	10018a8 <audio_write_fifo+0x27c>
		IOWR_ALT_UP_AUDIO_LEFTDATA(audio->base, buf[count]);
 100164c:	e0bffd17 	ldw	r2,-12(fp)
 1001650:	10800a17 	ldw	r2,40(r2)
 1001654:	11000204 	addi	r4,r2,8
 1001658:	e0bffc17 	ldw	r2,-16(fp)
 100165c:	1085883a 	add	r2,r2,r2
 1001660:	1007883a 	mov	r3,r2
 1001664:	e0bffe17 	ldw	r2,-8(fp)
 1001668:	1885883a 	add	r2,r3,r2
 100166c:	1080000b 	ldhu	r2,0(r2)
 1001670:	10ffffcc 	andi	r3,r2,65535
 1001674:	18e0001c 	xori	r3,r3,32768
 1001678:	18e00004 	addi	r3,r3,-32768
 100167c:	2005883a 	mov	r2,r4
 1001680:	10c00035 	stwio	r3,0(r2)
		IOWR_ALT_UP_AUDIO_LEFTDATA(audio->base, buf[count+1]);
 1001684:	e0bffd17 	ldw	r2,-12(fp)
 1001688:	10800a17 	ldw	r2,40(r2)
 100168c:	11000204 	addi	r4,r2,8
 1001690:	e0bffc17 	ldw	r2,-16(fp)
 1001694:	1085883a 	add	r2,r2,r2
 1001698:	1007883a 	mov	r3,r2
 100169c:	e0bffe17 	ldw	r2,-8(fp)
 10016a0:	1885883a 	add	r2,r3,r2
 10016a4:	10800084 	addi	r2,r2,2
 10016a8:	1080000b 	ldhu	r2,0(r2)
 10016ac:	10ffffcc 	andi	r3,r2,65535
 10016b0:	18e0001c 	xori	r3,r3,32768
 10016b4:	18e00004 	addi	r3,r3,-32768
 10016b8:	2005883a 	mov	r2,r4
 10016bc:	10c00035 	stwio	r3,0(r2)
		IOWR_ALT_UP_AUDIO_LEFTDATA(audio->base, buf[count+2]);
 10016c0:	e0bffd17 	ldw	r2,-12(fp)
 10016c4:	10800a17 	ldw	r2,40(r2)
 10016c8:	11000204 	addi	r4,r2,8
 10016cc:	e0bffc17 	ldw	r2,-16(fp)
 10016d0:	1085883a 	add	r2,r2,r2
 10016d4:	1007883a 	mov	r3,r2
 10016d8:	e0bffe17 	ldw	r2,-8(fp)
 10016dc:	1885883a 	add	r2,r3,r2
 10016e0:	10800104 	addi	r2,r2,4
 10016e4:	1080000b 	ldhu	r2,0(r2)
 10016e8:	10ffffcc 	andi	r3,r2,65535
 10016ec:	18e0001c 	xori	r3,r3,32768
 10016f0:	18e00004 	addi	r3,r3,-32768
 10016f4:	2005883a 	mov	r2,r4
 10016f8:	10c00035 	stwio	r3,0(r2)
		IOWR_ALT_UP_AUDIO_LEFTDATA(audio->base, buf[count+3]);
 10016fc:	e0bffd17 	ldw	r2,-12(fp)
 1001700:	10800a17 	ldw	r2,40(r2)
 1001704:	11000204 	addi	r4,r2,8
 1001708:	e0bffc17 	ldw	r2,-16(fp)
 100170c:	1085883a 	add	r2,r2,r2
 1001710:	1007883a 	mov	r3,r2
 1001714:	e0bffe17 	ldw	r2,-8(fp)
 1001718:	1885883a 	add	r2,r3,r2
 100171c:	10800184 	addi	r2,r2,6
 1001720:	1080000b 	ldhu	r2,0(r2)
 1001724:	10ffffcc 	andi	r3,r2,65535
 1001728:	18e0001c 	xori	r3,r3,32768
 100172c:	18e00004 	addi	r3,r3,-32768
 1001730:	2005883a 	mov	r2,r4
 1001734:	10c00035 	stwio	r3,0(r2)
		IOWR_ALT_UP_AUDIO_LEFTDATA(audio->base, buf[count+4]);
 1001738:	e0bffd17 	ldw	r2,-12(fp)
 100173c:	10800a17 	ldw	r2,40(r2)
 1001740:	11000204 	addi	r4,r2,8
 1001744:	e0bffc17 	ldw	r2,-16(fp)
 1001748:	1085883a 	add	r2,r2,r2
 100174c:	1007883a 	mov	r3,r2
 1001750:	e0bffe17 	ldw	r2,-8(fp)
 1001754:	1885883a 	add	r2,r3,r2
 1001758:	10800204 	addi	r2,r2,8
 100175c:	1080000b 	ldhu	r2,0(r2)
 1001760:	10ffffcc 	andi	r3,r2,65535
 1001764:	18e0001c 	xori	r3,r3,32768
 1001768:	18e00004 	addi	r3,r3,-32768
 100176c:	2005883a 	mov	r2,r4
 1001770:	10c00035 	stwio	r3,0(r2)

		IOWR_ALT_UP_AUDIO_RIGHTDATA(audio->base, buf[count]);
 1001774:	e0bffd17 	ldw	r2,-12(fp)
 1001778:	10800a17 	ldw	r2,40(r2)
 100177c:	11000304 	addi	r4,r2,12
 1001780:	e0bffc17 	ldw	r2,-16(fp)
 1001784:	1085883a 	add	r2,r2,r2
 1001788:	1007883a 	mov	r3,r2
 100178c:	e0bffe17 	ldw	r2,-8(fp)
 1001790:	1885883a 	add	r2,r3,r2
 1001794:	1080000b 	ldhu	r2,0(r2)
 1001798:	10ffffcc 	andi	r3,r2,65535
 100179c:	18e0001c 	xori	r3,r3,32768
 10017a0:	18e00004 	addi	r3,r3,-32768
 10017a4:	2005883a 	mov	r2,r4
 10017a8:	10c00035 	stwio	r3,0(r2)
		IOWR_ALT_UP_AUDIO_RIGHTDATA(audio->base, buf[count+1]);
 10017ac:	e0bffd17 	ldw	r2,-12(fp)
 10017b0:	10800a17 	ldw	r2,40(r2)
 10017b4:	11000304 	addi	r4,r2,12
 10017b8:	e0bffc17 	ldw	r2,-16(fp)
 10017bc:	1085883a 	add	r2,r2,r2
 10017c0:	1007883a 	mov	r3,r2
 10017c4:	e0bffe17 	ldw	r2,-8(fp)
 10017c8:	1885883a 	add	r2,r3,r2
 10017cc:	10800084 	addi	r2,r2,2
 10017d0:	1080000b 	ldhu	r2,0(r2)
 10017d4:	10ffffcc 	andi	r3,r2,65535
 10017d8:	18e0001c 	xori	r3,r3,32768
 10017dc:	18e00004 	addi	r3,r3,-32768
 10017e0:	2005883a 	mov	r2,r4
 10017e4:	10c00035 	stwio	r3,0(r2)
		IOWR_ALT_UP_AUDIO_RIGHTDATA(audio->base, buf[count+2]);
 10017e8:	e0bffd17 	ldw	r2,-12(fp)
 10017ec:	10800a17 	ldw	r2,40(r2)
 10017f0:	11000304 	addi	r4,r2,12
 10017f4:	e0bffc17 	ldw	r2,-16(fp)
 10017f8:	1085883a 	add	r2,r2,r2
 10017fc:	1007883a 	mov	r3,r2
 1001800:	e0bffe17 	ldw	r2,-8(fp)
 1001804:	1885883a 	add	r2,r3,r2
 1001808:	10800104 	addi	r2,r2,4
 100180c:	1080000b 	ldhu	r2,0(r2)
 1001810:	10ffffcc 	andi	r3,r2,65535
 1001814:	18e0001c 	xori	r3,r3,32768
 1001818:	18e00004 	addi	r3,r3,-32768
 100181c:	2005883a 	mov	r2,r4
 1001820:	10c00035 	stwio	r3,0(r2)
		IOWR_ALT_UP_AUDIO_RIGHTDATA(audio->base, buf[count+3]);
 1001824:	e0bffd17 	ldw	r2,-12(fp)
 1001828:	10800a17 	ldw	r2,40(r2)
 100182c:	11000304 	addi	r4,r2,12
 1001830:	e0bffc17 	ldw	r2,-16(fp)
 1001834:	1085883a 	add	r2,r2,r2
 1001838:	1007883a 	mov	r3,r2
 100183c:	e0bffe17 	ldw	r2,-8(fp)
 1001840:	1885883a 	add	r2,r3,r2
 1001844:	10800184 	addi	r2,r2,6
 1001848:	1080000b 	ldhu	r2,0(r2)
 100184c:	10ffffcc 	andi	r3,r2,65535
 1001850:	18e0001c 	xori	r3,r3,32768
 1001854:	18e00004 	addi	r3,r3,-32768
 1001858:	2005883a 	mov	r2,r4
 100185c:	10c00035 	stwio	r3,0(r2)
		IOWR_ALT_UP_AUDIO_RIGHTDATA(audio->base, buf[count+4]);
 1001860:	e0bffd17 	ldw	r2,-12(fp)
 1001864:	10800a17 	ldw	r2,40(r2)
 1001868:	11000304 	addi	r4,r2,12
 100186c:	e0bffc17 	ldw	r2,-16(fp)
 1001870:	1085883a 	add	r2,r2,r2
 1001874:	1007883a 	mov	r3,r2
 1001878:	e0bffe17 	ldw	r2,-8(fp)
 100187c:	1885883a 	add	r2,r3,r2
 1001880:	10800204 	addi	r2,r2,8
 1001884:	1080000b 	ldhu	r2,0(r2)
 1001888:	10ffffcc 	andi	r3,r2,65535
 100188c:	18e0001c 	xori	r3,r3,32768
 1001890:	18e00004 	addi	r3,r3,-32768
 1001894:	2005883a 	mov	r2,r4
 1001898:	10c00035 	stwio	r3,0(r2)

		count += 5;
 100189c:	e0bffc17 	ldw	r2,-16(fp)
 10018a0:	10800144 	addi	r2,r2,5
 10018a4:	e0bffc15 	stw	r2,-16(fp)

//len in multiple of 5's
void audio_write_fifo(alt_up_audio_dev *audio, short int *buf, int len)
{
	int count = 0;
	while ( count < len ) {
 10018a8:	e0fffc17 	ldw	r3,-16(fp)
 10018ac:	e0bfff17 	ldw	r2,-4(fp)
 10018b0:	18bf6616 	blt	r3,r2,100164c <audio_write_fifo+0x20>
		IOWR_ALT_UP_AUDIO_RIGHTDATA(audio->base, buf[count+3]);
		IOWR_ALT_UP_AUDIO_RIGHTDATA(audio->base, buf[count+4]);

		count += 5;
	}
}
 10018b4:	e037883a 	mov	sp,fp
 10018b8:	df000017 	ldw	fp,0(sp)
 10018bc:	dec00104 	addi	sp,sp,4
 10018c0:	f800283a 	ret

010018c4 <preload_sfx>:

//loads sfx
void preload_sfx(char* name, audio_buffer *ab) {
 10018c4:	defff704 	addi	sp,sp,-36
 10018c8:	dfc00815 	stw	ra,32(sp)
 10018cc:	df000715 	stw	fp,28(sp)
 10018d0:	df000704 	addi	fp,sp,28
 10018d4:	e13ffe15 	stw	r4,-8(fp)
 10018d8:	e17fff15 	stw	r5,-4(fp)

	sdf sfx = init_read_wav(name);
 10018dc:	e13ffe17 	ldw	r4,-8(fp)
 10018e0:	10011500 	call	1001150 <init_read_wav>
 10018e4:	e0bffd0d 	sth	r2,-12(fp)

	short int temp_data1, temp_data2;
	int i;
	int size = 0;
 10018e8:	e03ffa15 	stw	zero,-24(fp)
	short int max_height = 0;
 10018ec:	e03ff98d 	sth	zero,-26(fp)
	short int max_depth = 0;
 10018f0:	e03ff90d 	sth	zero,-28(fp)

	//checks length
	while(1)
	{
		temp_data1 = sd_readbyte(sfx);
 10018f4:	e13ffd0f 	ldh	r4,-12(fp)
 10018f8:	10015f00 	call	10015f0 <sd_readbyte>
 10018fc:	e0bffc8d 	sth	r2,-14(fp)
		if( temp_data1 < 0 ) { //reached EOF
 1001900:	e0bffc8f 	ldh	r2,-14(fp)
 1001904:	1004803a 	cmplt	r2,r2,zero
 1001908:	1000061e 	bne	r2,zero,1001924 <preload_sfx+0x60>
			break;
		}
		sd_readbyte(sfx);
 100190c:	e13ffd0f 	ldh	r4,-12(fp)
 1001910:	10015f00 	call	10015f0 <sd_readbyte>
		size++;
 1001914:	e0bffa17 	ldw	r2,-24(fp)
 1001918:	10800044 	addi	r2,r2,1
 100191c:	e0bffa15 	stw	r2,-24(fp)
	}
 1001920:	003ff406 	br	10018f4 <preload_sfx+0x30>

	sd_fclose(sfx);
 1001924:	e13ffd0f 	ldh	r4,-12(fp)
 1001928:	10015c00 	call	10015c0 <sd_fclose>

	ab->sfx_ptr = (short int*) malloc(size*sizeof(short int));
 100192c:	e0bffa17 	ldw	r2,-24(fp)
 1001930:	1085883a 	add	r2,r2,r2
 1001934:	1009883a 	mov	r4,r2
 1001938:	10042880 	call	1004288 <malloc>
 100193c:	1007883a 	mov	r3,r2
 1001940:	e0bfff17 	ldw	r2,-4(fp)
 1001944:	10c2fb15 	stw	r3,3052(r2)

	sfx = init_read_wav(name);
 1001948:	e13ffe17 	ldw	r4,-8(fp)
 100194c:	10011500 	call	1001150 <init_read_wav>
 1001950:	e0bffd0d 	sth	r2,-12(fp)
	if(VERBOSE)printf("Size: %i word(2bytes)\n",size);

	for(i = 0; i < size; i++) {
 1001954:	e03ffb15 	stw	zero,-20(fp)
 1001958:	00003806 	br	1001a3c <preload_sfx+0x178>
		temp_data1 = sd_readbyte(sfx);
 100195c:	e13ffd0f 	ldh	r4,-12(fp)
 1001960:	10015f00 	call	10015f0 <sd_readbyte>
 1001964:	e0bffc8d 	sth	r2,-14(fp)
		temp_data2 = sd_readbyte(sfx);
 1001968:	e13ffd0f 	ldh	r4,-12(fp)
 100196c:	10015f00 	call	10015f0 <sd_readbyte>
 1001970:	e0bffc0d 	sth	r2,-16(fp)

		ab->sfx_ptr[i]   = (temp_data2 << 8) | temp_data1;
 1001974:	e0bfff17 	ldw	r2,-4(fp)
 1001978:	10c2fb17 	ldw	r3,3052(r2)
 100197c:	e0bffb17 	ldw	r2,-20(fp)
 1001980:	1085883a 	add	r2,r2,r2
 1001984:	1889883a 	add	r4,r3,r2
 1001988:	e0bffc0f 	ldh	r2,-16(fp)
 100198c:	1004923a 	slli	r2,r2,8
 1001990:	1007883a 	mov	r3,r2
 1001994:	e0bffc8b 	ldhu	r2,-14(fp)
 1001998:	1884b03a 	or	r2,r3,r2
 100199c:	2080000d 	sth	r2,0(r4)
		if( ab->sfx_ptr[i] > max_height ) max_height = ab->sfx_ptr[i];
 10019a0:	e0bfff17 	ldw	r2,-4(fp)
 10019a4:	10c2fb17 	ldw	r3,3052(r2)
 10019a8:	e0bffb17 	ldw	r2,-20(fp)
 10019ac:	1085883a 	add	r2,r2,r2
 10019b0:	1885883a 	add	r2,r3,r2
 10019b4:	1080000b 	ldhu	r2,0(r2)
 10019b8:	10ffffcc 	andi	r3,r2,65535
 10019bc:	18e0001c 	xori	r3,r3,32768
 10019c0:	18e00004 	addi	r3,r3,-32768
 10019c4:	e0bff98f 	ldh	r2,-26(fp)
 10019c8:	10c0070e 	bge	r2,r3,10019e8 <preload_sfx+0x124>
 10019cc:	e0bfff17 	ldw	r2,-4(fp)
 10019d0:	10c2fb17 	ldw	r3,3052(r2)
 10019d4:	e0bffb17 	ldw	r2,-20(fp)
 10019d8:	1085883a 	add	r2,r2,r2
 10019dc:	1885883a 	add	r2,r3,r2
 10019e0:	1080000b 	ldhu	r2,0(r2)
 10019e4:	e0bff98d 	sth	r2,-26(fp)
		if( ab->sfx_ptr[i] < max_depth ) max_depth = ab->sfx_ptr[i];
 10019e8:	e0bfff17 	ldw	r2,-4(fp)
 10019ec:	10c2fb17 	ldw	r3,3052(r2)
 10019f0:	e0bffb17 	ldw	r2,-20(fp)
 10019f4:	1085883a 	add	r2,r2,r2
 10019f8:	1885883a 	add	r2,r3,r2
 10019fc:	1080000b 	ldhu	r2,0(r2)
 1001a00:	10ffffcc 	andi	r3,r2,65535
 1001a04:	18e0001c 	xori	r3,r3,32768
 1001a08:	18e00004 	addi	r3,r3,-32768
 1001a0c:	e0bff90f 	ldh	r2,-28(fp)
 1001a10:	1880070e 	bge	r3,r2,1001a30 <preload_sfx+0x16c>
 1001a14:	e0bfff17 	ldw	r2,-4(fp)
 1001a18:	10c2fb17 	ldw	r3,3052(r2)
 1001a1c:	e0bffb17 	ldw	r2,-20(fp)
 1001a20:	1085883a 	add	r2,r2,r2
 1001a24:	1885883a 	add	r2,r3,r2
 1001a28:	1080000b 	ldhu	r2,0(r2)
 1001a2c:	e0bff90d 	sth	r2,-28(fp)
	ab->sfx_ptr = (short int*) malloc(size*sizeof(short int));

	sfx = init_read_wav(name);
	if(VERBOSE)printf("Size: %i word(2bytes)\n",size);

	for(i = 0; i < size; i++) {
 1001a30:	e0bffb17 	ldw	r2,-20(fp)
 1001a34:	10800044 	addi	r2,r2,1
 1001a38:	e0bffb15 	stw	r2,-20(fp)
 1001a3c:	e0fffb17 	ldw	r3,-20(fp)
 1001a40:	e0bffa17 	ldw	r2,-24(fp)
 1001a44:	18bfc516 	blt	r3,r2,100195c <preload_sfx+0x98>
		ab->sfx_ptr[i]   = (temp_data2 << 8) | temp_data1;
		if( ab->sfx_ptr[i] > max_height ) max_height = ab->sfx_ptr[i];
		if( ab->sfx_ptr[i] < max_depth ) max_depth = ab->sfx_ptr[i];
	}

	sd_fclose(sfx);
 1001a48:	e13ffd0f 	ldh	r4,-12(fp)
 1001a4c:	10015c00 	call	10015c0 <sd_fclose>

	if(VERBOSE)printf("Max height: %i, Max depth: %i\n",max_height,max_depth);

	ab->sfx_size = size;
 1001a50:	e0ffff17 	ldw	r3,-4(fp)
 1001a54:	e0bffa17 	ldw	r2,-24(fp)
 1001a58:	1882fc15 	stw	r2,3056(r3)
}
 1001a5c:	e037883a 	mov	sp,fp
 1001a60:	dfc00117 	ldw	ra,4(sp)
 1001a64:	df000017 	ldw	fp,0(sp)
 1001a68:	dec00204 	addi	sp,sp,8
 1001a6c:	f800283a 	ret

01001a70 <preload_sfx1>:

//loads sfx
void preload_sfx1(char* name, audio_buffer *ab) {
 1001a70:	defff704 	addi	sp,sp,-36
 1001a74:	dfc00815 	stw	ra,32(sp)
 1001a78:	df000715 	stw	fp,28(sp)
 1001a7c:	df000704 	addi	fp,sp,28
 1001a80:	e13ffe15 	stw	r4,-8(fp)
 1001a84:	e17fff15 	stw	r5,-4(fp)

	sdf sfx = init_read_wav(name);
 1001a88:	e13ffe17 	ldw	r4,-8(fp)
 1001a8c:	10011500 	call	1001150 <init_read_wav>
 1001a90:	e0bffd0d 	sth	r2,-12(fp)

	short int temp_data1, temp_data2;
	int i;
	int size = 0;
 1001a94:	e03ffa15 	stw	zero,-24(fp)
	short int max_height = 0;
 1001a98:	e03ff98d 	sth	zero,-26(fp)
	short int max_depth = 0;
 1001a9c:	e03ff90d 	sth	zero,-28(fp)

	//checks length
	while(1)
	{
		temp_data1 = sd_readbyte(sfx);
 1001aa0:	e13ffd0f 	ldh	r4,-12(fp)
 1001aa4:	10015f00 	call	10015f0 <sd_readbyte>
 1001aa8:	e0bffc8d 	sth	r2,-14(fp)
		if( temp_data1 < 0 ) { //reached EOF
 1001aac:	e0bffc8f 	ldh	r2,-14(fp)
 1001ab0:	1004803a 	cmplt	r2,r2,zero
 1001ab4:	1000061e 	bne	r2,zero,1001ad0 <preload_sfx1+0x60>
			break;
		}
		sd_readbyte(sfx);
 1001ab8:	e13ffd0f 	ldh	r4,-12(fp)
 1001abc:	10015f00 	call	10015f0 <sd_readbyte>
		size++;
 1001ac0:	e0bffa17 	ldw	r2,-24(fp)
 1001ac4:	10800044 	addi	r2,r2,1
 1001ac8:	e0bffa15 	stw	r2,-24(fp)
	}
 1001acc:	003ff406 	br	1001aa0 <preload_sfx1+0x30>

	sd_fclose(sfx);
 1001ad0:	e13ffd0f 	ldh	r4,-12(fp)
 1001ad4:	10015c00 	call	10015c0 <sd_fclose>

	ab->sfx_ptr1 = (short int*) malloc(size*sizeof(short int));
 1001ad8:	e0bffa17 	ldw	r2,-24(fp)
 1001adc:	1085883a 	add	r2,r2,r2
 1001ae0:	1009883a 	mov	r4,r2
 1001ae4:	10042880 	call	1004288 <malloc>
 1001ae8:	1007883a 	mov	r3,r2
 1001aec:	e0bfff17 	ldw	r2,-4(fp)
 1001af0:	10c2ff15 	stw	r3,3068(r2)

	sfx = init_read_wav(name);
 1001af4:	e13ffe17 	ldw	r4,-8(fp)
 1001af8:	10011500 	call	1001150 <init_read_wav>
 1001afc:	e0bffd0d 	sth	r2,-12(fp)
	if(VERBOSE)printf("Size: %i word(2bytes)\n",size);

	for(i = 0; i < size; i++) {
 1001b00:	e03ffb15 	stw	zero,-20(fp)
 1001b04:	00003806 	br	1001be8 <preload_sfx1+0x178>
		temp_data1 = sd_readbyte(sfx);
 1001b08:	e13ffd0f 	ldh	r4,-12(fp)
 1001b0c:	10015f00 	call	10015f0 <sd_readbyte>
 1001b10:	e0bffc8d 	sth	r2,-14(fp)
		temp_data2 = sd_readbyte(sfx);
 1001b14:	e13ffd0f 	ldh	r4,-12(fp)
 1001b18:	10015f00 	call	10015f0 <sd_readbyte>
 1001b1c:	e0bffc0d 	sth	r2,-16(fp)

		ab->sfx_ptr1[i]   = (temp_data2 << 8) | temp_data1;
 1001b20:	e0bfff17 	ldw	r2,-4(fp)
 1001b24:	10c2ff17 	ldw	r3,3068(r2)
 1001b28:	e0bffb17 	ldw	r2,-20(fp)
 1001b2c:	1085883a 	add	r2,r2,r2
 1001b30:	1889883a 	add	r4,r3,r2
 1001b34:	e0bffc0f 	ldh	r2,-16(fp)
 1001b38:	1004923a 	slli	r2,r2,8
 1001b3c:	1007883a 	mov	r3,r2
 1001b40:	e0bffc8b 	ldhu	r2,-14(fp)
 1001b44:	1884b03a 	or	r2,r3,r2
 1001b48:	2080000d 	sth	r2,0(r4)
		if( ab->sfx_ptr1[i] > max_height ) max_height = ab->sfx_ptr1[i];
 1001b4c:	e0bfff17 	ldw	r2,-4(fp)
 1001b50:	10c2ff17 	ldw	r3,3068(r2)
 1001b54:	e0bffb17 	ldw	r2,-20(fp)
 1001b58:	1085883a 	add	r2,r2,r2
 1001b5c:	1885883a 	add	r2,r3,r2
 1001b60:	1080000b 	ldhu	r2,0(r2)
 1001b64:	10ffffcc 	andi	r3,r2,65535
 1001b68:	18e0001c 	xori	r3,r3,32768
 1001b6c:	18e00004 	addi	r3,r3,-32768
 1001b70:	e0bff98f 	ldh	r2,-26(fp)
 1001b74:	10c0070e 	bge	r2,r3,1001b94 <preload_sfx1+0x124>
 1001b78:	e0bfff17 	ldw	r2,-4(fp)
 1001b7c:	10c2ff17 	ldw	r3,3068(r2)
 1001b80:	e0bffb17 	ldw	r2,-20(fp)
 1001b84:	1085883a 	add	r2,r2,r2
 1001b88:	1885883a 	add	r2,r3,r2
 1001b8c:	1080000b 	ldhu	r2,0(r2)
 1001b90:	e0bff98d 	sth	r2,-26(fp)
		if( ab->sfx_ptr1[i] < max_depth ) max_depth = ab->sfx_ptr1[i];
 1001b94:	e0bfff17 	ldw	r2,-4(fp)
 1001b98:	10c2ff17 	ldw	r3,3068(r2)
 1001b9c:	e0bffb17 	ldw	r2,-20(fp)
 1001ba0:	1085883a 	add	r2,r2,r2
 1001ba4:	1885883a 	add	r2,r3,r2
 1001ba8:	1080000b 	ldhu	r2,0(r2)
 1001bac:	10ffffcc 	andi	r3,r2,65535
 1001bb0:	18e0001c 	xori	r3,r3,32768
 1001bb4:	18e00004 	addi	r3,r3,-32768
 1001bb8:	e0bff90f 	ldh	r2,-28(fp)
 1001bbc:	1880070e 	bge	r3,r2,1001bdc <preload_sfx1+0x16c>
 1001bc0:	e0bfff17 	ldw	r2,-4(fp)
 1001bc4:	10c2ff17 	ldw	r3,3068(r2)
 1001bc8:	e0bffb17 	ldw	r2,-20(fp)
 1001bcc:	1085883a 	add	r2,r2,r2
 1001bd0:	1885883a 	add	r2,r3,r2
 1001bd4:	1080000b 	ldhu	r2,0(r2)
 1001bd8:	e0bff90d 	sth	r2,-28(fp)
	ab->sfx_ptr1 = (short int*) malloc(size*sizeof(short int));

	sfx = init_read_wav(name);
	if(VERBOSE)printf("Size: %i word(2bytes)\n",size);

	for(i = 0; i < size; i++) {
 1001bdc:	e0bffb17 	ldw	r2,-20(fp)
 1001be0:	10800044 	addi	r2,r2,1
 1001be4:	e0bffb15 	stw	r2,-20(fp)
 1001be8:	e0fffb17 	ldw	r3,-20(fp)
 1001bec:	e0bffa17 	ldw	r2,-24(fp)
 1001bf0:	18bfc516 	blt	r3,r2,1001b08 <preload_sfx1+0x98>
		ab->sfx_ptr1[i]   = (temp_data2 << 8) | temp_data1;
		if( ab->sfx_ptr1[i] > max_height ) max_height = ab->sfx_ptr1[i];
		if( ab->sfx_ptr1[i] < max_depth ) max_depth = ab->sfx_ptr1[i];
	}

	sd_fclose(sfx);
 1001bf4:	e13ffd0f 	ldh	r4,-12(fp)
 1001bf8:	10015c00 	call	10015c0 <sd_fclose>

	if(VERBOSE)printf("Max height: %i, Max depth: %i\n",max_height,max_depth);

	ab->sfx_size1 = size;
 1001bfc:	e0ffff17 	ldw	r3,-4(fp)
 1001c00:	e0bffa17 	ldw	r2,-24(fp)
 1001c04:	18830015 	stw	r2,3072(r3)
}
 1001c08:	e037883a 	mov	sp,fp
 1001c0c:	dfc00117 	ldw	ra,4(sp)
 1001c10:	df000017 	ldw	fp,0(sp)
 1001c14:	dec00204 	addi	sp,sp,8
 1001c18:	f800283a 	ret

01001c1c <free_sfx>:

void free_sfx(audio_buffer* ab){
 1001c1c:	defffd04 	addi	sp,sp,-12
 1001c20:	dfc00215 	stw	ra,8(sp)
 1001c24:	df000115 	stw	fp,4(sp)
 1001c28:	df000104 	addi	fp,sp,4
 1001c2c:	e13fff15 	stw	r4,-4(fp)
	free(ab->sfx_ptr);
 1001c30:	e0bfff17 	ldw	r2,-4(fp)
 1001c34:	1102fb17 	ldw	r4,3052(r2)
 1001c38:	10042740 	call	1004274 <free>
}
 1001c3c:	e037883a 	mov	sp,fp
 1001c40:	dfc00117 	ldw	ra,4(sp)
 1001c44:	df000017 	ldw	fp,0(sp)
 1001c48:	dec00204 	addi	sp,sp,8
 1001c4c:	f800283a 	ret

01001c50 <free_sfx1>:

void free_sfx1(audio_buffer* ab){
 1001c50:	defffd04 	addi	sp,sp,-12
 1001c54:	dfc00215 	stw	ra,8(sp)
 1001c58:	df000115 	stw	fp,4(sp)
 1001c5c:	df000104 	addi	fp,sp,4
 1001c60:	e13fff15 	stw	r4,-4(fp)
	free(ab->sfx_ptr1);
 1001c64:	e0bfff17 	ldw	r2,-4(fp)
 1001c68:	1102ff17 	ldw	r4,3068(r2)
 1001c6c:	10042740 	call	1004274 <free>
}
 1001c70:	e037883a 	mov	sp,fp
 1001c74:	dfc00117 	ldw	ra,4(sp)
 1001c78:	df000017 	ldw	fp,0(sp)
 1001c7c:	dec00204 	addi	sp,sp,8
 1001c80:	f800283a 	ret

01001c84 <sd_read_level>:

void sd_read_level(char* filename, level* l ) {
 1001c84:	deffee04 	addi	sp,sp,-72
 1001c88:	dfc01115 	stw	ra,68(sp)
 1001c8c:	df001015 	stw	fp,64(sp)
 1001c90:	dc000f15 	stw	r16,60(sp)
 1001c94:	df000f04 	addi	fp,sp,60
 1001c98:	e13ffe15 	stw	r4,-8(fp)
 1001c9c:	e17fff15 	stw	r5,-4(fp)

	sdf handle = sd_fopen(filename);
 1001ca0:	e13ffe17 	ldw	r4,-8(fp)
 1001ca4:	10015800 	call	1001580 <sd_fopen>
 1001ca8:	e0bff88d 	sth	r2,-30(fp)
	char read[20];
	char temp;
	int read_index, i, obj_index;
	short int byte;

	obj_index = 0;
 1001cac:	e03ff515 	stw	zero,-44(fp)
 1001cb0:	00000006 	br	1001cb4 <sd_read_level+0x30>
	//byte = sd_readbyte(handle);
	//temp = byte;
	//printf("read:%i char:%c\n", byte, temp);

	while(1) {
		byte = sd_readbyte(handle);
 1001cb4:	e13ff88f 	ldh	r4,-30(fp)
 1001cb8:	10015f00 	call	10015f0 <sd_readbyte>
 1001cbc:	e0bff40d 	sth	r2,-48(fp)
		temp = byte;
 1001cc0:	e0bff40b 	ldhu	r2,-48(fp)
 1001cc4:	e0bff805 	stb	r2,-32(fp)
		if(VERBOSE) printf("read:%i char:%c\n", byte, temp);

		if( byte < 0 )
 1001cc8:	e0bff40f 	ldh	r2,-48(fp)
 1001ccc:	1004803a 	cmplt	r2,r2,zero
 1001cd0:	1000a61e 	bne	r2,zero,1001f6c <sd_read_level+0x2e8>
			break; //EOF
		else if(temp == '#') { //comment line; ignore
 1001cd4:	e0bff807 	ldb	r2,-32(fp)
 1001cd8:	108008d8 	cmpnei	r2,r2,35
 1001cdc:	10000c1e 	bne	r2,zero,1001d10 <sd_read_level+0x8c>
			if(VERBOSE) printf("entered comment\n");
			while(1){
				byte = sd_readbyte(handle);
 1001ce0:	e13ff88f 	ldh	r4,-30(fp)
 1001ce4:	10015f00 	call	10015f0 <sd_readbyte>
 1001ce8:	e0bff40d 	sth	r2,-48(fp)
				temp = byte;
 1001cec:	e0bff40b 	ldhu	r2,-48(fp)
 1001cf0:	e0bff805 	stb	r2,-32(fp)
				if(VERBOSE) printf("read:%i char:%c\n", byte, temp);
				if( temp == '\n' || byte < 0 ) break;
 1001cf4:	e0bff807 	ldb	r2,-32(fp)
 1001cf8:	108002a0 	cmpeqi	r2,r2,10
 1001cfc:	103fed1e 	bne	r2,zero,1001cb4 <sd_read_level+0x30>
 1001d00:	e0bff40f 	ldh	r2,-48(fp)
 1001d04:	1004803a 	cmplt	r2,r2,zero
 1001d08:	103fea1e 	bne	r2,zero,1001cb4 <sd_read_level+0x30>
			}
 1001d0c:	003ff406 	br	1001ce0 <sd_read_level+0x5c>
			if(VERBOSE) printf("exited \n");
		}else if(temp == '\n' || temp == ' ' || temp == 13 /*carriage return*/){
 1001d10:	e0bff807 	ldb	r2,-32(fp)
 1001d14:	108002a0 	cmpeqi	r2,r2,10
 1001d18:	103fe61e 	bne	r2,zero,1001cb4 <sd_read_level+0x30>
 1001d1c:	e0bff807 	ldb	r2,-32(fp)
 1001d20:	10800820 	cmpeqi	r2,r2,32
 1001d24:	103fe31e 	bne	r2,zero,1001cb4 <sd_read_level+0x30>
 1001d28:	e0bff807 	ldb	r2,-32(fp)
 1001d2c:	10800358 	cmpnei	r2,r2,13
 1001d30:	1000011e 	bne	r2,zero,1001d38 <sd_read_level+0xb4>
 1001d34:	003fdf06 	br	1001cb4 <sd_read_level+0x30>
			if(VERBOSE) printf("ENTERED do nothing\n");
			//do nothing
		}else {
			if(VERBOSE) printf("ENTERED READ: \n");

			read_index = 0;
 1001d38:	e03ff715 	stw	zero,-36(fp)
			read[read_index++] = temp;
 1001d3c:	e0fff717 	ldw	r3,-36(fp)
 1001d40:	e0bff904 	addi	r2,fp,-28
 1001d44:	10c7883a 	add	r3,r2,r3
 1001d48:	e0bff803 	ldbu	r2,-32(fp)
 1001d4c:	18800005 	stb	r2,0(r3)
 1001d50:	e0bff717 	ldw	r2,-36(fp)
 1001d54:	10800044 	addi	r2,r2,1
 1001d58:	e0bff715 	stw	r2,-36(fp)

			for(i = 0; i < 6; i++) {
 1001d5c:	e03ff615 	stw	zero,-40(fp)
 1001d60:	00007b06 	br	1001f50 <sd_read_level+0x2cc>

				while(1){
					byte = sd_readbyte(handle);
 1001d64:	e13ff88f 	ldh	r4,-30(fp)
 1001d68:	10015f00 	call	10015f0 <sd_readbyte>
 1001d6c:	e0bff40d 	sth	r2,-48(fp)
					temp = byte;
 1001d70:	e0bff40b 	ldhu	r2,-48(fp)
 1001d74:	e0bff805 	stb	r2,-32(fp)

					read[read_index] = byte;
 1001d78:	e13ff717 	ldw	r4,-36(fp)
 1001d7c:	e0bff40b 	ldhu	r2,-48(fp)
 1001d80:	1007883a 	mov	r3,r2
 1001d84:	e0bff904 	addi	r2,fp,-28
 1001d88:	1105883a 	add	r2,r2,r4
 1001d8c:	10c00005 	stb	r3,0(r2)

					if(VERBOSE) printf("read:%i char:%c\n", byte, temp);

					if( temp == ' ' || temp == '\n' || byte < 0 ){
 1001d90:	e0bff807 	ldb	r2,-32(fp)
 1001d94:	10800820 	cmpeqi	r2,r2,32
 1001d98:	1000061e 	bne	r2,zero,1001db4 <sd_read_level+0x130>
 1001d9c:	e0bff807 	ldb	r2,-32(fp)
 1001da0:	108002a0 	cmpeqi	r2,r2,10
 1001da4:	1000031e 	bne	r2,zero,1001db4 <sd_read_level+0x130>
 1001da8:	e0bff40f 	ldh	r2,-48(fp)
 1001dac:	1004403a 	cmpge	r2,r2,zero
 1001db0:	10000a1e 	bne	r2,zero,1001ddc <sd_read_level+0x158>
						read[read_index] = '\0';
 1001db4:	e0fff717 	ldw	r3,-36(fp)
 1001db8:	e0bff904 	addi	r2,fp,-28
 1001dbc:	10c5883a 	add	r2,r2,r3
 1001dc0:	10000005 	stb	zero,0(r2)

						if( read_index != 0)
 1001dc4:	e0bff717 	ldw	r2,-36(fp)
 1001dc8:	1004c03a 	cmpne	r2,r2,zero
 1001dcc:	1000071e 	bne	r2,zero,1001dec <sd_read_level+0x168>
							break;
						read_index--; //eat whitespace
 1001dd0:	e0bff717 	ldw	r2,-36(fp)
 1001dd4:	10bfffc4 	addi	r2,r2,-1
 1001dd8:	e0bff715 	stw	r2,-36(fp)
					}
					read_index++;
 1001ddc:	e0bff717 	ldw	r2,-36(fp)
 1001de0:	10800044 	addi	r2,r2,1
 1001de4:	e0bff715 	stw	r2,-36(fp)
				}
 1001de8:	003fde06 	br	1001d64 <sd_read_level+0xe0>
				if( i == 0 )
 1001dec:	e0bff617 	ldw	r2,-40(fp)
 1001df0:	1004c03a 	cmpne	r2,r2,zero
 1001df4:	10000e1e 	bne	r2,zero,1001e30 <sd_read_level+0x1ac>
					l->wait_time[obj_index] = ((unsigned int)atoi((const char*)read)) * ((unsigned int)5000000);
 1001df8:	e43ff517 	ldw	r16,-44(fp)
 1001dfc:	e13ff904 	addi	r4,fp,-28
 1001e00:	10042680 	call	1004268 <atoi>
 1001e04:	1007883a 	mov	r3,r2
 1001e08:	00801334 	movhi	r2,76
 1001e0c:	1092d004 	addi	r2,r2,19264
 1001e10:	1889383a 	mul	r4,r3,r2
 1001e14:	e0ffff17 	ldw	r3,-4(fp)
 1001e18:	8405883a 	add	r2,r16,r16
 1001e1c:	1085883a 	add	r2,r2,r2
 1001e20:	10c5883a 	add	r2,r2,r3
 1001e24:	10819004 	addi	r2,r2,1600
 1001e28:	11000015 	stw	r4,0(r2)
 1001e2c:	00004406 	br	1001f40 <sd_read_level+0x2bc>
				else if( i == 1 )
 1001e30:	e0bff617 	ldw	r2,-40(fp)
 1001e34:	10800058 	cmpnei	r2,r2,1
 1001e38:	10000a1e 	bne	r2,zero,1001e64 <sd_read_level+0x1e0>
					l->obj_type[obj_index] = atoi((const char*)read);
 1001e3c:	e43ff517 	ldw	r16,-44(fp)
 1001e40:	e13ff904 	addi	r4,fp,-28
 1001e44:	10042680 	call	1004268 <atoi>
 1001e48:	1009883a 	mov	r4,r2
 1001e4c:	e0ffff17 	ldw	r3,-4(fp)
 1001e50:	8405883a 	add	r2,r16,r16
 1001e54:	1085883a 	add	r2,r2,r2
 1001e58:	10c5883a 	add	r2,r2,r3
 1001e5c:	11000015 	stw	r4,0(r2)
 1001e60:	00003706 	br	1001f40 <sd_read_level+0x2bc>
				else if( i == 2 )
 1001e64:	e0bff617 	ldw	r2,-40(fp)
 1001e68:	10800098 	cmpnei	r2,r2,2
 1001e6c:	10000b1e 	bne	r2,zero,1001e9c <sd_read_level+0x218>
					l->height[obj_index] = atoi((const char*)read);
 1001e70:	e43ff517 	ldw	r16,-44(fp)
 1001e74:	e13ff904 	addi	r4,fp,-28
 1001e78:	10042680 	call	1004268 <atoi>
 1001e7c:	1009883a 	mov	r4,r2
 1001e80:	e0ffff17 	ldw	r3,-4(fp)
 1001e84:	8405883a 	add	r2,r16,r16
 1001e88:	1085883a 	add	r2,r2,r2
 1001e8c:	10c5883a 	add	r2,r2,r3
 1001e90:	10832004 	addi	r2,r2,3200
 1001e94:	11000015 	stw	r4,0(r2)
 1001e98:	00002906 	br	1001f40 <sd_read_level+0x2bc>
				else if( i == 3 )
 1001e9c:	e0bff617 	ldw	r2,-40(fp)
 1001ea0:	108000d8 	cmpnei	r2,r2,3
 1001ea4:	10000b1e 	bne	r2,zero,1001ed4 <sd_read_level+0x250>
					l->x[obj_index] = atoi((const char*)read);
 1001ea8:	e43ff517 	ldw	r16,-44(fp)
 1001eac:	e13ff904 	addi	r4,fp,-28
 1001eb0:	10042680 	call	1004268 <atoi>
 1001eb4:	1009883a 	mov	r4,r2
 1001eb8:	e0ffff17 	ldw	r3,-4(fp)
 1001ebc:	8405883a 	add	r2,r16,r16
 1001ec0:	1085883a 	add	r2,r2,r2
 1001ec4:	10c5883a 	add	r2,r2,r3
 1001ec8:	1084b004 	addi	r2,r2,4800
 1001ecc:	11000015 	stw	r4,0(r2)
 1001ed0:	00001b06 	br	1001f40 <sd_read_level+0x2bc>
				else if( i == 4 )
 1001ed4:	e0bff617 	ldw	r2,-40(fp)
 1001ed8:	10800118 	cmpnei	r2,r2,4
 1001edc:	10000b1e 	bne	r2,zero,1001f0c <sd_read_level+0x288>
					l->y[obj_index] = atoi((const char*)read);
 1001ee0:	e43ff517 	ldw	r16,-44(fp)
 1001ee4:	e13ff904 	addi	r4,fp,-28
 1001ee8:	10042680 	call	1004268 <atoi>
 1001eec:	1009883a 	mov	r4,r2
 1001ef0:	e0ffff17 	ldw	r3,-4(fp)
 1001ef4:	8405883a 	add	r2,r16,r16
 1001ef8:	1085883a 	add	r2,r2,r2
 1001efc:	10c5883a 	add	r2,r2,r3
 1001f00:	10864004 	addi	r2,r2,6400
 1001f04:	11000015 	stw	r4,0(r2)
 1001f08:	00000d06 	br	1001f40 <sd_read_level+0x2bc>
				else if( i == 5)
 1001f0c:	e0bff617 	ldw	r2,-40(fp)
 1001f10:	10800158 	cmpnei	r2,r2,5
 1001f14:	10000a1e 	bne	r2,zero,1001f40 <sd_read_level+0x2bc>
					l->color[obj_index] = atoi((const char*)read);
 1001f18:	e43ff517 	ldw	r16,-44(fp)
 1001f1c:	e13ff904 	addi	r4,fp,-28
 1001f20:	10042680 	call	1004268 <atoi>
 1001f24:	1009883a 	mov	r4,r2
 1001f28:	e0ffff17 	ldw	r3,-4(fp)
 1001f2c:	8405883a 	add	r2,r16,r16
 1001f30:	1085883a 	add	r2,r2,r2
 1001f34:	10c5883a 	add	r2,r2,r3
 1001f38:	1087d004 	addi	r2,r2,8000
 1001f3c:	11000015 	stw	r4,0(r2)

				read_index = 0;
 1001f40:	e03ff715 	stw	zero,-36(fp)
			if(VERBOSE) printf("ENTERED READ: \n");

			read_index = 0;
			read[read_index++] = temp;

			for(i = 0; i < 6; i++) {
 1001f44:	e0bff617 	ldw	r2,-40(fp)
 1001f48:	10800044 	addi	r2,r2,1
 1001f4c:	e0bff615 	stw	r2,-40(fp)
 1001f50:	e0bff617 	ldw	r2,-40(fp)
 1001f54:	10800190 	cmplti	r2,r2,6
 1001f58:	103f821e 	bne	r2,zero,1001d64 <sd_read_level+0xe0>
				else if( i == 5)
					l->color[obj_index] = atoi((const char*)read);

				read_index = 0;
			}
			obj_index++;
 1001f5c:	e0bff517 	ldw	r2,-44(fp)
 1001f60:	10800044 	addi	r2,r2,1
 1001f64:	e0bff515 	stw	r2,-44(fp)
			if(VERBOSE) printf("exited \n");
		}
	}
 1001f68:	003f5206 	br	1001cb4 <sd_read_level+0x30>
	if(VERBOSE) printf("function exited\n");

	l->obj_index = 0;
 1001f6c:	e0bfff17 	ldw	r2,-4(fp)
 1001f70:	10096115 	stw	zero,9604(r2)
	l->size = obj_index;
 1001f74:	e0ffff17 	ldw	r3,-4(fp)
 1001f78:	e0bff517 	ldw	r2,-44(fp)
 1001f7c:	18896015 	stw	r2,9600(r3)

	int m;
	for(m=0;m<obj_index;m++){
 1001f80:	e03ff315 	stw	zero,-52(fp)
 1001f84:	00002a06 	br	1002030 <sd_read_level+0x3ac>
		printf("%i %i %i %i %i\n",l->wait_time[m],l->obj_type[m],l->height[m],l->x[m],l->y[m]);
 1001f88:	e0bff317 	ldw	r2,-52(fp)
 1001f8c:	e0ffff17 	ldw	r3,-4(fp)
 1001f90:	1085883a 	add	r2,r2,r2
 1001f94:	1085883a 	add	r2,r2,r2
 1001f98:	10c5883a 	add	r2,r2,r3
 1001f9c:	10819004 	addi	r2,r2,1600
 1001fa0:	11400017 	ldw	r5,0(r2)
 1001fa4:	e0bff317 	ldw	r2,-52(fp)
 1001fa8:	e0ffff17 	ldw	r3,-4(fp)
 1001fac:	1085883a 	add	r2,r2,r2
 1001fb0:	1085883a 	add	r2,r2,r2
 1001fb4:	10c5883a 	add	r2,r2,r3
 1001fb8:	11800017 	ldw	r6,0(r2)
 1001fbc:	e0bff317 	ldw	r2,-52(fp)
 1001fc0:	e0ffff17 	ldw	r3,-4(fp)
 1001fc4:	1085883a 	add	r2,r2,r2
 1001fc8:	1085883a 	add	r2,r2,r2
 1001fcc:	10c5883a 	add	r2,r2,r3
 1001fd0:	10832004 	addi	r2,r2,3200
 1001fd4:	11c00017 	ldw	r7,0(r2)
 1001fd8:	e0bff317 	ldw	r2,-52(fp)
 1001fdc:	e0ffff17 	ldw	r3,-4(fp)
 1001fe0:	1085883a 	add	r2,r2,r2
 1001fe4:	1085883a 	add	r2,r2,r2
 1001fe8:	10c5883a 	add	r2,r2,r3
 1001fec:	1084b004 	addi	r2,r2,4800
 1001ff0:	11000017 	ldw	r4,0(r2)
 1001ff4:	e0bff317 	ldw	r2,-52(fp)
 1001ff8:	e0ffff17 	ldw	r3,-4(fp)
 1001ffc:	1085883a 	add	r2,r2,r2
 1002000:	1085883a 	add	r2,r2,r2
 1002004:	10c5883a 	add	r2,r2,r3
 1002008:	10864004 	addi	r2,r2,6400
 100200c:	10800017 	ldw	r2,0(r2)
 1002010:	d9000015 	stw	r4,0(sp)
 1002014:	d8800115 	stw	r2,4(sp)
 1002018:	010040b4 	movhi	r4,258
 100201c:	2120fd04 	addi	r4,r4,-31756
 1002020:	10049dc0 	call	10049dc <printf>

	l->obj_index = 0;
	l->size = obj_index;

	int m;
	for(m=0;m<obj_index;m++){
 1002024:	e0bff317 	ldw	r2,-52(fp)
 1002028:	10800044 	addi	r2,r2,1
 100202c:	e0bff315 	stw	r2,-52(fp)
 1002030:	e0fff317 	ldw	r3,-52(fp)
 1002034:	e0bff517 	ldw	r2,-44(fp)
 1002038:	18bfd316 	blt	r3,r2,1001f88 <sd_read_level+0x304>
		printf("%i %i %i %i %i\n",l->wait_time[m],l->obj_type[m],l->height[m],l->x[m],l->y[m]);
	}

	printf("size: %i\n",obj_index);
 100203c:	010040b4 	movhi	r4,258
 1002040:	21210104 	addi	r4,r4,-31740
 1002044:	e17ff517 	ldw	r5,-44(fp)
 1002048:	10049dc0 	call	10049dc <printf>

	sd_fclose(handle);
 100204c:	e13ff88f 	ldh	r4,-30(fp)
 1002050:	10015c00 	call	10015c0 <sd_fclose>
}
 1002054:	e037883a 	mov	sp,fp
 1002058:	dfc00217 	ldw	ra,8(sp)
 100205c:	df000117 	ldw	fp,4(sp)
 1002060:	dc000017 	ldw	r16,0(sp)
 1002064:	dec00304 	addi	sp,sp,12
 1002068:	f800283a 	ret

0100206c <sd_read_players>:

void sd_read_players(char* filename, player_data* p, int num_level ) {
 100206c:	deffee04 	addi	sp,sp,-72
 1002070:	dfc01115 	stw	ra,68(sp)
 1002074:	df001015 	stw	fp,64(sp)
 1002078:	dc400f15 	stw	r17,60(sp)
 100207c:	dc000e15 	stw	r16,56(sp)
 1002080:	df000e04 	addi	fp,sp,56
 1002084:	e13ffd15 	stw	r4,-12(fp)
 1002088:	e17ffe15 	stw	r5,-8(fp)
 100208c:	e1bfff15 	stw	r6,-4(fp)

	sdf handle = sd_fopen(filename);
 1002090:	e13ffd17 	ldw	r4,-12(fp)
 1002094:	10015800 	call	1001580 <sd_fopen>
 1002098:	e0bff80d 	sth	r2,-32(fp)
	char read[MAX_NAME_LENGTH + 1];

	char temp;
	short int byte;

	int player_index = 0;
 100209c:	e03ff615 	stw	zero,-40(fp)
	int score_index = 0;
 10020a0:	e03ff515 	stw	zero,-44(fp)
	int read_index = 0;
 10020a4:	e03ff415 	stw	zero,-48(fp)
 10020a8:	00000006 	br	10020ac <sd_read_players+0x40>
	int i;

	while(1) {
		byte = sd_readbyte(handle);
 10020ac:	e13ff80f 	ldh	r4,-32(fp)
 10020b0:	10015f00 	call	10015f0 <sd_readbyte>
 10020b4:	e0bff70d 	sth	r2,-36(fp)
		temp = byte;
 10020b8:	e0bff70b 	ldhu	r2,-36(fp)
 10020bc:	e0bff785 	stb	r2,-34(fp)

		if(VERBOSE) printf("read:%i char:%c\n", byte, temp);

		if( byte < 0 || temp == ';' )
 10020c0:	e0bff70f 	ldh	r2,-36(fp)
 10020c4:	1004803a 	cmplt	r2,r2,zero
 10020c8:	1000801e 	bne	r2,zero,10022cc <sd_read_players+0x260>
 10020cc:	e0bff787 	ldb	r2,-34(fp)
 10020d0:	10800ee0 	cmpeqi	r2,r2,59
 10020d4:	10007d1e 	bne	r2,zero,10022cc <sd_read_players+0x260>
			break; //EOF
		else if(temp == '#') { //comment line; ignore
 10020d8:	e0bff787 	ldb	r2,-34(fp)
 10020dc:	108008d8 	cmpnei	r2,r2,35
 10020e0:	10000c1e 	bne	r2,zero,1002114 <sd_read_players+0xa8>
			if(VERBOSE) printf("entered comment\n");
			while(1){
				byte = sd_readbyte(handle);
 10020e4:	e13ff80f 	ldh	r4,-32(fp)
 10020e8:	10015f00 	call	10015f0 <sd_readbyte>
 10020ec:	e0bff70d 	sth	r2,-36(fp)
				temp = byte;
 10020f0:	e0bff70b 	ldhu	r2,-36(fp)
 10020f4:	e0bff785 	stb	r2,-34(fp)
				if(VERBOSE) printf("read:%i char:%c\n", byte, temp);
				if( temp == '\n' || byte < 0 ) break;
 10020f8:	e0bff787 	ldb	r2,-34(fp)
 10020fc:	108002a0 	cmpeqi	r2,r2,10
 1002100:	103fea1e 	bne	r2,zero,10020ac <sd_read_players+0x40>
 1002104:	e0bff70f 	ldh	r2,-36(fp)
 1002108:	1004803a 	cmplt	r2,r2,zero
 100210c:	103fe71e 	bne	r2,zero,10020ac <sd_read_players+0x40>
			}
 1002110:	003ff406 	br	10020e4 <sd_read_players+0x78>
			if(VERBOSE) printf("exited \n");
		}else if(temp == '\n' || temp == ' ' || temp == 13 /*carriage return*/){
 1002114:	e0bff787 	ldb	r2,-34(fp)
 1002118:	108002a0 	cmpeqi	r2,r2,10
 100211c:	103fe31e 	bne	r2,zero,10020ac <sd_read_players+0x40>
 1002120:	e0bff787 	ldb	r2,-34(fp)
 1002124:	10800820 	cmpeqi	r2,r2,32
 1002128:	103fe01e 	bne	r2,zero,10020ac <sd_read_players+0x40>
 100212c:	e0bff787 	ldb	r2,-34(fp)
 1002130:	10800358 	cmpnei	r2,r2,13
 1002134:	1000011e 	bne	r2,zero,100213c <sd_read_players+0xd0>
 1002138:	003fdc06 	br	10020ac <sd_read_players+0x40>
			if(VERBOSE) printf("ENTERED do nothing\n");
			//do nothing
		}else {
			if(VERBOSE) printf("ENTERED READ: \n");

			read_index = 0;
 100213c:	e03ff415 	stw	zero,-48(fp)
			read[read_index++] = temp;
 1002140:	e0fff417 	ldw	r3,-48(fp)
 1002144:	e0bff884 	addi	r2,fp,-30
 1002148:	10c7883a 	add	r3,r2,r3
 100214c:	e0bff783 	ldbu	r2,-34(fp)
 1002150:	18800005 	stb	r2,0(r3)
 1002154:	e0bff417 	ldw	r2,-48(fp)
 1002158:	10800044 	addi	r2,r2,1
 100215c:	e0bff415 	stw	r2,-48(fp)

			for(i = 0; i < num_level + 1; i++) {
 1002160:	e03ff315 	stw	zero,-52(fp)
 1002164:	00005006 	br	10022a8 <sd_read_players+0x23c>

				//this reads data until we hit a space
				while(1){
					byte = sd_readbyte(handle);
 1002168:	e13ff80f 	ldh	r4,-32(fp)
 100216c:	10015f00 	call	10015f0 <sd_readbyte>
 1002170:	e0bff70d 	sth	r2,-36(fp)
					temp = byte;
 1002174:	e0bff70b 	ldhu	r2,-36(fp)
 1002178:	e0bff785 	stb	r2,-34(fp)

					read[read_index] = byte;
 100217c:	e13ff417 	ldw	r4,-48(fp)
 1002180:	e0bff70b 	ldhu	r2,-36(fp)
 1002184:	1007883a 	mov	r3,r2
 1002188:	e0bff884 	addi	r2,fp,-30
 100218c:	1105883a 	add	r2,r2,r4
 1002190:	10c00005 	stb	r3,0(r2)

					if(VERBOSE) printf("read:%i char:%c\n", byte, temp);

					if( temp == ' ' || temp == '\n' || temp == ';' || byte < 0 ){
 1002194:	e0bff787 	ldb	r2,-34(fp)
 1002198:	10800820 	cmpeqi	r2,r2,32
 100219c:	1000091e 	bne	r2,zero,10021c4 <sd_read_players+0x158>
 10021a0:	e0bff787 	ldb	r2,-34(fp)
 10021a4:	108002a0 	cmpeqi	r2,r2,10
 10021a8:	1000061e 	bne	r2,zero,10021c4 <sd_read_players+0x158>
 10021ac:	e0bff787 	ldb	r2,-34(fp)
 10021b0:	10800ee0 	cmpeqi	r2,r2,59
 10021b4:	1000031e 	bne	r2,zero,10021c4 <sd_read_players+0x158>
 10021b8:	e0bff70f 	ldh	r2,-36(fp)
 10021bc:	1004403a 	cmpge	r2,r2,zero
 10021c0:	10000a1e 	bne	r2,zero,10021ec <sd_read_players+0x180>
						read[read_index] = '\0';
 10021c4:	e0fff417 	ldw	r3,-48(fp)
 10021c8:	e0bff884 	addi	r2,fp,-30
 10021cc:	10c5883a 	add	r2,r2,r3
 10021d0:	10000005 	stb	zero,0(r2)

						if( read_index != 0)
 10021d4:	e0bff417 	ldw	r2,-48(fp)
 10021d8:	1004c03a 	cmpne	r2,r2,zero
 10021dc:	1000071e 	bne	r2,zero,10021fc <sd_read_players+0x190>
							break;
						read_index--; //eat whitespace
 10021e0:	e0bff417 	ldw	r2,-48(fp)
 10021e4:	10bfffc4 	addi	r2,r2,-1
 10021e8:	e0bff415 	stw	r2,-48(fp)
					}
					read_index++;
 10021ec:	e0bff417 	ldw	r2,-48(fp)
 10021f0:	10800044 	addi	r2,r2,1
 10021f4:	e0bff415 	stw	r2,-48(fp)
				}
 10021f8:	003fdb06 	br	1002168 <sd_read_players+0xfc>

				//converts data into the right format
				if( i == 0 ) {
 10021fc:	e0bff317 	ldw	r2,-52(fp)
 1002200:	1004c03a 	cmpne	r2,r2,zero
 1002204:	1000141e 	bne	r2,zero,1002258 <sd_read_players+0x1ec>
					int j;
					for(j = 0; j < MAX_NAME_LENGTH + 1; j++) {
 1002208:	e03ff215 	stw	zero,-56(fp)
 100220c:	00000e06 	br	1002248 <sd_read_players+0x1dc>
						p->names[player_index][j] = read[j];
 1002210:	e17ff617 	ldw	r5,-40(fp)
 1002214:	e1bff217 	ldw	r6,-56(fp)
 1002218:	e0fff217 	ldw	r3,-56(fp)
 100221c:	e0bff884 	addi	r2,fp,-30
 1002220:	10c5883a 	add	r2,r2,r3
 1002224:	11000003 	ldbu	r4,0(r2)
 1002228:	e0fffe17 	ldw	r3,-8(fp)
 100222c:	2804913a 	slli	r2,r5,4
 1002230:	10c5883a 	add	r2,r2,r3
 1002234:	1185883a 	add	r2,r2,r6
 1002238:	11000005 	stb	r4,0(r2)
				}

				//converts data into the right format
				if( i == 0 ) {
					int j;
					for(j = 0; j < MAX_NAME_LENGTH + 1; j++) {
 100223c:	e0bff217 	ldw	r2,-56(fp)
 1002240:	10800044 	addi	r2,r2,1
 1002244:	e0bff215 	stw	r2,-56(fp)
 1002248:	e0bff217 	ldw	r2,-56(fp)
 100224c:	10800410 	cmplti	r2,r2,16
 1002250:	103fef1e 	bne	r2,zero,1002210 <sd_read_players+0x1a4>
 1002254:	00001006 	br	1002298 <sd_read_players+0x22c>
						p->names[player_index][j] = read[j];
					}
				}else {
					p->scores[player_index][score_index] = atoi((const char*)read);
 1002258:	e43ff617 	ldw	r16,-40(fp)
 100225c:	e47ff517 	ldw	r17,-44(fp)
 1002260:	e13ff884 	addi	r4,fp,-30
 1002264:	10042680 	call	1004268 <atoi>
 1002268:	1009883a 	mov	r4,r2
 100226c:	e0fffe17 	ldw	r3,-8(fp)
 1002270:	808002a4 	muli	r2,r16,10
 1002274:	1445883a 	add	r2,r2,r17
 1002278:	1085883a 	add	r2,r2,r2
 100227c:	1085883a 	add	r2,r2,r2
 1002280:	10c5883a 	add	r2,r2,r3
 1002284:	10803c04 	addi	r2,r2,240
 1002288:	11000015 	stw	r4,0(r2)
					score_index++;
 100228c:	e0bff517 	ldw	r2,-44(fp)
 1002290:	10800044 	addi	r2,r2,1
 1002294:	e0bff515 	stw	r2,-44(fp)
				}

				read_index = 0;
 1002298:	e03ff415 	stw	zero,-48(fp)
			if(VERBOSE) printf("ENTERED READ: \n");

			read_index = 0;
			read[read_index++] = temp;

			for(i = 0; i < num_level + 1; i++) {
 100229c:	e0bff317 	ldw	r2,-52(fp)
 10022a0:	10800044 	addi	r2,r2,1
 10022a4:	e0bff315 	stw	r2,-52(fp)
 10022a8:	e0bfff17 	ldw	r2,-4(fp)
 10022ac:	10c00044 	addi	r3,r2,1
 10022b0:	e0bff317 	ldw	r2,-52(fp)
 10022b4:	10ffac16 	blt	r2,r3,1002168 <sd_read_players+0xfc>
					score_index++;
				}

				read_index = 0;
			}
			player_index++;
 10022b8:	e0bff617 	ldw	r2,-40(fp)
 10022bc:	10800044 	addi	r2,r2,1
 10022c0:	e0bff615 	stw	r2,-40(fp)
			score_index = 0;
 10022c4:	e03ff515 	stw	zero,-44(fp)
			if(VERBOSE) printf("exited \n");
		}
	}
 10022c8:	003f7806 	br	10020ac <sd_read_players+0x40>
	if(VERBOSE) printf("function exited\n");

	p->num_level = num_level;
 10022cc:	e0fffe17 	ldw	r3,-8(fp)
 10022d0:	e0bfff17 	ldw	r2,-4(fp)
 10022d4:	1880d315 	stw	r2,844(r3)
	p->num_player = player_index;
 10022d8:	e0fffe17 	ldw	r3,-8(fp)
 10022dc:	e0bff617 	ldw	r2,-40(fp)
 10022e0:	1880d215 	stw	r2,840(r3)

	sd_fclose(handle);
 10022e4:	e13ff80f 	ldh	r4,-32(fp)
 10022e8:	10015c00 	call	10015c0 <sd_fclose>
}
 10022ec:	e037883a 	mov	sp,fp
 10022f0:	dfc00317 	ldw	ra,12(sp)
 10022f4:	df000217 	ldw	fp,8(sp)
 10022f8:	dc400117 	ldw	r17,4(sp)
 10022fc:	dc000017 	ldw	r16,0(sp)
 1002300:	dec00404 	addi	sp,sp,16
 1002304:	f800283a 	ret

01002308 <sd_write_players>:

void sd_write_players(char* filename, player_data* p ) {
 1002308:	deffef04 	addi	sp,sp,-68
 100230c:	dfc01015 	stw	ra,64(sp)
 1002310:	df000f15 	stw	fp,60(sp)
 1002314:	df000f04 	addi	fp,sp,60
 1002318:	e13ffe15 	stw	r4,-8(fp)
 100231c:	e17fff15 	stw	r5,-4(fp)

	sdf handle = sd_fopen(filename);
 1002320:	e13ffe17 	ldw	r4,-8(fp)
 1002324:	10015800 	call	1001580 <sd_fopen>
 1002328:	e0bff60d 	sth	r2,-40(fp)


	int i,j,k,l;
	bool c;

	for(i=0; i < p->num_player; i++){
 100232c:	e03ff515 	stw	zero,-44(fp)
 1002330:	00005c06 	br	10024a4 <sd_write_players+0x19c>
		for(j = 0; p->names[i][j] != '\0'; j++) {
 1002334:	e03ff415 	stw	zero,-48(fp)
 1002338:	00001106 	br	1002380 <sd_write_players+0x78>
			c = alt_up_sd_card_write(handle, p->names[i][j]);
 100233c:	e1bff60f 	ldh	r6,-40(fp)
 1002340:	e0bff517 	ldw	r2,-44(fp)
 1002344:	e13ff417 	ldw	r4,-48(fp)
 1002348:	e0ffff17 	ldw	r3,-4(fp)
 100234c:	1004913a 	slli	r2,r2,4
 1002350:	10c5883a 	add	r2,r2,r3
 1002354:	1105883a 	add	r2,r2,r4
 1002358:	10800003 	ldbu	r2,0(r2)
 100235c:	11403fcc 	andi	r5,r2,255
 1002360:	2940201c 	xori	r5,r5,128
 1002364:	297fe004 	addi	r5,r5,-128
 1002368:	3009883a 	mov	r4,r6
 100236c:	101689c0 	call	101689c <alt_up_sd_card_write>
 1002370:	e0bff115 	stw	r2,-60(fp)

	int i,j,k,l;
	bool c;

	for(i=0; i < p->num_player; i++){
		for(j = 0; p->names[i][j] != '\0'; j++) {
 1002374:	e0bff417 	ldw	r2,-48(fp)
 1002378:	10800044 	addi	r2,r2,1
 100237c:	e0bff415 	stw	r2,-48(fp)
 1002380:	e0bff517 	ldw	r2,-44(fp)
 1002384:	e13ff417 	ldw	r4,-48(fp)
 1002388:	e0ffff17 	ldw	r3,-4(fp)
 100238c:	1004913a 	slli	r2,r2,4
 1002390:	10c5883a 	add	r2,r2,r3
 1002394:	1105883a 	add	r2,r2,r4
 1002398:	10800003 	ldbu	r2,0(r2)
 100239c:	10803fcc 	andi	r2,r2,255
 10023a0:	1080201c 	xori	r2,r2,128
 10023a4:	10bfe004 	addi	r2,r2,-128
 10023a8:	1004c03a 	cmpne	r2,r2,zero
 10023ac:	103fe31e 	bne	r2,zero,100233c <sd_write_players+0x34>
			c = alt_up_sd_card_write(handle, p->names[i][j]);
			if(c && VERBOSE) printf("write success\n");
			else if(VERBOSE) printf("write no\n");
		}
		alt_up_sd_card_write(handle, ' ');
 10023b0:	e13ff60f 	ldh	r4,-40(fp)
 10023b4:	01400804 	movi	r5,32
 10023b8:	101689c0 	call	101689c <alt_up_sd_card_write>

		for(k = 0; k < p->num_level; k++) {
 10023bc:	e03ff315 	stw	zero,-52(fp)
 10023c0:	00002b06 	br	1002470 <sd_write_players+0x168>
			sprintf(temp, "%i", p->scores[i][k]);
 10023c4:	e0bff517 	ldw	r2,-44(fp)
 10023c8:	e0fff317 	ldw	r3,-52(fp)
 10023cc:	e13fff17 	ldw	r4,-4(fp)
 10023d0:	108002a4 	muli	r2,r2,10
 10023d4:	10c5883a 	add	r2,r2,r3
 10023d8:	1085883a 	add	r2,r2,r2
 10023dc:	1085883a 	add	r2,r2,r2
 10023e0:	1105883a 	add	r2,r2,r4
 10023e4:	10803c04 	addi	r2,r2,240
 10023e8:	11800017 	ldw	r6,0(r2)
 10023ec:	e13ff684 	addi	r4,fp,-38
 10023f0:	014040b4 	movhi	r5,258
 10023f4:	29610404 	addi	r5,r5,-31728
 10023f8:	1004b9c0 	call	1004b9c <sprintf>

			for(l = 0; temp[l] != '\0'; l++) {
 10023fc:	e03ff215 	stw	zero,-56(fp)
 1002400:	00000c06 	br	1002434 <sd_write_players+0x12c>
				alt_up_sd_card_write(handle,temp[l]);
 1002404:	e13ff60f 	ldh	r4,-40(fp)
 1002408:	e0fff217 	ldw	r3,-56(fp)
 100240c:	e0bff684 	addi	r2,fp,-38
 1002410:	10c5883a 	add	r2,r2,r3
 1002414:	10800003 	ldbu	r2,0(r2)
 1002418:	11403fcc 	andi	r5,r2,255
 100241c:	2940201c 	xori	r5,r5,128
 1002420:	297fe004 	addi	r5,r5,-128
 1002424:	101689c0 	call	101689c <alt_up_sd_card_write>
		alt_up_sd_card_write(handle, ' ');

		for(k = 0; k < p->num_level; k++) {
			sprintf(temp, "%i", p->scores[i][k]);

			for(l = 0; temp[l] != '\0'; l++) {
 1002428:	e0bff217 	ldw	r2,-56(fp)
 100242c:	10800044 	addi	r2,r2,1
 1002430:	e0bff215 	stw	r2,-56(fp)
 1002434:	e0fff217 	ldw	r3,-56(fp)
 1002438:	e0bff684 	addi	r2,fp,-38
 100243c:	10c5883a 	add	r2,r2,r3
 1002440:	10800003 	ldbu	r2,0(r2)
 1002444:	10803fcc 	andi	r2,r2,255
 1002448:	1080201c 	xori	r2,r2,128
 100244c:	10bfe004 	addi	r2,r2,-128
 1002450:	1004c03a 	cmpne	r2,r2,zero
 1002454:	103feb1e 	bne	r2,zero,1002404 <sd_write_players+0xfc>
				alt_up_sd_card_write(handle,temp[l]);
			}
			alt_up_sd_card_write(handle, ' ');
 1002458:	e13ff60f 	ldh	r4,-40(fp)
 100245c:	01400804 	movi	r5,32
 1002460:	101689c0 	call	101689c <alt_up_sd_card_write>
			if(c && VERBOSE) printf("write success\n");
			else if(VERBOSE) printf("write no\n");
		}
		alt_up_sd_card_write(handle, ' ');

		for(k = 0; k < p->num_level; k++) {
 1002464:	e0bff317 	ldw	r2,-52(fp)
 1002468:	10800044 	addi	r2,r2,1
 100246c:	e0bff315 	stw	r2,-52(fp)
 1002470:	e0bfff17 	ldw	r2,-4(fp)
 1002474:	10c0d317 	ldw	r3,844(r2)
 1002478:	e0bff317 	ldw	r2,-52(fp)
 100247c:	10ffd116 	blt	r2,r3,10023c4 <sd_write_players+0xbc>
			for(l = 0; temp[l] != '\0'; l++) {
				alt_up_sd_card_write(handle,temp[l]);
			}
			alt_up_sd_card_write(handle, ' ');
		}
		alt_up_sd_card_write(handle, 13);
 1002480:	e13ff60f 	ldh	r4,-40(fp)
 1002484:	01400344 	movi	r5,13
 1002488:	101689c0 	call	101689c <alt_up_sd_card_write>
		alt_up_sd_card_write(handle, '\n');
 100248c:	e13ff60f 	ldh	r4,-40(fp)
 1002490:	01400284 	movi	r5,10
 1002494:	101689c0 	call	101689c <alt_up_sd_card_write>


	int i,j,k,l;
	bool c;

	for(i=0; i < p->num_player; i++){
 1002498:	e0bff517 	ldw	r2,-44(fp)
 100249c:	10800044 	addi	r2,r2,1
 10024a0:	e0bff515 	stw	r2,-44(fp)
 10024a4:	e0bfff17 	ldw	r2,-4(fp)
 10024a8:	10c0d217 	ldw	r3,840(r2)
 10024ac:	e0bff517 	ldw	r2,-44(fp)
 10024b0:	10ffa016 	blt	r2,r3,1002334 <sd_write_players+0x2c>
		}
		alt_up_sd_card_write(handle, 13);
		alt_up_sd_card_write(handle, '\n');
	}

	alt_up_sd_card_write(handle, ';');
 10024b4:	e13ff60f 	ldh	r4,-40(fp)
 10024b8:	01400ec4 	movi	r5,59
 10024bc:	101689c0 	call	101689c <alt_up_sd_card_write>
	while(sd_readbyte(handle) != -1); //seems to be some bug with the sd card
 10024c0:	e13ff60f 	ldh	r4,-40(fp)
 10024c4:	10015f00 	call	10015f0 <sd_readbyte>
 10024c8:	10bfffcc 	andi	r2,r2,65535
 10024cc:	10a0001c 	xori	r2,r2,32768
 10024d0:	10a00004 	addi	r2,r2,-32768
 10024d4:	10bfffd8 	cmpnei	r2,r2,-1
 10024d8:	103ff91e 	bne	r2,zero,10024c0 <sd_write_players+0x1b8>
	//lazy fix
	alt_up_sd_card_write(handle, ';');
 10024dc:	e13ff60f 	ldh	r4,-40(fp)
 10024e0:	01400ec4 	movi	r5,59
 10024e4:	101689c0 	call	101689c <alt_up_sd_card_write>

	sd_fclose(handle);
 10024e8:	e13ff60f 	ldh	r4,-40(fp)
 10024ec:	10015c00 	call	10015c0 <sd_fclose>
	if(VERBOSE) printf("write exited\n");
}
 10024f0:	e037883a 	mov	sp,fp
 10024f4:	dfc00117 	ldw	ra,4(sp)
 10024f8:	df000017 	ldw	fp,0(sp)
 10024fc:	dec00204 	addi	sp,sp,8
 1002500:	f800283a 	ret

01002504 <read_bmp>:

bmp* read_bmp(char* name) {
 1002504:	deffee04 	addi	sp,sp,-72
 1002508:	dfc01115 	stw	ra,68(sp)
 100250c:	df001015 	stw	fp,64(sp)
 1002510:	dc000f15 	stw	r16,60(sp)
 1002514:	df000f04 	addi	fp,sp,60
 1002518:	e13ffa15 	stw	r4,-24(fp)
 100251c:	e6ffff15 	stw	sp,-4(fp)
 1002520:	d805883a 	mov	r2,sp
 1002524:	e0bffb15 	stw	r2,-20(fp)

	//allocate the struct
	bmp* b = (bmp*)malloc(sizeof(bmp));
 1002528:	01000304 	movi	r4,12
 100252c:	10042880 	call	1004288 <malloc>
 1002530:	e0bff815 	stw	r2,-32(fp)

	//length of BMP header
	const int HEADER_END_ADDR = 0x1A;
 1002534:	00800684 	movi	r2,26
 1002538:	e0bff715 	stw	r2,-36(fp)

	//allocate header to be read in
	unsigned char bmp_header[HEADER_END_ADDR];
 100253c:	e0bff717 	ldw	r2,-36(fp)
 1002540:	108000c4 	addi	r2,r2,3
 1002544:	108000c4 	addi	r2,r2,3
 1002548:	1004d0ba 	srli	r2,r2,2
 100254c:	1085883a 	add	r2,r2,r2
 1002550:	1085883a 	add	r2,r2,r2
 1002554:	d8b7c83a 	sub	sp,sp,r2
 1002558:	e6fffc15 	stw	sp,-16(fp)
 100255c:	e0fffc17 	ldw	r3,-16(fp)
 1002560:	188000c4 	addi	r2,r3,3
 1002564:	1004d0ba 	srli	r2,r2,2
 1002568:	1085883a 	add	r2,r2,r2
 100256c:	1085883a 	add	r2,r2,r2
 1002570:	e0bffc15 	stw	r2,-16(fp)
 1002574:	e0bffc17 	ldw	r2,-16(fp)
 1002578:	e0bff915 	stw	r2,-28(fp)
	int i, j, k, offset;


	//open file
	sdf h = sd_fopen(name);
 100257c:	e13ffa17 	ldw	r4,-24(fp)
 1002580:	10015800 	call	1001580 <sd_fopen>
 1002584:	e0bff20d 	sth	r2,-56(fp)

redo:
	//read in header indo
	for(i = 0; i < HEADER_END_ADDR; i++) {
 1002588:	e03ff615 	stw	zero,-40(fp)
 100258c:	00000a06 	br	10025b8 <read_bmp+0xb4>
		bmp_header[i] = (unsigned char)sd_readbyte(h);
 1002590:	e43ff617 	ldw	r16,-40(fp)
 1002594:	e13ff20f 	ldh	r4,-56(fp)
 1002598:	10015f00 	call	10015f0 <sd_readbyte>
 100259c:	1007883a 	mov	r3,r2
 10025a0:	e0bff917 	ldw	r2,-28(fp)
 10025a4:	1405883a 	add	r2,r2,r16
 10025a8:	10c00005 	stb	r3,0(r2)
	//open file
	sdf h = sd_fopen(name);

redo:
	//read in header indo
	for(i = 0; i < HEADER_END_ADDR; i++) {
 10025ac:	e0bff617 	ldw	r2,-40(fp)
 10025b0:	10800044 	addi	r2,r2,1
 10025b4:	e0bff615 	stw	r2,-40(fp)
 10025b8:	e0fff617 	ldw	r3,-40(fp)
 10025bc:	e0bff717 	ldw	r2,-36(fp)
 10025c0:	18bff316 	blt	r3,r2,1002590 <read_bmp+0x8c>
	}
	if(V_VERBOSE) printf("\n");

	//PARSE HEADER
	//get the rest of offset
	offset = (int)*(unsigned short int*)(bmp_header+0xA);
 10025c4:	e0bff917 	ldw	r2,-28(fp)
 10025c8:	10800284 	addi	r2,r2,10
 10025cc:	1080000b 	ldhu	r2,0(r2)
 10025d0:	10bfffcc 	andi	r2,r2,65535
 10025d4:	e0bff315 	stw	r2,-52(fp)
	//get width (x)
	b->x = (int)*(unsigned short int*)(bmp_header+0x12);
 10025d8:	e0bff917 	ldw	r2,-28(fp)
 10025dc:	10800484 	addi	r2,r2,18
 10025e0:	1080000b 	ldhu	r2,0(r2)
 10025e4:	10ffffcc 	andi	r3,r2,65535
 10025e8:	e0bff817 	ldw	r2,-32(fp)
 10025ec:	10c00015 	stw	r3,0(r2)
	//get height (y)
	b->y = (int)*(unsigned short int*)(bmp_header+0x16);
 10025f0:	e0bff917 	ldw	r2,-28(fp)
 10025f4:	10800584 	addi	r2,r2,22
 10025f8:	1080000b 	ldhu	r2,0(r2)
 10025fc:	10ffffcc 	andi	r3,r2,65535
 1002600:	e0bff817 	ldw	r2,-32(fp)
 1002604:	10c00115 	stw	r3,4(r2)

	if( b->x > 2000 || b->y > 240 || b->x < 0 || b->y < 0 ){
 1002608:	e0bff817 	ldw	r2,-32(fp)
 100260c:	10800017 	ldw	r2,0(r2)
 1002610:	1081f448 	cmpgei	r2,r2,2001
 1002614:	10000c1e 	bne	r2,zero,1002648 <read_bmp+0x144>
 1002618:	e0bff817 	ldw	r2,-32(fp)
 100261c:	10800117 	ldw	r2,4(r2)
 1002620:	10803c48 	cmpgei	r2,r2,241
 1002624:	1000081e 	bne	r2,zero,1002648 <read_bmp+0x144>
 1002628:	e0bff817 	ldw	r2,-32(fp)
 100262c:	10800017 	ldw	r2,0(r2)
 1002630:	1004803a 	cmplt	r2,r2,zero
 1002634:	1000041e 	bne	r2,zero,1002648 <read_bmp+0x144>
 1002638:	e0bff817 	ldw	r2,-32(fp)
 100263c:	10800117 	ldw	r2,4(r2)
 1002640:	1004403a 	cmpge	r2,r2,zero
 1002644:	1000061e 	bne	r2,zero,1002660 <read_bmp+0x15c>
		sd_fclose(h);
 1002648:	e13ff20f 	ldh	r4,-56(fp)
 100264c:	10015c00 	call	10015c0 <sd_fclose>
		h = sd_fopen(name);
 1002650:	e13ffa17 	ldw	r4,-24(fp)
 1002654:	10015800 	call	1001580 <sd_fopen>
 1002658:	e0bff20d 	sth	r2,-56(fp)
		goto redo;
 100265c:	003fca06 	br	1002588 <read_bmp+0x84>
		printf("BMP ERROR!\n");
	}

	//calculate amount of data to discard after each row
	//as each row must be a multiple of 4 bytes
	k = (4 - ((3 * b->x) % 4)) % 4;
 1002660:	e0bff817 	ldw	r2,-32(fp)
 1002664:	10c00017 	ldw	r3,0(r2)
 1002668:	1805883a 	mov	r2,r3
 100266c:	1085883a 	add	r2,r2,r2
 1002670:	10c7883a 	add	r3,r2,r3
 1002674:	00a00034 	movhi	r2,32768
 1002678:	108000c4 	addi	r2,r2,3
 100267c:	1886703a 	and	r3,r3,r2
 1002680:	e0fffd15 	stw	r3,-12(fp)
 1002684:	e0fffd17 	ldw	r3,-12(fp)
 1002688:	1804403a 	cmpge	r2,r3,zero
 100268c:	10000a1e 	bne	r2,zero,10026b8 <read_bmp+0x1b4>
 1002690:	e0bffd17 	ldw	r2,-12(fp)
 1002694:	10bfffc4 	addi	r2,r2,-1
 1002698:	e0bffd15 	stw	r2,-12(fp)
 100269c:	00bfff04 	movi	r2,-4
 10026a0:	e0fffd17 	ldw	r3,-12(fp)
 10026a4:	1886b03a 	or	r3,r3,r2
 10026a8:	e0fffd15 	stw	r3,-12(fp)
 10026ac:	e0bffd17 	ldw	r2,-12(fp)
 10026b0:	10800044 	addi	r2,r2,1
 10026b4:	e0bffd15 	stw	r2,-12(fp)
 10026b8:	e0fffd17 	ldw	r3,-12(fp)
 10026bc:	00800104 	movi	r2,4
 10026c0:	10c7c83a 	sub	r3,r2,r3
 10026c4:	00a00034 	movhi	r2,32768
 10026c8:	108000c4 	addi	r2,r2,3
 10026cc:	1886703a 	and	r3,r3,r2
 10026d0:	e0fffe15 	stw	r3,-8(fp)
 10026d4:	e0fffe17 	ldw	r3,-8(fp)
 10026d8:	1804403a 	cmpge	r2,r3,zero
 10026dc:	10000a1e 	bne	r2,zero,1002708 <read_bmp+0x204>
 10026e0:	e0bffe17 	ldw	r2,-8(fp)
 10026e4:	10bfffc4 	addi	r2,r2,-1
 10026e8:	e0bffe15 	stw	r2,-8(fp)
 10026ec:	00bfff04 	movi	r2,-4
 10026f0:	e0fffe17 	ldw	r3,-8(fp)
 10026f4:	1886b03a 	or	r3,r3,r2
 10026f8:	e0fffe15 	stw	r3,-8(fp)
 10026fc:	e0bffe17 	ldw	r2,-8(fp)
 1002700:	10800044 	addi	r2,r2,1
 1002704:	e0bffe15 	stw	r2,-8(fp)
 1002708:	e0fffe17 	ldw	r3,-8(fp)
 100270c:	e0fff415 	stw	r3,-48(fp)

	if(V_VERBOSE) printf("offset: %X(in hex) width: %i height: %i pad: %i\n", offset,b->x,b->y,k);

	//allocate appropriate memory
	b->pic = (short int**)malloc(b->y*sizeof(short int*)); //y# of pointers
 1002710:	e0bff817 	ldw	r2,-32(fp)
 1002714:	10800117 	ldw	r2,4(r2)
 1002718:	1085883a 	add	r2,r2,r2
 100271c:	1085883a 	add	r2,r2,r2
 1002720:	1009883a 	mov	r4,r2
 1002724:	10042880 	call	1004288 <malloc>
 1002728:	1007883a 	mov	r3,r2
 100272c:	e0bff817 	ldw	r2,-32(fp)
 1002730:	10c00215 	stw	r3,8(r2)
	for(i = 0; i < b->y; i++) {
 1002734:	e03ff615 	stw	zero,-40(fp)
 1002738:	00000f06 	br	1002778 <read_bmp+0x274>
		b->pic[i] = (short int*)malloc(b->x*sizeof(short int));
 100273c:	e0bff817 	ldw	r2,-32(fp)
 1002740:	10c00217 	ldw	r3,8(r2)
 1002744:	e0bff617 	ldw	r2,-40(fp)
 1002748:	1085883a 	add	r2,r2,r2
 100274c:	1085883a 	add	r2,r2,r2
 1002750:	18a1883a 	add	r16,r3,r2
 1002754:	e0bff817 	ldw	r2,-32(fp)
 1002758:	10800017 	ldw	r2,0(r2)
 100275c:	1085883a 	add	r2,r2,r2
 1002760:	1009883a 	mov	r4,r2
 1002764:	10042880 	call	1004288 <malloc>
 1002768:	80800015 	stw	r2,0(r16)

	if(V_VERBOSE) printf("offset: %X(in hex) width: %i height: %i pad: %i\n", offset,b->x,b->y,k);

	//allocate appropriate memory
	b->pic = (short int**)malloc(b->y*sizeof(short int*)); //y# of pointers
	for(i = 0; i < b->y; i++) {
 100276c:	e0bff617 	ldw	r2,-40(fp)
 1002770:	10800044 	addi	r2,r2,1
 1002774:	e0bff615 	stw	r2,-40(fp)
 1002778:	e0bff817 	ldw	r2,-32(fp)
 100277c:	10c00117 	ldw	r3,4(r2)
 1002780:	e0bff617 	ldw	r2,-40(fp)
 1002784:	10ffed16 	blt	r2,r3,100273c <read_bmp+0x238>
		b->pic[i] = (short int*)malloc(b->x*sizeof(short int));
	}

	//discard the rest of the offset data
	for(i = HEADER_END_ADDR; i < offset; i++)
 1002788:	e0bff717 	ldw	r2,-36(fp)
 100278c:	e0bff615 	stw	r2,-40(fp)
 1002790:	00000506 	br	10027a8 <read_bmp+0x2a4>
		sd_readbyte(h);
 1002794:	e13ff20f 	ldh	r4,-56(fp)
 1002798:	10015f00 	call	10015f0 <sd_readbyte>
	for(i = 0; i < b->y; i++) {
		b->pic[i] = (short int*)malloc(b->x*sizeof(short int));
	}

	//discard the rest of the offset data
	for(i = HEADER_END_ADDR; i < offset; i++)
 100279c:	e0bff617 	ldw	r2,-40(fp)
 10027a0:	10800044 	addi	r2,r2,1
 10027a4:	e0bff615 	stw	r2,-40(fp)
 10027a8:	e0fff617 	ldw	r3,-40(fp)
 10027ac:	e0bff317 	ldw	r2,-52(fp)
 10027b0:	18bff816 	blt	r3,r2,1002794 <read_bmp+0x290>

	//temp data
	char red, green, blue;

	//reading bmp data
	for(i = b->y - 1; i >= 0; i--) { //reverse the image to the correct orientation
 10027b4:	e0bff817 	ldw	r2,-32(fp)
 10027b8:	10800117 	ldw	r2,4(r2)
 10027bc:	10bfffc4 	addi	r2,r2,-1
 10027c0:	e0bff615 	stw	r2,-40(fp)
 10027c4:	00003a06 	br	10028b0 <read_bmp+0x3ac>
		for(j = 0; j < b->x; j++) {
 10027c8:	e03ff515 	stw	zero,-44(fp)
 10027cc:	00002706 	br	100286c <read_bmp+0x368>

			blue = sd_readbyte(h); //blue
 10027d0:	e13ff20f 	ldh	r4,-56(fp)
 10027d4:	10015f00 	call	10015f0 <sd_readbyte>
 10027d8:	e0bff105 	stb	r2,-60(fp)
			green = sd_readbyte(h); //green
 10027dc:	e13ff20f 	ldh	r4,-56(fp)
 10027e0:	10015f00 	call	10015f0 <sd_readbyte>
 10027e4:	e0bff145 	stb	r2,-59(fp)
			red = sd_readbyte(h); //red
 10027e8:	e13ff20f 	ldh	r4,-56(fp)
 10027ec:	10015f00 	call	10015f0 <sd_readbyte>
 10027f0:	e0bff185 	stb	r2,-58(fp)

			b->pic[i][j] = ((short int)(red&0xf8)<<8)|((short int)(green&0xfc)<<3)|((short int)(blue&0xf8)>>3);
 10027f4:	e0bff817 	ldw	r2,-32(fp)
 10027f8:	10c00217 	ldw	r3,8(r2)
 10027fc:	e0bff617 	ldw	r2,-40(fp)
 1002800:	1085883a 	add	r2,r2,r2
 1002804:	1085883a 	add	r2,r2,r2
 1002808:	1885883a 	add	r2,r3,r2
 100280c:	10c00017 	ldw	r3,0(r2)
 1002810:	e0bff517 	ldw	r2,-44(fp)
 1002814:	1085883a 	add	r2,r2,r2
 1002818:	1889883a 	add	r4,r3,r2
 100281c:	e0bff187 	ldb	r2,-58(fp)
 1002820:	10bfffcc 	andi	r2,r2,65535
 1002824:	10803e0c 	andi	r2,r2,248
 1002828:	1004923a 	slli	r2,r2,8
 100282c:	1007883a 	mov	r3,r2
 1002830:	e0bff147 	ldb	r2,-59(fp)
 1002834:	10bfffcc 	andi	r2,r2,65535
 1002838:	10803f0c 	andi	r2,r2,252
 100283c:	100490fa 	slli	r2,r2,3
 1002840:	1884b03a 	or	r2,r3,r2
 1002844:	1007883a 	mov	r3,r2
 1002848:	e0bff107 	ldb	r2,-60(fp)
 100284c:	10bfffcc 	andi	r2,r2,65535
 1002850:	10803e0c 	andi	r2,r2,248
 1002854:	1005d0fa 	srai	r2,r2,3
 1002858:	1884b03a 	or	r2,r3,r2
 100285c:	2080000d 	sth	r2,0(r4)
	//temp data
	char red, green, blue;

	//reading bmp data
	for(i = b->y - 1; i >= 0; i--) { //reverse the image to the correct orientation
		for(j = 0; j < b->x; j++) {
 1002860:	e0bff517 	ldw	r2,-44(fp)
 1002864:	10800044 	addi	r2,r2,1
 1002868:	e0bff515 	stw	r2,-44(fp)
 100286c:	e0bff817 	ldw	r2,-32(fp)
 1002870:	10c00017 	ldw	r3,0(r2)
 1002874:	e0bff517 	ldw	r2,-44(fp)
 1002878:	10ffd516 	blt	r2,r3,10027d0 <read_bmp+0x2cc>
			red = sd_readbyte(h); //red

			b->pic[i][j] = ((short int)(red&0xf8)<<8)|((short int)(green&0xfc)<<3)|((short int)(blue&0xf8)>>3);
		}
		//discard additional (padding) data
		for(j = 0; j < k; j++) {
 100287c:	e03ff515 	stw	zero,-44(fp)
 1002880:	00000506 	br	1002898 <read_bmp+0x394>
			sd_readbyte(h);
 1002884:	e13ff20f 	ldh	r4,-56(fp)
 1002888:	10015f00 	call	10015f0 <sd_readbyte>
			red = sd_readbyte(h); //red

			b->pic[i][j] = ((short int)(red&0xf8)<<8)|((short int)(green&0xfc)<<3)|((short int)(blue&0xf8)>>3);
		}
		//discard additional (padding) data
		for(j = 0; j < k; j++) {
 100288c:	e0bff517 	ldw	r2,-44(fp)
 1002890:	10800044 	addi	r2,r2,1
 1002894:	e0bff515 	stw	r2,-44(fp)
 1002898:	e0fff517 	ldw	r3,-44(fp)
 100289c:	e0bff417 	ldw	r2,-48(fp)
 10028a0:	18bff816 	blt	r3,r2,1002884 <read_bmp+0x380>

	//temp data
	char red, green, blue;

	//reading bmp data
	for(i = b->y - 1; i >= 0; i--) { //reverse the image to the correct orientation
 10028a4:	e0bff617 	ldw	r2,-40(fp)
 10028a8:	10bfffc4 	addi	r2,r2,-1
 10028ac:	e0bff615 	stw	r2,-40(fp)
 10028b0:	e0bff617 	ldw	r2,-40(fp)
 10028b4:	1004403a 	cmpge	r2,r2,zero
 10028b8:	103fc31e 	bne	r2,zero,10027c8 <read_bmp+0x2c4>
			sd_readbyte(h);
		}
	}

	//closes the file handle
	sd_fclose(h);
 10028bc:	e13ff20f 	ldh	r4,-56(fp)
 10028c0:	10015c00 	call	10015c0 <sd_fclose>

	return b;
 10028c4:	e0bff817 	ldw	r2,-32(fp)
 10028c8:	e6fffb17 	ldw	sp,-20(fp)
}
 10028cc:	e6ffff17 	ldw	sp,-4(fp)
 10028d0:	e037883a 	mov	sp,fp
 10028d4:	dfc00217 	ldw	ra,8(sp)
 10028d8:	df000117 	ldw	fp,4(sp)
 10028dc:	dc000017 	ldw	r16,0(sp)
 10028e0:	dec00304 	addi	sp,sp,12
 10028e4:	f800283a 	ret

010028e8 <free_bmp>:

//free bitmap memory
//untested
void free_bmp(bmp *b) {
 10028e8:	defffc04 	addi	sp,sp,-16
 10028ec:	dfc00315 	stw	ra,12(sp)
 10028f0:	df000215 	stw	fp,8(sp)
 10028f4:	df000204 	addi	fp,sp,8
 10028f8:	e13fff15 	stw	r4,-4(fp)
	int i;
	for(i = 0; i < b->y; i++) {
 10028fc:	e03ffe15 	stw	zero,-8(fp)
 1002900:	00000b06 	br	1002930 <free_bmp+0x48>
		free(b->pic[i]);
 1002904:	e0bfff17 	ldw	r2,-4(fp)
 1002908:	10c00217 	ldw	r3,8(r2)
 100290c:	e0bffe17 	ldw	r2,-8(fp)
 1002910:	1085883a 	add	r2,r2,r2
 1002914:	1085883a 	add	r2,r2,r2
 1002918:	1885883a 	add	r2,r3,r2
 100291c:	11000017 	ldw	r4,0(r2)
 1002920:	10042740 	call	1004274 <free>

//free bitmap memory
//untested
void free_bmp(bmp *b) {
	int i;
	for(i = 0; i < b->y; i++) {
 1002924:	e0bffe17 	ldw	r2,-8(fp)
 1002928:	10800044 	addi	r2,r2,1
 100292c:	e0bffe15 	stw	r2,-8(fp)
 1002930:	e0bfff17 	ldw	r2,-4(fp)
 1002934:	10c00117 	ldw	r3,4(r2)
 1002938:	e0bffe17 	ldw	r2,-8(fp)
 100293c:	10fff116 	blt	r2,r3,1002904 <free_bmp+0x1c>
		free(b->pic[i]);
	}
	free(b->pic);
 1002940:	e0bfff17 	ldw	r2,-4(fp)
 1002944:	11000217 	ldw	r4,8(r2)
 1002948:	10042740 	call	1004274 <free>
	free(b);
 100294c:	e13fff17 	ldw	r4,-4(fp)
 1002950:	10042740 	call	1004274 <free>
}
 1002954:	e037883a 	mov	sp,fp
 1002958:	dfc00117 	ldw	ra,4(sp)
 100295c:	df000017 	ldw	fp,0(sp)
 1002960:	dec00204 	addi	sp,sp,8
 1002964:	f800283a 	ret

01002968 <draw_bmp>:

//x & y are coordinate at the top left corner
//pure white (eg. 0xFFFF) are counted as invisible pixel
void draw_bmp(alt_up_pixel_buffer_dma_dev *pixel_buffer, int x, int y, bmp* b) {
 1002968:	defff304 	addi	sp,sp,-52
 100296c:	df000c15 	stw	fp,48(sp)
 1002970:	df000c04 	addi	fp,sp,48
 1002974:	e13ffc15 	stw	r4,-16(fp)
 1002978:	e17ffd15 	stw	r5,-12(fp)
 100297c:	e1bffe15 	stw	r6,-8(fp)
 1002980:	e1ffff15 	stw	r7,-4(fp)
	unsigned int i,j,k,l;
	unsigned int addr = pixel_buffer->back_buffer_start_address;
 1002984:	e0bffc17 	ldw	r2,-16(fp)
 1002988:	10800c17 	ldw	r2,48(r2)
 100298c:	e0bff715 	stw	r2,-36(fp)
	unsigned int limit_x = pixel_buffer->x_resolution;
 1002990:	e0bffc17 	ldw	r2,-16(fp)
 1002994:	10800f17 	ldw	r2,60(r2)
 1002998:	e0bff615 	stw	r2,-40(fp)
	short int** pic = b->pic;
 100299c:	e0bfff17 	ldw	r2,-4(fp)
 10029a0:	10800217 	ldw	r2,8(r2)
 10029a4:	e0bff515 	stw	r2,-44(fp)
	short int temp;

	//compute starting address in y
	limit_x = limit_x << 1;
 10029a8:	e0bff617 	ldw	r2,-40(fp)
 10029ac:	1085883a 	add	r2,r2,r2
 10029b0:	e0bff615 	stw	r2,-40(fp)
	addr += y * (limit_x);
 10029b4:	e0fffe17 	ldw	r3,-8(fp)
 10029b8:	e0bff617 	ldw	r2,-40(fp)
 10029bc:	1887383a 	mul	r3,r3,r2
 10029c0:	e0bff717 	ldw	r2,-36(fp)
 10029c4:	10c5883a 	add	r2,r2,r3
 10029c8:	e0bff715 	stw	r2,-36(fp)

	//if(V_VERBOSE) printf("start bmp draw\n");

	for(i = y, k = 0; i < y + b->y; i++, k++) {
 10029cc:	e0bffe17 	ldw	r2,-8(fp)
 10029d0:	e0bffb15 	stw	r2,-20(fp)
 10029d4:	e03ff915 	stw	zero,-28(fp)
 10029d8:	00003e06 	br	1002ad4 <draw_bmp+0x16c>
		for (j = x, l = 0; j < x + b->x; j++, l++)
 10029dc:	e0bffd17 	ldw	r2,-12(fp)
 10029e0:	e0bffa15 	stw	r2,-24(fp)
 10029e4:	e03ff815 	stw	zero,-32(fp)
 10029e8:	00002906 	br	1002a90 <draw_bmp+0x128>
		{
			//alternative pixel drawing function
			//alt_up_pixel_buffer_dma_draw(pixel_buffer, pic[k][l], l, k);

			//draw pixel
			temp = pic[k][l];
 10029ec:	e0bff917 	ldw	r2,-28(fp)
 10029f0:	1085883a 	add	r2,r2,r2
 10029f4:	1085883a 	add	r2,r2,r2
 10029f8:	1007883a 	mov	r3,r2
 10029fc:	e0bff517 	ldw	r2,-44(fp)
 1002a00:	1885883a 	add	r2,r3,r2
 1002a04:	10c00017 	ldw	r3,0(r2)
 1002a08:	e0bff817 	ldw	r2,-32(fp)
 1002a0c:	1085883a 	add	r2,r2,r2
 1002a10:	1885883a 	add	r2,r3,r2
 1002a14:	1080000b 	ldhu	r2,0(r2)
 1002a18:	e0bff40d 	sth	r2,-48(fp)
			if(pic[k][l] != 0x789) //if pure white, don't draw
 1002a1c:	e0bff917 	ldw	r2,-28(fp)
 1002a20:	1085883a 	add	r2,r2,r2
 1002a24:	1085883a 	add	r2,r2,r2
 1002a28:	1007883a 	mov	r3,r2
 1002a2c:	e0bff517 	ldw	r2,-44(fp)
 1002a30:	1885883a 	add	r2,r3,r2
 1002a34:	10c00017 	ldw	r3,0(r2)
 1002a38:	e0bff817 	ldw	r2,-32(fp)
 1002a3c:	1085883a 	add	r2,r2,r2
 1002a40:	1885883a 	add	r2,r3,r2
 1002a44:	1080000b 	ldhu	r2,0(r2)
 1002a48:	10bfffcc 	andi	r2,r2,65535
 1002a4c:	10a0001c 	xori	r2,r2,32768
 1002a50:	10a00004 	addi	r2,r2,-32768
 1002a54:	1081e260 	cmpeqi	r2,r2,1929
 1002a58:	1000071e 	bne	r2,zero,1002a78 <draw_bmp+0x110>
				IOWR_16DIRECT(addr, j << 1, temp);
 1002a5c:	e0bffa17 	ldw	r2,-24(fp)
 1002a60:	1085883a 	add	r2,r2,r2
 1002a64:	1007883a 	mov	r3,r2
 1002a68:	e0bff717 	ldw	r2,-36(fp)
 1002a6c:	1885883a 	add	r2,r3,r2
 1002a70:	e0fff40f 	ldh	r3,-48(fp)
 1002a74:	10c0002d 	sthio	r3,0(r2)
	addr += y * (limit_x);

	//if(V_VERBOSE) printf("start bmp draw\n");

	for(i = y, k = 0; i < y + b->y; i++, k++) {
		for (j = x, l = 0; j < x + b->x; j++, l++)
 1002a78:	e0bffa17 	ldw	r2,-24(fp)
 1002a7c:	10800044 	addi	r2,r2,1
 1002a80:	e0bffa15 	stw	r2,-24(fp)
 1002a84:	e0bff817 	ldw	r2,-32(fp)
 1002a88:	10800044 	addi	r2,r2,1
 1002a8c:	e0bff815 	stw	r2,-32(fp)
 1002a90:	e0bfff17 	ldw	r2,-4(fp)
 1002a94:	10c00017 	ldw	r3,0(r2)
 1002a98:	e0bffd17 	ldw	r2,-12(fp)
 1002a9c:	1885883a 	add	r2,r3,r2
 1002aa0:	1007883a 	mov	r3,r2
 1002aa4:	e0bffa17 	ldw	r2,-24(fp)
 1002aa8:	10ffd036 	bltu	r2,r3,10029ec <draw_bmp+0x84>
			//draw pixel
			temp = pic[k][l];
			if(pic[k][l] != 0x789) //if pure white, don't draw
				IOWR_16DIRECT(addr, j << 1, temp);
		}
		addr += limit_x;
 1002aac:	e0fff717 	ldw	r3,-36(fp)
 1002ab0:	e0bff617 	ldw	r2,-40(fp)
 1002ab4:	1885883a 	add	r2,r3,r2
 1002ab8:	e0bff715 	stw	r2,-36(fp)
	limit_x = limit_x << 1;
	addr += y * (limit_x);

	//if(V_VERBOSE) printf("start bmp draw\n");

	for(i = y, k = 0; i < y + b->y; i++, k++) {
 1002abc:	e0bffb17 	ldw	r2,-20(fp)
 1002ac0:	10800044 	addi	r2,r2,1
 1002ac4:	e0bffb15 	stw	r2,-20(fp)
 1002ac8:	e0bff917 	ldw	r2,-28(fp)
 1002acc:	10800044 	addi	r2,r2,1
 1002ad0:	e0bff915 	stw	r2,-28(fp)
 1002ad4:	e0bfff17 	ldw	r2,-4(fp)
 1002ad8:	10c00117 	ldw	r3,4(r2)
 1002adc:	e0bffe17 	ldw	r2,-8(fp)
 1002ae0:	1885883a 	add	r2,r3,r2
 1002ae4:	1007883a 	mov	r3,r2
 1002ae8:	e0bffb17 	ldw	r2,-20(fp)
 1002aec:	10ffbb36 	bltu	r2,r3,10029dc <draw_bmp+0x74>
		addr += limit_x;

		//if(V_VERBOSE) printf("finished line %i\n", k);
	}
	//if(V_VERBOSE) printf("ended bmp draw\n");
}
 1002af0:	e037883a 	mov	sp,fp
 1002af4:	df000017 	ldw	fp,0(sp)
 1002af8:	dec00104 	addi	sp,sp,4
 1002afc:	f800283a 	ret

01002b00 <clear_loc>:


void clear_loc(alt_up_pixel_buffer_dma_dev *pixel_buffer, int x0, int y0, int x1, int y1, bmp* b) {
 1002b00:	defff604 	addi	sp,sp,-40
 1002b04:	df000915 	stw	fp,36(sp)
 1002b08:	df000904 	addi	fp,sp,36
 1002b0c:	e13ffc15 	stw	r4,-16(fp)
 1002b10:	e17ffd15 	stw	r5,-12(fp)
 1002b14:	e1bffe15 	stw	r6,-8(fp)
 1002b18:	e1ffff15 	stw	r7,-4(fp)
	unsigned int i,j,k;
	unsigned int addr = pixel_buffer->back_buffer_start_address;
 1002b1c:	e0bffc17 	ldw	r2,-16(fp)
 1002b20:	10800c17 	ldw	r2,48(r2)
 1002b24:	e0bff815 	stw	r2,-32(fp)
	unsigned int limit_x = pixel_buffer->x_resolution;
 1002b28:	e0bffc17 	ldw	r2,-16(fp)
 1002b2c:	10800f17 	ldw	r2,60(r2)
 1002b30:	e0bff715 	stw	r2,-36(fp)


	//compute starting address in y
	limit_x = limit_x << 1;
 1002b34:	e0bff717 	ldw	r2,-36(fp)
 1002b38:	1085883a 	add	r2,r2,r2
 1002b3c:	e0bff715 	stw	r2,-36(fp)
	addr += y0 * (limit_x);
 1002b40:	e0fffe17 	ldw	r3,-8(fp)
 1002b44:	e0bff717 	ldw	r2,-36(fp)
 1002b48:	1887383a 	mul	r3,r3,r2
 1002b4c:	e0bff817 	ldw	r2,-32(fp)
 1002b50:	10c5883a 	add	r2,r2,r3
 1002b54:	e0bff815 	stw	r2,-32(fp)

	for(i = y0; i <= y1 ; i++) {
 1002b58:	e0bffe17 	ldw	r2,-8(fp)
 1002b5c:	e0bffb15 	stw	r2,-20(fp)
 1002b60:	00002e06 	br	1002c1c <clear_loc+0x11c>
		for (j = x0, k = x0 + p_shift*2; j <= x1 ; j++, k++)
 1002b64:	e0bffd17 	ldw	r2,-12(fp)
 1002b68:	e0bffa15 	stw	r2,-24(fp)
 1002b6c:	d0a73317 	ldw	r2,-25396(gp)
 1002b70:	1085883a 	add	r2,r2,r2
 1002b74:	1007883a 	mov	r3,r2
 1002b78:	e0bffd17 	ldw	r2,-12(fp)
 1002b7c:	1885883a 	add	r2,r3,r2
 1002b80:	e0bff915 	stw	r2,-28(fp)
 1002b84:	00001b06 	br	1002bf4 <clear_loc+0xf4>
		{

			IOWR_16DIRECT(addr, j << 1, b->pic[i][k]);
 1002b88:	e0bffa17 	ldw	r2,-24(fp)
 1002b8c:	1085883a 	add	r2,r2,r2
 1002b90:	1007883a 	mov	r3,r2
 1002b94:	e0bff817 	ldw	r2,-32(fp)
 1002b98:	1889883a 	add	r4,r3,r2
 1002b9c:	e0800217 	ldw	r2,8(fp)
 1002ba0:	10c00217 	ldw	r3,8(r2)
 1002ba4:	e0bffb17 	ldw	r2,-20(fp)
 1002ba8:	1085883a 	add	r2,r2,r2
 1002bac:	1085883a 	add	r2,r2,r2
 1002bb0:	1885883a 	add	r2,r3,r2
 1002bb4:	10c00017 	ldw	r3,0(r2)
 1002bb8:	e0bff917 	ldw	r2,-28(fp)
 1002bbc:	1085883a 	add	r2,r2,r2
 1002bc0:	1885883a 	add	r2,r3,r2
 1002bc4:	1080000b 	ldhu	r2,0(r2)
 1002bc8:	10ffffcc 	andi	r3,r2,65535
 1002bcc:	18e0001c 	xori	r3,r3,32768
 1002bd0:	18e00004 	addi	r3,r3,-32768
 1002bd4:	2005883a 	mov	r2,r4
 1002bd8:	10c0002d 	sthio	r3,0(r2)
	//compute starting address in y
	limit_x = limit_x << 1;
	addr += y0 * (limit_x);

	for(i = y0; i <= y1 ; i++) {
		for (j = x0, k = x0 + p_shift*2; j <= x1 ; j++, k++)
 1002bdc:	e0bffa17 	ldw	r2,-24(fp)
 1002be0:	10800044 	addi	r2,r2,1
 1002be4:	e0bffa15 	stw	r2,-24(fp)
 1002be8:	e0bff917 	ldw	r2,-28(fp)
 1002bec:	10800044 	addi	r2,r2,1
 1002bf0:	e0bff915 	stw	r2,-28(fp)
 1002bf4:	e0ffff17 	ldw	r3,-4(fp)
 1002bf8:	e0bffa17 	ldw	r2,-24(fp)
 1002bfc:	18bfe22e 	bgeu	r3,r2,1002b88 <clear_loc+0x88>
		{

			IOWR_16DIRECT(addr, j << 1, b->pic[i][k]);
		}
		addr += limit_x;
 1002c00:	e0fff817 	ldw	r3,-32(fp)
 1002c04:	e0bff717 	ldw	r2,-36(fp)
 1002c08:	1885883a 	add	r2,r3,r2
 1002c0c:	e0bff815 	stw	r2,-32(fp)

	//compute starting address in y
	limit_x = limit_x << 1;
	addr += y0 * (limit_x);

	for(i = y0; i <= y1 ; i++) {
 1002c10:	e0bffb17 	ldw	r2,-20(fp)
 1002c14:	10800044 	addi	r2,r2,1
 1002c18:	e0bffb15 	stw	r2,-20(fp)
 1002c1c:	e0c00117 	ldw	r3,4(fp)
 1002c20:	e0bffb17 	ldw	r2,-20(fp)
 1002c24:	18bfcf2e 	bgeu	r3,r2,1002b64 <clear_loc+0x64>

			IOWR_16DIRECT(addr, j << 1, b->pic[i][k]);
		}
		addr += limit_x;
	}
}
 1002c28:	e037883a 	mov	sp,fp
 1002c2c:	df000017 	ldw	fp,0(sp)
 1002c30:	dec00104 	addi	sp,sp,4
 1002c34:	f800283a 	ret

01002c38 <tight_rope_game>:




void tight_rope_game()
{
 1002c38:	deffc604 	addi	sp,sp,-232
 1002c3c:	dfc03915 	stw	ra,228(sp)
 1002c40:	df003815 	stw	fp,224(sp)
 1002c44:	df003804 	addi	fp,sp,224

	printf("tie rope game loading\n");
 1002c48:	010040b4 	movhi	r4,258
 1002c4c:	21210504 	addi	r4,r4,-31724
 1002c50:	1004b180 	call	1004b18 <puts>
	draw object;
	//buffer init stuff
	pixel_buffer = alt_up_pixel_buffer_dma_open_dev("/dev/pixel_buffer_dma");
 1002c54:	010040b4 	movhi	r4,258
 1002c58:	21210b04 	addi	r4,r4,-31700
 1002c5c:	10116f40 	call	10116f4 <alt_up_pixel_buffer_dma_open_dev>
 1002c60:	1007883a 	mov	r3,r2
 1002c64:	008040b4 	movhi	r2,258
 1002c68:	10b10e04 	addi	r2,r2,-15304
 1002c6c:	10c00015 	stw	r3,0(r2)

	//master* m;


	// Set the 1st buffer address
	alt_up_pixel_buffer_dma_change_back_buffer_address(pixel_buffer,pixel_buffer_addr1);
 1002c70:	008040b4 	movhi	r2,258
 1002c74:	10b10e04 	addi	r2,r2,-15304
 1002c78:	11000017 	ldw	r4,0(r2)
 1002c7c:	01400234 	movhi	r5,8
 1002c80:	10118d40 	call	10118d4 <alt_up_pixel_buffer_dma_change_back_buffer_address>
	// Swap buffers  we have to swap because there is only an API function
	// to set the address of the background buffer.
	alt_up_pixel_buffer_dma_swap_buffers(pixel_buffer);
 1002c84:	008040b4 	movhi	r2,258
 1002c88:	10b10e04 	addi	r2,r2,-15304
 1002c8c:	11000017 	ldw	r4,0(r2)
 1002c90:	101192c0 	call	101192c <alt_up_pixel_buffer_dma_swap_buffers>
	while (alt_up_pixel_buffer_dma_check_swap_buffers_status(pixel_buffer));
 1002c94:	008040b4 	movhi	r2,258
 1002c98:	10b10e04 	addi	r2,r2,-15304
 1002c9c:	11000017 	ldw	r4,0(r2)
 1002ca0:	10119840 	call	1011984 <alt_up_pixel_buffer_dma_check_swap_buffers_status>
 1002ca4:	1004c03a 	cmpne	r2,r2,zero
 1002ca8:	103ffa1e 	bne	r2,zero,1002c94 <tight_rope_game+0x5c>
	// Set the 2nd buffer address
	alt_up_pixel_buffer_dma_change_back_buffer_address(pixel_buffer,pixel_buffer_addr2);
 1002cac:	008040b4 	movhi	r2,258
 1002cb0:	10b10e04 	addi	r2,r2,-15304
 1002cb4:	11000017 	ldw	r4,0(r2)
 1002cb8:	01400334 	movhi	r5,12
 1002cbc:	10118d40 	call	10118d4 <alt_up_pixel_buffer_dma_change_back_buffer_address>
	// Clear both buffers (this makes all pixels black)
	alt_up_pixel_buffer_dma_clear_screen(pixel_buffer, 1);
 1002cc0:	008040b4 	movhi	r2,258
 1002cc4:	10b10e04 	addi	r2,r2,-15304
 1002cc8:	11000017 	ldw	r4,0(r2)
 1002ccc:	01400044 	movi	r5,1
 1002cd0:	10119b80 	call	10119b8 <alt_up_pixel_buffer_dma_clear_screen>
	alt_up_pixel_buffer_dma_swap_buffers(pixel_buffer);
 1002cd4:	008040b4 	movhi	r2,258
 1002cd8:	10b10e04 	addi	r2,r2,-15304
 1002cdc:	11000017 	ldw	r4,0(r2)
 1002ce0:	101192c0 	call	101192c <alt_up_pixel_buffer_dma_swap_buffers>
	while (alt_up_pixel_buffer_dma_check_swap_buffers_status(pixel_buffer));
 1002ce4:	008040b4 	movhi	r2,258
 1002ce8:	10b10e04 	addi	r2,r2,-15304
 1002cec:	11000017 	ldw	r4,0(r2)
 1002cf0:	10119840 	call	1011984 <alt_up_pixel_buffer_dma_check_swap_buffers_status>
 1002cf4:	1004c03a 	cmpne	r2,r2,zero
 1002cf8:	103ffa1e 	bne	r2,zero,1002ce4 <tight_rope_game+0xac>
	alt_up_pixel_buffer_dma_clear_screen(pixel_buffer, 1);
 1002cfc:	008040b4 	movhi	r2,258
 1002d00:	10b10e04 	addi	r2,r2,-15304
 1002d04:	11000017 	ldw	r4,0(r2)
 1002d08:	01400044 	movi	r5,1
 1002d0c:	10119b80 	call	10119b8 <alt_up_pixel_buffer_dma_clear_screen>

	//interrupt init stuff (for object writing)
	//TIMERPERIOD
	int timer_period = 1 * 500000;
 1002d10:	00800234 	movhi	r2,8
 1002d14:	10a84804 	addi	r2,r2,-24288
 1002d18:	e0bfee15 	stw	r2,-72(fp)
	IOWR_16DIRECT(TIMER_0_BASE, 8, timer_period & 0xFFFF); //writes the period to the hardware timer
 1002d1c:	e0bfee17 	ldw	r2,-72(fp)
 1002d20:	10ffffcc 	andi	r3,r2,65535
 1002d24:	00910a04 	movi	r2,17448
 1002d28:	10c0002d 	sthio	r3,0(r2)
	IOWR_16DIRECT(TIMER_0_BASE, 12, timer_period >> 16);
 1002d2c:	e0bfee17 	ldw	r2,-72(fp)
 1002d30:	1007d43a 	srai	r3,r2,16
 1002d34:	00910b04 	movi	r2,17452
 1002d38:	10c0002d 	sthio	r3,0(r2)
	IOWR_16DIRECT(TIMER_0_BASE, 4, 1 << 3); //stop timer
 1002d3c:	00d10904 	movi	r3,17444
 1002d40:	00800204 	movi	r2,8
 1002d44:	1880002d 	sthio	r2,0(r3)
	alt_irq_register(TIMER_0_IRQ,NULL,(void*)handle_timer_interrupts);//registers function to a specific IRQ
 1002d48:	01000084 	movi	r4,2
 1002d4c:	000b883a 	mov	r5,zero
 1002d50:	01804034 	movhi	r6,256
 1002d54:	318fe304 	addi	r6,r6,16268
 1002d58:	100e3340 	call	100e334 <alt_irq_register>
	IOWR_16DIRECT(TIMER_0_BASE, 4, 0x5); //start timer
 1002d5c:	00d10904 	movi	r3,17444
 1002d60:	00800144 	movi	r2,5
 1002d64:	1880002d 	sthio	r2,0(r3)
	printf("past interrupt");
 1002d68:	010040b4 	movhi	r4,258
 1002d6c:	21211104 	addi	r4,r4,-31676
 1002d70:	10049dc0 	call	10049dc <printf>

	//load bitmap files
	bmp* bg = read_bmp("bg.bmp");
 1002d74:	010040b4 	movhi	r4,258
 1002d78:	21211504 	addi	r4,r4,-31660
 1002d7c:	10025040 	call	1002504 <read_bmp>
 1002d80:	e0bfed15 	stw	r2,-76(fp)
	bmp* s45 = read_bmp("45.bmp");
 1002d84:	010040b4 	movhi	r4,258
 1002d88:	21211704 	addi	r4,r4,-31652
 1002d8c:	10025040 	call	1002504 <read_bmp>
 1002d90:	e0bfec15 	stw	r2,-80(fp)
	bmp* s50 = read_bmp("50.bmp");
 1002d94:	010040b4 	movhi	r4,258
 1002d98:	21211904 	addi	r4,r4,-31644
 1002d9c:	10025040 	call	1002504 <read_bmp>
 1002da0:	e0bfeb15 	stw	r2,-84(fp)
	bmp* s55 = read_bmp("55.bmp");
 1002da4:	010040b4 	movhi	r4,258
 1002da8:	21211b04 	addi	r4,r4,-31636
 1002dac:	10025040 	call	1002504 <read_bmp>
 1002db0:	e0bfea15 	stw	r2,-88(fp)
	bmp* s60 = read_bmp("60.bmp");
 1002db4:	010040b4 	movhi	r4,258
 1002db8:	21211d04 	addi	r4,r4,-31628
 1002dbc:	10025040 	call	1002504 <read_bmp>
 1002dc0:	e0bfe915 	stw	r2,-92(fp)
	bmp* s65 = read_bmp("65.bmp");
 1002dc4:	010040b4 	movhi	r4,258
 1002dc8:	21211f04 	addi	r4,r4,-31620
 1002dcc:	10025040 	call	1002504 <read_bmp>
 1002dd0:	e0bfe815 	stw	r2,-96(fp)
	bmp* s70 = read_bmp("70.bmp");
 1002dd4:	010040b4 	movhi	r4,258
 1002dd8:	21212104 	addi	r4,r4,-31612
 1002ddc:	10025040 	call	1002504 <read_bmp>
 1002de0:	e0bfe715 	stw	r2,-100(fp)
	bmp* s75 = read_bmp("75.bmp");
 1002de4:	010040b4 	movhi	r4,258
 1002de8:	21212304 	addi	r4,r4,-31604
 1002dec:	10025040 	call	1002504 <read_bmp>
 1002df0:	e0bfe615 	stw	r2,-104(fp)
	bmp* s80 = read_bmp("80.bmp");
 1002df4:	010040b4 	movhi	r4,258
 1002df8:	21212504 	addi	r4,r4,-31596
 1002dfc:	10025040 	call	1002504 <read_bmp>
 1002e00:	e0bfe515 	stw	r2,-108(fp)
	bmp* s85 = read_bmp("85.bmp");
 1002e04:	010040b4 	movhi	r4,258
 1002e08:	21212704 	addi	r4,r4,-31588
 1002e0c:	10025040 	call	1002504 <read_bmp>
 1002e10:	e0bfe415 	stw	r2,-112(fp)
	bmp* s90 = read_bmp("90.bmp");
 1002e14:	010040b4 	movhi	r4,258
 1002e18:	21212904 	addi	r4,r4,-31580
 1002e1c:	10025040 	call	1002504 <read_bmp>
 1002e20:	e0bfe315 	stw	r2,-116(fp)
	bmp* s95 = read_bmp("95.bmp");
 1002e24:	010040b4 	movhi	r4,258
 1002e28:	21212b04 	addi	r4,r4,-31572
 1002e2c:	10025040 	call	1002504 <read_bmp>
 1002e30:	e0bfe215 	stw	r2,-120(fp)
	bmp* s100 = read_bmp("100.bmp");
 1002e34:	010040b4 	movhi	r4,258
 1002e38:	21212d04 	addi	r4,r4,-31564
 1002e3c:	10025040 	call	1002504 <read_bmp>
 1002e40:	e0bfe115 	stw	r2,-124(fp)
	bmp* s105 = read_bmp("105.bmp");
 1002e44:	010040b4 	movhi	r4,258
 1002e48:	21212f04 	addi	r4,r4,-31556
 1002e4c:	10025040 	call	1002504 <read_bmp>
 1002e50:	e0bfe015 	stw	r2,-128(fp)
	bmp* s110 = read_bmp("110.bmp");
 1002e54:	010040b4 	movhi	r4,258
 1002e58:	21213104 	addi	r4,r4,-31548
 1002e5c:	10025040 	call	1002504 <read_bmp>
 1002e60:	e0bfdf15 	stw	r2,-132(fp)
	bmp* s115 = read_bmp("115.bmp");
 1002e64:	010040b4 	movhi	r4,258
 1002e68:	21213304 	addi	r4,r4,-31540
 1002e6c:	10025040 	call	1002504 <read_bmp>
 1002e70:	e0bfde15 	stw	r2,-136(fp)
	bmp* s120 = read_bmp("120.bmp");
 1002e74:	010040b4 	movhi	r4,258
 1002e78:	21213504 	addi	r4,r4,-31532
 1002e7c:	10025040 	call	1002504 <read_bmp>
 1002e80:	e0bfdd15 	stw	r2,-140(fp)
	bmp* s125 = read_bmp("125.bmp");
 1002e84:	010040b4 	movhi	r4,258
 1002e88:	21213704 	addi	r4,r4,-31524
 1002e8c:	10025040 	call	1002504 <read_bmp>
 1002e90:	e0bfdc15 	stw	r2,-144(fp)
	bmp* s130 = read_bmp("130.bmp");
 1002e94:	010040b4 	movhi	r4,258
 1002e98:	21213904 	addi	r4,r4,-31516
 1002e9c:	10025040 	call	1002504 <read_bmp>
 1002ea0:	e0bfdb15 	stw	r2,-148(fp)
	bmp* s135 = read_bmp("135.bmp");
 1002ea4:	010040b4 	movhi	r4,258
 1002ea8:	21213b04 	addi	r4,r4,-31508
 1002eac:	10025040 	call	1002504 <read_bmp>
 1002eb0:	e0bfda15 	stw	r2,-152(fp)

	draw_bmp(pixel_buffer,0,0,bg);
 1002eb4:	008040b4 	movhi	r2,258
 1002eb8:	10b10e04 	addi	r2,r2,-15304
 1002ebc:	11000017 	ldw	r4,0(r2)
 1002ec0:	000b883a 	mov	r5,zero
 1002ec4:	000d883a 	mov	r6,zero
 1002ec8:	e1ffed17 	ldw	r7,-76(fp)
 1002ecc:	10029680 	call	1002968 <draw_bmp>


	alt_up_pixel_buffer_dma_swap_buffers(pixel_buffer);
 1002ed0:	008040b4 	movhi	r2,258
 1002ed4:	10b10e04 	addi	r2,r2,-15304
 1002ed8:	11000017 	ldw	r4,0(r2)
 1002edc:	101192c0 	call	101192c <alt_up_pixel_buffer_dma_swap_buffers>
	while (alt_up_pixel_buffer_dma_check_swap_buffers_status(pixel_buffer));
 1002ee0:	008040b4 	movhi	r2,258
 1002ee4:	10b10e04 	addi	r2,r2,-15304
 1002ee8:	11000017 	ldw	r4,0(r2)
 1002eec:	10119840 	call	1011984 <alt_up_pixel_buffer_dma_check_swap_buffers_status>
 1002ef0:	1004c03a 	cmpne	r2,r2,zero
 1002ef4:	103ffa1e 	bne	r2,zero,1002ee0 <tight_rope_game+0x2a8>


	draw_bmp(pixel_buffer,0,0,bg);
 1002ef8:	008040b4 	movhi	r2,258
 1002efc:	10b10e04 	addi	r2,r2,-15304
 1002f00:	11000017 	ldw	r4,0(r2)
 1002f04:	000b883a 	mov	r5,zero
 1002f08:	000d883a 	mov	r6,zero
 1002f0c:	e1ffed17 	ldw	r7,-76(fp)
 1002f10:	10029680 	call	1002968 <draw_bmp>


	alt_up_pixel_buffer_dma_swap_buffers(pixel_buffer);
 1002f14:	008040b4 	movhi	r2,258
 1002f18:	10b10e04 	addi	r2,r2,-15304
 1002f1c:	11000017 	ldw	r4,0(r2)
 1002f20:	101192c0 	call	101192c <alt_up_pixel_buffer_dma_swap_buffers>
	while (alt_up_pixel_buffer_dma_check_swap_buffers_status(pixel_buffer));
 1002f24:	008040b4 	movhi	r2,258
 1002f28:	10b10e04 	addi	r2,r2,-15304
 1002f2c:	11000017 	ldw	r4,0(r2)
 1002f30:	10119840 	call	1011984 <alt_up_pixel_buffer_dma_check_swap_buffers_status>
 1002f34:	1004c03a 	cmpne	r2,r2,zero
 1002f38:	103ffa1e 	bne	r2,zero,1002f24 <tight_rope_game+0x2ec>



	object.x[0] = 10;
 1002f3c:	00800284 	movi	r2,10
 1002f40:	e0bfef15 	stw	r2,-68(fp)
	object.x[1] = 90;
 1002f44:	00801684 	movi	r2,90
 1002f48:	e0bff015 	stw	r2,-64(fp)
	object.x[2] = 170;
 1002f4c:	00802a84 	movi	r2,170
 1002f50:	e0bff115 	stw	r2,-60(fp)
	object.x[3] = 250;
 1002f54:	00803e84 	movi	r2,250
 1002f58:	e0bff215 	stw	r2,-56(fp)

	object.y[0] = 120;
 1002f5c:	00801e04 	movi	r2,120
 1002f60:	e0bff315 	stw	r2,-52(fp)
	object.y[1] = 120;
 1002f64:	00801e04 	movi	r2,120
 1002f68:	e0bff415 	stw	r2,-48(fp)
	object.y[2] = 120;
 1002f6c:	00801e04 	movi	r2,120
 1002f70:	e0bff515 	stw	r2,-44(fp)
	object.y[3] = 120;
 1002f74:	00801e04 	movi	r2,120
 1002f78:	e0bff615 	stw	r2,-40(fp)

	object.length[0]= 80;
 1002f7c:	00801404 	movi	r2,80
 1002f80:	e0bff715 	stw	r2,-36(fp)
	object.length[1]= 80;
 1002f84:	00801404 	movi	r2,80
 1002f88:	e0bff815 	stw	r2,-32(fp)
	object.length[2]= 80;
 1002f8c:	00801404 	movi	r2,80
 1002f90:	e0bff915 	stw	r2,-28(fp)
	object.length[3]= 80;
 1002f94:	00801404 	movi	r2,80
 1002f98:	e0bffa15 	stw	r2,-24(fp)

	object.height[0]= 58;
 1002f9c:	00800e84 	movi	r2,58
 1002fa0:	e0bffb15 	stw	r2,-20(fp)
	object.height[1]= 58;
 1002fa4:	00800e84 	movi	r2,58
 1002fa8:	e0bffc15 	stw	r2,-16(fp)
	object.height[2]= 58;
 1002fac:	00800e84 	movi	r2,58
 1002fb0:	e0bffd15 	stw	r2,-12(fp)
	object.height[3]= 58;
 1002fb4:	00800e84 	movi	r2,58
 1002fb8:	e0bffe15 	stw	r2,-8(fp)

	axis[0] = 80;
 1002fbc:	00c040b4 	movhi	r3,258
 1002fc0:	18f28404 	addi	r3,r3,-13808
 1002fc4:	00801404 	movi	r2,80
 1002fc8:	18800015 	stw	r2,0(r3)
	axis[1] = 80;
 1002fcc:	00c040b4 	movhi	r3,258
 1002fd0:	18f28404 	addi	r3,r3,-13808
 1002fd4:	00801404 	movi	r2,80
 1002fd8:	18800115 	stw	r2,4(r3)
	axis[2] = 80;
 1002fdc:	00c040b4 	movhi	r3,258
 1002fe0:	18f28404 	addi	r3,r3,-13808
 1002fe4:	00801404 	movi	r2,80
 1002fe8:	18800215 	stw	r2,8(r3)
	axis[3] = 80;
 1002fec:	00c040b4 	movhi	r3,258
 1002ff0:	18f28404 	addi	r3,r3,-13808
 1002ff4:	00801404 	movi	r2,80
 1002ff8:	18800315 	stw	r2,12(r3)


	//waits until everybosy is connected
	while(set_name_i != 1);
 1002ffc:	008040b4 	movhi	r2,258
 1003000:	10b10d04 	addi	r2,r2,-15308
 1003004:	10800017 	ldw	r2,0(r2)
 1003008:	10800058 	cmpnei	r2,r2,1
 100300c:	103ffb1e 	bne	r2,zero,1002ffc <tight_rope_game+0x3c4>
	sendNameAll();
 1003010:	10004540 	call	1000454 <sendNameAll>
 1003014:	00000006 	br	1003018 <tight_rope_game+0x3e0>
		// position is updated by interrupt
		//need to fine bmp for game
		// need a timer for the game
		//draw_object(axis);
		//clear_object(axis);
		int num = 0;
 1003018:	e03fd915 	stw	zero,-156(fp)
		for(num = 0; num < 4; num++)
 100301c:	e03fd915 	stw	zero,-156(fp)
 1003020:	00033206 	br	1003cec <tight_rope_game+0x10b4>
		{
			switch(axis[num])
 1003024:	e0bfd917 	ldw	r2,-156(fp)
 1003028:	00c040b4 	movhi	r3,258
 100302c:	18f28404 	addi	r3,r3,-13808
 1003030:	1085883a 	add	r2,r2,r2
 1003034:	1085883a 	add	r2,r2,r2
 1003038:	10c5883a 	add	r2,r2,r3
 100303c:	10800017 	ldw	r2,0(r2)
 1003040:	10bff4c4 	addi	r2,r2,-45
 1003044:	e0bfff15 	stw	r2,-4(fp)
 1003048:	e0ffff17 	ldw	r3,-4(fp)
 100304c:	188016e8 	cmpgeui	r2,r3,91
 1003050:	1003231e 	bne	r2,zero,1003ce0 <tight_rope_game+0x10a8>
 1003054:	e13fff17 	ldw	r4,-4(fp)
 1003058:	e13fff17 	ldw	r4,-4(fp)
 100305c:	2105883a 	add	r2,r4,r4
 1003060:	1087883a 	add	r3,r2,r2
 1003064:	00804034 	movhi	r2,256
 1003068:	108c1e04 	addi	r2,r2,12408
 100306c:	1885883a 	add	r2,r3,r2
 1003070:	10800017 	ldw	r2,0(r2)
 1003074:	1000683a 	jmp	r2
 1003078:	010031e4 	muli	r4,zero,199
 100307c:	01003ce0 	cmpeqi	r4,zero,243
 1003080:	01003ce0 	cmpeqi	r4,zero,243
 1003084:	01003ce0 	cmpeqi	r4,zero,243
 1003088:	01003ce0 	cmpeqi	r4,zero,243
 100308c:	01003278 	rdprs	r4,zero,201
 1003090:	01003ce0 	cmpeqi	r4,zero,243
 1003094:	01003ce0 	cmpeqi	r4,zero,243
 1003098:	01003ce0 	cmpeqi	r4,zero,243
 100309c:	01003ce0 	cmpeqi	r4,zero,243
 10030a0:	0100330c 	andi	r4,zero,204
 10030a4:	01003ce0 	cmpeqi	r4,zero,243
 10030a8:	01003ce0 	cmpeqi	r4,zero,243
 10030ac:	01003ce0 	cmpeqi	r4,zero,243
 10030b0:	01003ce0 	cmpeqi	r4,zero,243
 10030b4:	010033a0 	cmpeqi	r4,zero,206
 10030b8:	01003ce0 	cmpeqi	r4,zero,243
 10030bc:	01003ce0 	cmpeqi	r4,zero,243
 10030c0:	01003ce0 	cmpeqi	r4,zero,243
 10030c4:	01003ce0 	cmpeqi	r4,zero,243
 10030c8:	01003434 	movhi	r4,208
 10030cc:	01003ce0 	cmpeqi	r4,zero,243
 10030d0:	01003ce0 	cmpeqi	r4,zero,243
 10030d4:	01003ce0 	cmpeqi	r4,zero,243
 10030d8:	01003ce0 	cmpeqi	r4,zero,243
 10030dc:	010034c8 	cmpgei	r4,zero,211
 10030e0:	01003ce0 	cmpeqi	r4,zero,243
 10030e4:	01003ce0 	cmpeqi	r4,zero,243
 10030e8:	01003ce0 	cmpeqi	r4,zero,243
 10030ec:	01003ce0 	cmpeqi	r4,zero,243
 10030f0:	0100355c 	xori	r4,zero,213
 10030f4:	01003ce0 	cmpeqi	r4,zero,243
 10030f8:	01003ce0 	cmpeqi	r4,zero,243
 10030fc:	01003ce0 	cmpeqi	r4,zero,243
 1003100:	01003ce0 	cmpeqi	r4,zero,243
 1003104:	010035f0 	cmpltui	r4,zero,215
 1003108:	01003ce0 	cmpeqi	r4,zero,243
 100310c:	01003ce0 	cmpeqi	r4,zero,243
 1003110:	01003ce0 	cmpeqi	r4,zero,243
 1003114:	01003ce0 	cmpeqi	r4,zero,243
 1003118:	01003684 	movi	r4,218
 100311c:	01003ce0 	cmpeqi	r4,zero,243
 1003120:	01003ce0 	cmpeqi	r4,zero,243
 1003124:	01003ce0 	cmpeqi	r4,zero,243
 1003128:	01003ce0 	cmpeqi	r4,zero,243
 100312c:	01003718 	cmpnei	r4,zero,220
 1003130:	01003ce0 	cmpeqi	r4,zero,243
 1003134:	01003ce0 	cmpeqi	r4,zero,243
 1003138:	01003ce0 	cmpeqi	r4,zero,243
 100313c:	01003ce0 	cmpeqi	r4,zero,243
 1003140:	010037ac 	andhi	r4,zero,222
 1003144:	01003ce0 	cmpeqi	r4,zero,243
 1003148:	01003ce0 	cmpeqi	r4,zero,243
 100314c:	01003ce0 	cmpeqi	r4,zero,243
 1003150:	01003ce0 	cmpeqi	r4,zero,243
 1003154:	01003840 	call	100384 <__alt_mem_onchip_memory+0x100384>
 1003158:	01003ce0 	cmpeqi	r4,zero,243
 100315c:	01003ce0 	cmpeqi	r4,zero,243
 1003160:	01003ce0 	cmpeqi	r4,zero,243
 1003164:	01003ce0 	cmpeqi	r4,zero,243
 1003168:	010038d4 	movui	r4,227
 100316c:	01003ce0 	cmpeqi	r4,zero,243
 1003170:	01003ce0 	cmpeqi	r4,zero,243
 1003174:	01003ce0 	cmpeqi	r4,zero,243
 1003178:	01003ce0 	cmpeqi	r4,zero,243
 100317c:	01003968 	cmpgeui	r4,zero,229
 1003180:	01003ce0 	cmpeqi	r4,zero,243
 1003184:	01003ce0 	cmpeqi	r4,zero,243
 1003188:	01003ce0 	cmpeqi	r4,zero,243
 100318c:	01003ce0 	cmpeqi	r4,zero,243
 1003190:	010039fc 	xorhi	r4,zero,231
 1003194:	01003ce0 	cmpeqi	r4,zero,243
 1003198:	01003ce0 	cmpeqi	r4,zero,243
 100319c:	01003ce0 	cmpeqi	r4,zero,243
 10031a0:	01003ce0 	cmpeqi	r4,zero,243
 10031a4:	01003a90 	cmplti	r4,zero,234
 10031a8:	01003ce0 	cmpeqi	r4,zero,243
 10031ac:	01003ce0 	cmpeqi	r4,zero,243
 10031b0:	01003ce0 	cmpeqi	r4,zero,243
 10031b4:	01003ce0 	cmpeqi	r4,zero,243
 10031b8:	01003b24 	muli	r4,zero,236
 10031bc:	01003ce0 	cmpeqi	r4,zero,243
 10031c0:	01003ce0 	cmpeqi	r4,zero,243
 10031c4:	01003ce0 	cmpeqi	r4,zero,243
 10031c8:	01003ce0 	cmpeqi	r4,zero,243
 10031cc:	01003bb8 	rdprs	r4,zero,238
 10031d0:	01003ce0 	cmpeqi	r4,zero,243
 10031d4:	01003ce0 	cmpeqi	r4,zero,243
 10031d8:	01003ce0 	cmpeqi	r4,zero,243
 10031dc:	01003ce0 	cmpeqi	r4,zero,243
 10031e0:	01003c4c 	andi	r4,zero,241
			{
			case 45:
				draw_object(pixel_buffer, object, s45, num);
 10031e4:	008040b4 	movhi	r2,258
 10031e8:	10b10e04 	addi	r2,r2,-15304
 10031ec:	11000017 	ldw	r4,0(r2)
 10031f0:	e0bfec17 	ldw	r2,-80(fp)
 10031f4:	d8800d15 	stw	r2,52(sp)
 10031f8:	e0bfd917 	ldw	r2,-156(fp)
 10031fc:	d8800e15 	stw	r2,56(sp)
 1003200:	e0bff217 	ldw	r2,-56(fp)
 1003204:	d8800015 	stw	r2,0(sp)
 1003208:	e0bff317 	ldw	r2,-52(fp)
 100320c:	d8800115 	stw	r2,4(sp)
 1003210:	e0bff417 	ldw	r2,-48(fp)
 1003214:	d8800215 	stw	r2,8(sp)
 1003218:	e0bff517 	ldw	r2,-44(fp)
 100321c:	d8800315 	stw	r2,12(sp)
 1003220:	e0bff617 	ldw	r2,-40(fp)
 1003224:	d8800415 	stw	r2,16(sp)
 1003228:	e0bff717 	ldw	r2,-36(fp)
 100322c:	d8800515 	stw	r2,20(sp)
 1003230:	e0bff817 	ldw	r2,-32(fp)
 1003234:	d8800615 	stw	r2,24(sp)
 1003238:	e0bff917 	ldw	r2,-28(fp)
 100323c:	d8800715 	stw	r2,28(sp)
 1003240:	e0bffa17 	ldw	r2,-24(fp)
 1003244:	d8800815 	stw	r2,32(sp)
 1003248:	e0bffb17 	ldw	r2,-20(fp)
 100324c:	d8800915 	stw	r2,36(sp)
 1003250:	e0bffc17 	ldw	r2,-16(fp)
 1003254:	d8800a15 	stw	r2,40(sp)
 1003258:	e0bffd17 	ldw	r2,-12(fp)
 100325c:	d8800b15 	stw	r2,44(sp)
 1003260:	e0bffe17 	ldw	r2,-8(fp)
 1003264:	d8800c15 	stw	r2,48(sp)
 1003268:	e17fef17 	ldw	r5,-68(fp)
 100326c:	e1bff017 	ldw	r6,-64(fp)
 1003270:	e1fff117 	ldw	r7,-60(fp)
 1003274:	10005140 	call	1000514 <draw_object>
			case 50:
				draw_object(pixel_buffer, object, s50, num);
 1003278:	008040b4 	movhi	r2,258
 100327c:	10b10e04 	addi	r2,r2,-15304
 1003280:	11000017 	ldw	r4,0(r2)
 1003284:	e0bfeb17 	ldw	r2,-84(fp)
 1003288:	d8800d15 	stw	r2,52(sp)
 100328c:	e0bfd917 	ldw	r2,-156(fp)
 1003290:	d8800e15 	stw	r2,56(sp)
 1003294:	e0bff217 	ldw	r2,-56(fp)
 1003298:	d8800015 	stw	r2,0(sp)
 100329c:	e0bff317 	ldw	r2,-52(fp)
 10032a0:	d8800115 	stw	r2,4(sp)
 10032a4:	e0bff417 	ldw	r2,-48(fp)
 10032a8:	d8800215 	stw	r2,8(sp)
 10032ac:	e0bff517 	ldw	r2,-44(fp)
 10032b0:	d8800315 	stw	r2,12(sp)
 10032b4:	e0bff617 	ldw	r2,-40(fp)
 10032b8:	d8800415 	stw	r2,16(sp)
 10032bc:	e0bff717 	ldw	r2,-36(fp)
 10032c0:	d8800515 	stw	r2,20(sp)
 10032c4:	e0bff817 	ldw	r2,-32(fp)
 10032c8:	d8800615 	stw	r2,24(sp)
 10032cc:	e0bff917 	ldw	r2,-28(fp)
 10032d0:	d8800715 	stw	r2,28(sp)
 10032d4:	e0bffa17 	ldw	r2,-24(fp)
 10032d8:	d8800815 	stw	r2,32(sp)
 10032dc:	e0bffb17 	ldw	r2,-20(fp)
 10032e0:	d8800915 	stw	r2,36(sp)
 10032e4:	e0bffc17 	ldw	r2,-16(fp)
 10032e8:	d8800a15 	stw	r2,40(sp)
 10032ec:	e0bffd17 	ldw	r2,-12(fp)
 10032f0:	d8800b15 	stw	r2,44(sp)
 10032f4:	e0bffe17 	ldw	r2,-8(fp)
 10032f8:	d8800c15 	stw	r2,48(sp)
 10032fc:	e17fef17 	ldw	r5,-68(fp)
 1003300:	e1bff017 	ldw	r6,-64(fp)
 1003304:	e1fff117 	ldw	r7,-60(fp)
 1003308:	10005140 	call	1000514 <draw_object>
			case 55:
				draw_object(pixel_buffer, object, s55, num);
 100330c:	008040b4 	movhi	r2,258
 1003310:	10b10e04 	addi	r2,r2,-15304
 1003314:	11000017 	ldw	r4,0(r2)
 1003318:	e0bfea17 	ldw	r2,-88(fp)
 100331c:	d8800d15 	stw	r2,52(sp)
 1003320:	e0bfd917 	ldw	r2,-156(fp)
 1003324:	d8800e15 	stw	r2,56(sp)
 1003328:	e0bff217 	ldw	r2,-56(fp)
 100332c:	d8800015 	stw	r2,0(sp)
 1003330:	e0bff317 	ldw	r2,-52(fp)
 1003334:	d8800115 	stw	r2,4(sp)
 1003338:	e0bff417 	ldw	r2,-48(fp)
 100333c:	d8800215 	stw	r2,8(sp)
 1003340:	e0bff517 	ldw	r2,-44(fp)
 1003344:	d8800315 	stw	r2,12(sp)
 1003348:	e0bff617 	ldw	r2,-40(fp)
 100334c:	d8800415 	stw	r2,16(sp)
 1003350:	e0bff717 	ldw	r2,-36(fp)
 1003354:	d8800515 	stw	r2,20(sp)
 1003358:	e0bff817 	ldw	r2,-32(fp)
 100335c:	d8800615 	stw	r2,24(sp)
 1003360:	e0bff917 	ldw	r2,-28(fp)
 1003364:	d8800715 	stw	r2,28(sp)
 1003368:	e0bffa17 	ldw	r2,-24(fp)
 100336c:	d8800815 	stw	r2,32(sp)
 1003370:	e0bffb17 	ldw	r2,-20(fp)
 1003374:	d8800915 	stw	r2,36(sp)
 1003378:	e0bffc17 	ldw	r2,-16(fp)
 100337c:	d8800a15 	stw	r2,40(sp)
 1003380:	e0bffd17 	ldw	r2,-12(fp)
 1003384:	d8800b15 	stw	r2,44(sp)
 1003388:	e0bffe17 	ldw	r2,-8(fp)
 100338c:	d8800c15 	stw	r2,48(sp)
 1003390:	e17fef17 	ldw	r5,-68(fp)
 1003394:	e1bff017 	ldw	r6,-64(fp)
 1003398:	e1fff117 	ldw	r7,-60(fp)
 100339c:	10005140 	call	1000514 <draw_object>
			case 60:
				draw_object(pixel_buffer, object, s60, num);
 10033a0:	008040b4 	movhi	r2,258
 10033a4:	10b10e04 	addi	r2,r2,-15304
 10033a8:	11000017 	ldw	r4,0(r2)
 10033ac:	e0bfe917 	ldw	r2,-92(fp)
 10033b0:	d8800d15 	stw	r2,52(sp)
 10033b4:	e0bfd917 	ldw	r2,-156(fp)
 10033b8:	d8800e15 	stw	r2,56(sp)
 10033bc:	e0bff217 	ldw	r2,-56(fp)
 10033c0:	d8800015 	stw	r2,0(sp)
 10033c4:	e0bff317 	ldw	r2,-52(fp)
 10033c8:	d8800115 	stw	r2,4(sp)
 10033cc:	e0bff417 	ldw	r2,-48(fp)
 10033d0:	d8800215 	stw	r2,8(sp)
 10033d4:	e0bff517 	ldw	r2,-44(fp)
 10033d8:	d8800315 	stw	r2,12(sp)
 10033dc:	e0bff617 	ldw	r2,-40(fp)
 10033e0:	d8800415 	stw	r2,16(sp)
 10033e4:	e0bff717 	ldw	r2,-36(fp)
 10033e8:	d8800515 	stw	r2,20(sp)
 10033ec:	e0bff817 	ldw	r2,-32(fp)
 10033f0:	d8800615 	stw	r2,24(sp)
 10033f4:	e0bff917 	ldw	r2,-28(fp)
 10033f8:	d8800715 	stw	r2,28(sp)
 10033fc:	e0bffa17 	ldw	r2,-24(fp)
 1003400:	d8800815 	stw	r2,32(sp)
 1003404:	e0bffb17 	ldw	r2,-20(fp)
 1003408:	d8800915 	stw	r2,36(sp)
 100340c:	e0bffc17 	ldw	r2,-16(fp)
 1003410:	d8800a15 	stw	r2,40(sp)
 1003414:	e0bffd17 	ldw	r2,-12(fp)
 1003418:	d8800b15 	stw	r2,44(sp)
 100341c:	e0bffe17 	ldw	r2,-8(fp)
 1003420:	d8800c15 	stw	r2,48(sp)
 1003424:	e17fef17 	ldw	r5,-68(fp)
 1003428:	e1bff017 	ldw	r6,-64(fp)
 100342c:	e1fff117 	ldw	r7,-60(fp)
 1003430:	10005140 	call	1000514 <draw_object>
			case 65:
				draw_object(pixel_buffer, object, s65, num);
 1003434:	008040b4 	movhi	r2,258
 1003438:	10b10e04 	addi	r2,r2,-15304
 100343c:	11000017 	ldw	r4,0(r2)
 1003440:	e0bfe817 	ldw	r2,-96(fp)
 1003444:	d8800d15 	stw	r2,52(sp)
 1003448:	e0bfd917 	ldw	r2,-156(fp)
 100344c:	d8800e15 	stw	r2,56(sp)
 1003450:	e0bff217 	ldw	r2,-56(fp)
 1003454:	d8800015 	stw	r2,0(sp)
 1003458:	e0bff317 	ldw	r2,-52(fp)
 100345c:	d8800115 	stw	r2,4(sp)
 1003460:	e0bff417 	ldw	r2,-48(fp)
 1003464:	d8800215 	stw	r2,8(sp)
 1003468:	e0bff517 	ldw	r2,-44(fp)
 100346c:	d8800315 	stw	r2,12(sp)
 1003470:	e0bff617 	ldw	r2,-40(fp)
 1003474:	d8800415 	stw	r2,16(sp)
 1003478:	e0bff717 	ldw	r2,-36(fp)
 100347c:	d8800515 	stw	r2,20(sp)
 1003480:	e0bff817 	ldw	r2,-32(fp)
 1003484:	d8800615 	stw	r2,24(sp)
 1003488:	e0bff917 	ldw	r2,-28(fp)
 100348c:	d8800715 	stw	r2,28(sp)
 1003490:	e0bffa17 	ldw	r2,-24(fp)
 1003494:	d8800815 	stw	r2,32(sp)
 1003498:	e0bffb17 	ldw	r2,-20(fp)
 100349c:	d8800915 	stw	r2,36(sp)
 10034a0:	e0bffc17 	ldw	r2,-16(fp)
 10034a4:	d8800a15 	stw	r2,40(sp)
 10034a8:	e0bffd17 	ldw	r2,-12(fp)
 10034ac:	d8800b15 	stw	r2,44(sp)
 10034b0:	e0bffe17 	ldw	r2,-8(fp)
 10034b4:	d8800c15 	stw	r2,48(sp)
 10034b8:	e17fef17 	ldw	r5,-68(fp)
 10034bc:	e1bff017 	ldw	r6,-64(fp)
 10034c0:	e1fff117 	ldw	r7,-60(fp)
 10034c4:	10005140 	call	1000514 <draw_object>
			case 70:
				draw_object(pixel_buffer, object, s70, num);
 10034c8:	008040b4 	movhi	r2,258
 10034cc:	10b10e04 	addi	r2,r2,-15304
 10034d0:	11000017 	ldw	r4,0(r2)
 10034d4:	e0bfe717 	ldw	r2,-100(fp)
 10034d8:	d8800d15 	stw	r2,52(sp)
 10034dc:	e0bfd917 	ldw	r2,-156(fp)
 10034e0:	d8800e15 	stw	r2,56(sp)
 10034e4:	e0bff217 	ldw	r2,-56(fp)
 10034e8:	d8800015 	stw	r2,0(sp)
 10034ec:	e0bff317 	ldw	r2,-52(fp)
 10034f0:	d8800115 	stw	r2,4(sp)
 10034f4:	e0bff417 	ldw	r2,-48(fp)
 10034f8:	d8800215 	stw	r2,8(sp)
 10034fc:	e0bff517 	ldw	r2,-44(fp)
 1003500:	d8800315 	stw	r2,12(sp)
 1003504:	e0bff617 	ldw	r2,-40(fp)
 1003508:	d8800415 	stw	r2,16(sp)
 100350c:	e0bff717 	ldw	r2,-36(fp)
 1003510:	d8800515 	stw	r2,20(sp)
 1003514:	e0bff817 	ldw	r2,-32(fp)
 1003518:	d8800615 	stw	r2,24(sp)
 100351c:	e0bff917 	ldw	r2,-28(fp)
 1003520:	d8800715 	stw	r2,28(sp)
 1003524:	e0bffa17 	ldw	r2,-24(fp)
 1003528:	d8800815 	stw	r2,32(sp)
 100352c:	e0bffb17 	ldw	r2,-20(fp)
 1003530:	d8800915 	stw	r2,36(sp)
 1003534:	e0bffc17 	ldw	r2,-16(fp)
 1003538:	d8800a15 	stw	r2,40(sp)
 100353c:	e0bffd17 	ldw	r2,-12(fp)
 1003540:	d8800b15 	stw	r2,44(sp)
 1003544:	e0bffe17 	ldw	r2,-8(fp)
 1003548:	d8800c15 	stw	r2,48(sp)
 100354c:	e17fef17 	ldw	r5,-68(fp)
 1003550:	e1bff017 	ldw	r6,-64(fp)
 1003554:	e1fff117 	ldw	r7,-60(fp)
 1003558:	10005140 	call	1000514 <draw_object>
			case 75:
				draw_object(pixel_buffer, object, s75, num);
 100355c:	008040b4 	movhi	r2,258
 1003560:	10b10e04 	addi	r2,r2,-15304
 1003564:	11000017 	ldw	r4,0(r2)
 1003568:	e0bfe617 	ldw	r2,-104(fp)
 100356c:	d8800d15 	stw	r2,52(sp)
 1003570:	e0bfd917 	ldw	r2,-156(fp)
 1003574:	d8800e15 	stw	r2,56(sp)
 1003578:	e0bff217 	ldw	r2,-56(fp)
 100357c:	d8800015 	stw	r2,0(sp)
 1003580:	e0bff317 	ldw	r2,-52(fp)
 1003584:	d8800115 	stw	r2,4(sp)
 1003588:	e0bff417 	ldw	r2,-48(fp)
 100358c:	d8800215 	stw	r2,8(sp)
 1003590:	e0bff517 	ldw	r2,-44(fp)
 1003594:	d8800315 	stw	r2,12(sp)
 1003598:	e0bff617 	ldw	r2,-40(fp)
 100359c:	d8800415 	stw	r2,16(sp)
 10035a0:	e0bff717 	ldw	r2,-36(fp)
 10035a4:	d8800515 	stw	r2,20(sp)
 10035a8:	e0bff817 	ldw	r2,-32(fp)
 10035ac:	d8800615 	stw	r2,24(sp)
 10035b0:	e0bff917 	ldw	r2,-28(fp)
 10035b4:	d8800715 	stw	r2,28(sp)
 10035b8:	e0bffa17 	ldw	r2,-24(fp)
 10035bc:	d8800815 	stw	r2,32(sp)
 10035c0:	e0bffb17 	ldw	r2,-20(fp)
 10035c4:	d8800915 	stw	r2,36(sp)
 10035c8:	e0bffc17 	ldw	r2,-16(fp)
 10035cc:	d8800a15 	stw	r2,40(sp)
 10035d0:	e0bffd17 	ldw	r2,-12(fp)
 10035d4:	d8800b15 	stw	r2,44(sp)
 10035d8:	e0bffe17 	ldw	r2,-8(fp)
 10035dc:	d8800c15 	stw	r2,48(sp)
 10035e0:	e17fef17 	ldw	r5,-68(fp)
 10035e4:	e1bff017 	ldw	r6,-64(fp)
 10035e8:	e1fff117 	ldw	r7,-60(fp)
 10035ec:	10005140 	call	1000514 <draw_object>
			case 80:
				draw_object(pixel_buffer, object, s80, num);
 10035f0:	008040b4 	movhi	r2,258
 10035f4:	10b10e04 	addi	r2,r2,-15304
 10035f8:	11000017 	ldw	r4,0(r2)
 10035fc:	e0bfe517 	ldw	r2,-108(fp)
 1003600:	d8800d15 	stw	r2,52(sp)
 1003604:	e0bfd917 	ldw	r2,-156(fp)
 1003608:	d8800e15 	stw	r2,56(sp)
 100360c:	e0bff217 	ldw	r2,-56(fp)
 1003610:	d8800015 	stw	r2,0(sp)
 1003614:	e0bff317 	ldw	r2,-52(fp)
 1003618:	d8800115 	stw	r2,4(sp)
 100361c:	e0bff417 	ldw	r2,-48(fp)
 1003620:	d8800215 	stw	r2,8(sp)
 1003624:	e0bff517 	ldw	r2,-44(fp)
 1003628:	d8800315 	stw	r2,12(sp)
 100362c:	e0bff617 	ldw	r2,-40(fp)
 1003630:	d8800415 	stw	r2,16(sp)
 1003634:	e0bff717 	ldw	r2,-36(fp)
 1003638:	d8800515 	stw	r2,20(sp)
 100363c:	e0bff817 	ldw	r2,-32(fp)
 1003640:	d8800615 	stw	r2,24(sp)
 1003644:	e0bff917 	ldw	r2,-28(fp)
 1003648:	d8800715 	stw	r2,28(sp)
 100364c:	e0bffa17 	ldw	r2,-24(fp)
 1003650:	d8800815 	stw	r2,32(sp)
 1003654:	e0bffb17 	ldw	r2,-20(fp)
 1003658:	d8800915 	stw	r2,36(sp)
 100365c:	e0bffc17 	ldw	r2,-16(fp)
 1003660:	d8800a15 	stw	r2,40(sp)
 1003664:	e0bffd17 	ldw	r2,-12(fp)
 1003668:	d8800b15 	stw	r2,44(sp)
 100366c:	e0bffe17 	ldw	r2,-8(fp)
 1003670:	d8800c15 	stw	r2,48(sp)
 1003674:	e17fef17 	ldw	r5,-68(fp)
 1003678:	e1bff017 	ldw	r6,-64(fp)
 100367c:	e1fff117 	ldw	r7,-60(fp)
 1003680:	10005140 	call	1000514 <draw_object>
			case 85:
				draw_object(pixel_buffer, object, s85, num);
 1003684:	008040b4 	movhi	r2,258
 1003688:	10b10e04 	addi	r2,r2,-15304
 100368c:	11000017 	ldw	r4,0(r2)
 1003690:	e0bfe417 	ldw	r2,-112(fp)
 1003694:	d8800d15 	stw	r2,52(sp)
 1003698:	e0bfd917 	ldw	r2,-156(fp)
 100369c:	d8800e15 	stw	r2,56(sp)
 10036a0:	e0bff217 	ldw	r2,-56(fp)
 10036a4:	d8800015 	stw	r2,0(sp)
 10036a8:	e0bff317 	ldw	r2,-52(fp)
 10036ac:	d8800115 	stw	r2,4(sp)
 10036b0:	e0bff417 	ldw	r2,-48(fp)
 10036b4:	d8800215 	stw	r2,8(sp)
 10036b8:	e0bff517 	ldw	r2,-44(fp)
 10036bc:	d8800315 	stw	r2,12(sp)
 10036c0:	e0bff617 	ldw	r2,-40(fp)
 10036c4:	d8800415 	stw	r2,16(sp)
 10036c8:	e0bff717 	ldw	r2,-36(fp)
 10036cc:	d8800515 	stw	r2,20(sp)
 10036d0:	e0bff817 	ldw	r2,-32(fp)
 10036d4:	d8800615 	stw	r2,24(sp)
 10036d8:	e0bff917 	ldw	r2,-28(fp)
 10036dc:	d8800715 	stw	r2,28(sp)
 10036e0:	e0bffa17 	ldw	r2,-24(fp)
 10036e4:	d8800815 	stw	r2,32(sp)
 10036e8:	e0bffb17 	ldw	r2,-20(fp)
 10036ec:	d8800915 	stw	r2,36(sp)
 10036f0:	e0bffc17 	ldw	r2,-16(fp)
 10036f4:	d8800a15 	stw	r2,40(sp)
 10036f8:	e0bffd17 	ldw	r2,-12(fp)
 10036fc:	d8800b15 	stw	r2,44(sp)
 1003700:	e0bffe17 	ldw	r2,-8(fp)
 1003704:	d8800c15 	stw	r2,48(sp)
 1003708:	e17fef17 	ldw	r5,-68(fp)
 100370c:	e1bff017 	ldw	r6,-64(fp)
 1003710:	e1fff117 	ldw	r7,-60(fp)
 1003714:	10005140 	call	1000514 <draw_object>
			case 90:
				draw_object(pixel_buffer, object, s90, num);
 1003718:	008040b4 	movhi	r2,258
 100371c:	10b10e04 	addi	r2,r2,-15304
 1003720:	11000017 	ldw	r4,0(r2)
 1003724:	e0bfe317 	ldw	r2,-116(fp)
 1003728:	d8800d15 	stw	r2,52(sp)
 100372c:	e0bfd917 	ldw	r2,-156(fp)
 1003730:	d8800e15 	stw	r2,56(sp)
 1003734:	e0bff217 	ldw	r2,-56(fp)
 1003738:	d8800015 	stw	r2,0(sp)
 100373c:	e0bff317 	ldw	r2,-52(fp)
 1003740:	d8800115 	stw	r2,4(sp)
 1003744:	e0bff417 	ldw	r2,-48(fp)
 1003748:	d8800215 	stw	r2,8(sp)
 100374c:	e0bff517 	ldw	r2,-44(fp)
 1003750:	d8800315 	stw	r2,12(sp)
 1003754:	e0bff617 	ldw	r2,-40(fp)
 1003758:	d8800415 	stw	r2,16(sp)
 100375c:	e0bff717 	ldw	r2,-36(fp)
 1003760:	d8800515 	stw	r2,20(sp)
 1003764:	e0bff817 	ldw	r2,-32(fp)
 1003768:	d8800615 	stw	r2,24(sp)
 100376c:	e0bff917 	ldw	r2,-28(fp)
 1003770:	d8800715 	stw	r2,28(sp)
 1003774:	e0bffa17 	ldw	r2,-24(fp)
 1003778:	d8800815 	stw	r2,32(sp)
 100377c:	e0bffb17 	ldw	r2,-20(fp)
 1003780:	d8800915 	stw	r2,36(sp)
 1003784:	e0bffc17 	ldw	r2,-16(fp)
 1003788:	d8800a15 	stw	r2,40(sp)
 100378c:	e0bffd17 	ldw	r2,-12(fp)
 1003790:	d8800b15 	stw	r2,44(sp)
 1003794:	e0bffe17 	ldw	r2,-8(fp)
 1003798:	d8800c15 	stw	r2,48(sp)
 100379c:	e17fef17 	ldw	r5,-68(fp)
 10037a0:	e1bff017 	ldw	r6,-64(fp)
 10037a4:	e1fff117 	ldw	r7,-60(fp)
 10037a8:	10005140 	call	1000514 <draw_object>
			case 95:
				draw_object(pixel_buffer, object, s95, num);
 10037ac:	008040b4 	movhi	r2,258
 10037b0:	10b10e04 	addi	r2,r2,-15304
 10037b4:	11000017 	ldw	r4,0(r2)
 10037b8:	e0bfe217 	ldw	r2,-120(fp)
 10037bc:	d8800d15 	stw	r2,52(sp)
 10037c0:	e0bfd917 	ldw	r2,-156(fp)
 10037c4:	d8800e15 	stw	r2,56(sp)
 10037c8:	e0bff217 	ldw	r2,-56(fp)
 10037cc:	d8800015 	stw	r2,0(sp)
 10037d0:	e0bff317 	ldw	r2,-52(fp)
 10037d4:	d8800115 	stw	r2,4(sp)
 10037d8:	e0bff417 	ldw	r2,-48(fp)
 10037dc:	d8800215 	stw	r2,8(sp)
 10037e0:	e0bff517 	ldw	r2,-44(fp)
 10037e4:	d8800315 	stw	r2,12(sp)
 10037e8:	e0bff617 	ldw	r2,-40(fp)
 10037ec:	d8800415 	stw	r2,16(sp)
 10037f0:	e0bff717 	ldw	r2,-36(fp)
 10037f4:	d8800515 	stw	r2,20(sp)
 10037f8:	e0bff817 	ldw	r2,-32(fp)
 10037fc:	d8800615 	stw	r2,24(sp)
 1003800:	e0bff917 	ldw	r2,-28(fp)
 1003804:	d8800715 	stw	r2,28(sp)
 1003808:	e0bffa17 	ldw	r2,-24(fp)
 100380c:	d8800815 	stw	r2,32(sp)
 1003810:	e0bffb17 	ldw	r2,-20(fp)
 1003814:	d8800915 	stw	r2,36(sp)
 1003818:	e0bffc17 	ldw	r2,-16(fp)
 100381c:	d8800a15 	stw	r2,40(sp)
 1003820:	e0bffd17 	ldw	r2,-12(fp)
 1003824:	d8800b15 	stw	r2,44(sp)
 1003828:	e0bffe17 	ldw	r2,-8(fp)
 100382c:	d8800c15 	stw	r2,48(sp)
 1003830:	e17fef17 	ldw	r5,-68(fp)
 1003834:	e1bff017 	ldw	r6,-64(fp)
 1003838:	e1fff117 	ldw	r7,-60(fp)
 100383c:	10005140 	call	1000514 <draw_object>
			case 100:
				draw_object(pixel_buffer, object, s100, num);
 1003840:	008040b4 	movhi	r2,258
 1003844:	10b10e04 	addi	r2,r2,-15304
 1003848:	11000017 	ldw	r4,0(r2)
 100384c:	e0bfe117 	ldw	r2,-124(fp)
 1003850:	d8800d15 	stw	r2,52(sp)
 1003854:	e0bfd917 	ldw	r2,-156(fp)
 1003858:	d8800e15 	stw	r2,56(sp)
 100385c:	e0bff217 	ldw	r2,-56(fp)
 1003860:	d8800015 	stw	r2,0(sp)
 1003864:	e0bff317 	ldw	r2,-52(fp)
 1003868:	d8800115 	stw	r2,4(sp)
 100386c:	e0bff417 	ldw	r2,-48(fp)
 1003870:	d8800215 	stw	r2,8(sp)
 1003874:	e0bff517 	ldw	r2,-44(fp)
 1003878:	d8800315 	stw	r2,12(sp)
 100387c:	e0bff617 	ldw	r2,-40(fp)
 1003880:	d8800415 	stw	r2,16(sp)
 1003884:	e0bff717 	ldw	r2,-36(fp)
 1003888:	d8800515 	stw	r2,20(sp)
 100388c:	e0bff817 	ldw	r2,-32(fp)
 1003890:	d8800615 	stw	r2,24(sp)
 1003894:	e0bff917 	ldw	r2,-28(fp)
 1003898:	d8800715 	stw	r2,28(sp)
 100389c:	e0bffa17 	ldw	r2,-24(fp)
 10038a0:	d8800815 	stw	r2,32(sp)
 10038a4:	e0bffb17 	ldw	r2,-20(fp)
 10038a8:	d8800915 	stw	r2,36(sp)
 10038ac:	e0bffc17 	ldw	r2,-16(fp)
 10038b0:	d8800a15 	stw	r2,40(sp)
 10038b4:	e0bffd17 	ldw	r2,-12(fp)
 10038b8:	d8800b15 	stw	r2,44(sp)
 10038bc:	e0bffe17 	ldw	r2,-8(fp)
 10038c0:	d8800c15 	stw	r2,48(sp)
 10038c4:	e17fef17 	ldw	r5,-68(fp)
 10038c8:	e1bff017 	ldw	r6,-64(fp)
 10038cc:	e1fff117 	ldw	r7,-60(fp)
 10038d0:	10005140 	call	1000514 <draw_object>
			case 105:
				draw_object(pixel_buffer, object, s105, num);
 10038d4:	008040b4 	movhi	r2,258
 10038d8:	10b10e04 	addi	r2,r2,-15304
 10038dc:	11000017 	ldw	r4,0(r2)
 10038e0:	e0bfe017 	ldw	r2,-128(fp)
 10038e4:	d8800d15 	stw	r2,52(sp)
 10038e8:	e0bfd917 	ldw	r2,-156(fp)
 10038ec:	d8800e15 	stw	r2,56(sp)
 10038f0:	e0bff217 	ldw	r2,-56(fp)
 10038f4:	d8800015 	stw	r2,0(sp)
 10038f8:	e0bff317 	ldw	r2,-52(fp)
 10038fc:	d8800115 	stw	r2,4(sp)
 1003900:	e0bff417 	ldw	r2,-48(fp)
 1003904:	d8800215 	stw	r2,8(sp)
 1003908:	e0bff517 	ldw	r2,-44(fp)
 100390c:	d8800315 	stw	r2,12(sp)
 1003910:	e0bff617 	ldw	r2,-40(fp)
 1003914:	d8800415 	stw	r2,16(sp)
 1003918:	e0bff717 	ldw	r2,-36(fp)
 100391c:	d8800515 	stw	r2,20(sp)
 1003920:	e0bff817 	ldw	r2,-32(fp)
 1003924:	d8800615 	stw	r2,24(sp)
 1003928:	e0bff917 	ldw	r2,-28(fp)
 100392c:	d8800715 	stw	r2,28(sp)
 1003930:	e0bffa17 	ldw	r2,-24(fp)
 1003934:	d8800815 	stw	r2,32(sp)
 1003938:	e0bffb17 	ldw	r2,-20(fp)
 100393c:	d8800915 	stw	r2,36(sp)
 1003940:	e0bffc17 	ldw	r2,-16(fp)
 1003944:	d8800a15 	stw	r2,40(sp)
 1003948:	e0bffd17 	ldw	r2,-12(fp)
 100394c:	d8800b15 	stw	r2,44(sp)
 1003950:	e0bffe17 	ldw	r2,-8(fp)
 1003954:	d8800c15 	stw	r2,48(sp)
 1003958:	e17fef17 	ldw	r5,-68(fp)
 100395c:	e1bff017 	ldw	r6,-64(fp)
 1003960:	e1fff117 	ldw	r7,-60(fp)
 1003964:	10005140 	call	1000514 <draw_object>
			case 110:
				draw_object(pixel_buffer, object, s110, num);
 1003968:	008040b4 	movhi	r2,258
 100396c:	10b10e04 	addi	r2,r2,-15304
 1003970:	11000017 	ldw	r4,0(r2)
 1003974:	e0bfdf17 	ldw	r2,-132(fp)
 1003978:	d8800d15 	stw	r2,52(sp)
 100397c:	e0bfd917 	ldw	r2,-156(fp)
 1003980:	d8800e15 	stw	r2,56(sp)
 1003984:	e0bff217 	ldw	r2,-56(fp)
 1003988:	d8800015 	stw	r2,0(sp)
 100398c:	e0bff317 	ldw	r2,-52(fp)
 1003990:	d8800115 	stw	r2,4(sp)
 1003994:	e0bff417 	ldw	r2,-48(fp)
 1003998:	d8800215 	stw	r2,8(sp)
 100399c:	e0bff517 	ldw	r2,-44(fp)
 10039a0:	d8800315 	stw	r2,12(sp)
 10039a4:	e0bff617 	ldw	r2,-40(fp)
 10039a8:	d8800415 	stw	r2,16(sp)
 10039ac:	e0bff717 	ldw	r2,-36(fp)
 10039b0:	d8800515 	stw	r2,20(sp)
 10039b4:	e0bff817 	ldw	r2,-32(fp)
 10039b8:	d8800615 	stw	r2,24(sp)
 10039bc:	e0bff917 	ldw	r2,-28(fp)
 10039c0:	d8800715 	stw	r2,28(sp)
 10039c4:	e0bffa17 	ldw	r2,-24(fp)
 10039c8:	d8800815 	stw	r2,32(sp)
 10039cc:	e0bffb17 	ldw	r2,-20(fp)
 10039d0:	d8800915 	stw	r2,36(sp)
 10039d4:	e0bffc17 	ldw	r2,-16(fp)
 10039d8:	d8800a15 	stw	r2,40(sp)
 10039dc:	e0bffd17 	ldw	r2,-12(fp)
 10039e0:	d8800b15 	stw	r2,44(sp)
 10039e4:	e0bffe17 	ldw	r2,-8(fp)
 10039e8:	d8800c15 	stw	r2,48(sp)
 10039ec:	e17fef17 	ldw	r5,-68(fp)
 10039f0:	e1bff017 	ldw	r6,-64(fp)
 10039f4:	e1fff117 	ldw	r7,-60(fp)
 10039f8:	10005140 	call	1000514 <draw_object>
			case 115:
				draw_object(pixel_buffer, object, s115, num);
 10039fc:	008040b4 	movhi	r2,258
 1003a00:	10b10e04 	addi	r2,r2,-15304
 1003a04:	11000017 	ldw	r4,0(r2)
 1003a08:	e0bfde17 	ldw	r2,-136(fp)
 1003a0c:	d8800d15 	stw	r2,52(sp)
 1003a10:	e0bfd917 	ldw	r2,-156(fp)
 1003a14:	d8800e15 	stw	r2,56(sp)
 1003a18:	e0bff217 	ldw	r2,-56(fp)
 1003a1c:	d8800015 	stw	r2,0(sp)
 1003a20:	e0bff317 	ldw	r2,-52(fp)
 1003a24:	d8800115 	stw	r2,4(sp)
 1003a28:	e0bff417 	ldw	r2,-48(fp)
 1003a2c:	d8800215 	stw	r2,8(sp)
 1003a30:	e0bff517 	ldw	r2,-44(fp)
 1003a34:	d8800315 	stw	r2,12(sp)
 1003a38:	e0bff617 	ldw	r2,-40(fp)
 1003a3c:	d8800415 	stw	r2,16(sp)
 1003a40:	e0bff717 	ldw	r2,-36(fp)
 1003a44:	d8800515 	stw	r2,20(sp)
 1003a48:	e0bff817 	ldw	r2,-32(fp)
 1003a4c:	d8800615 	stw	r2,24(sp)
 1003a50:	e0bff917 	ldw	r2,-28(fp)
 1003a54:	d8800715 	stw	r2,28(sp)
 1003a58:	e0bffa17 	ldw	r2,-24(fp)
 1003a5c:	d8800815 	stw	r2,32(sp)
 1003a60:	e0bffb17 	ldw	r2,-20(fp)
 1003a64:	d8800915 	stw	r2,36(sp)
 1003a68:	e0bffc17 	ldw	r2,-16(fp)
 1003a6c:	d8800a15 	stw	r2,40(sp)
 1003a70:	e0bffd17 	ldw	r2,-12(fp)
 1003a74:	d8800b15 	stw	r2,44(sp)
 1003a78:	e0bffe17 	ldw	r2,-8(fp)
 1003a7c:	d8800c15 	stw	r2,48(sp)
 1003a80:	e17fef17 	ldw	r5,-68(fp)
 1003a84:	e1bff017 	ldw	r6,-64(fp)
 1003a88:	e1fff117 	ldw	r7,-60(fp)
 1003a8c:	10005140 	call	1000514 <draw_object>
			case 120:
				draw_object(pixel_buffer, object, s120, num);
 1003a90:	008040b4 	movhi	r2,258
 1003a94:	10b10e04 	addi	r2,r2,-15304
 1003a98:	11000017 	ldw	r4,0(r2)
 1003a9c:	e0bfdd17 	ldw	r2,-140(fp)
 1003aa0:	d8800d15 	stw	r2,52(sp)
 1003aa4:	e0bfd917 	ldw	r2,-156(fp)
 1003aa8:	d8800e15 	stw	r2,56(sp)
 1003aac:	e0bff217 	ldw	r2,-56(fp)
 1003ab0:	d8800015 	stw	r2,0(sp)
 1003ab4:	e0bff317 	ldw	r2,-52(fp)
 1003ab8:	d8800115 	stw	r2,4(sp)
 1003abc:	e0bff417 	ldw	r2,-48(fp)
 1003ac0:	d8800215 	stw	r2,8(sp)
 1003ac4:	e0bff517 	ldw	r2,-44(fp)
 1003ac8:	d8800315 	stw	r2,12(sp)
 1003acc:	e0bff617 	ldw	r2,-40(fp)
 1003ad0:	d8800415 	stw	r2,16(sp)
 1003ad4:	e0bff717 	ldw	r2,-36(fp)
 1003ad8:	d8800515 	stw	r2,20(sp)
 1003adc:	e0bff817 	ldw	r2,-32(fp)
 1003ae0:	d8800615 	stw	r2,24(sp)
 1003ae4:	e0bff917 	ldw	r2,-28(fp)
 1003ae8:	d8800715 	stw	r2,28(sp)
 1003aec:	e0bffa17 	ldw	r2,-24(fp)
 1003af0:	d8800815 	stw	r2,32(sp)
 1003af4:	e0bffb17 	ldw	r2,-20(fp)
 1003af8:	d8800915 	stw	r2,36(sp)
 1003afc:	e0bffc17 	ldw	r2,-16(fp)
 1003b00:	d8800a15 	stw	r2,40(sp)
 1003b04:	e0bffd17 	ldw	r2,-12(fp)
 1003b08:	d8800b15 	stw	r2,44(sp)
 1003b0c:	e0bffe17 	ldw	r2,-8(fp)
 1003b10:	d8800c15 	stw	r2,48(sp)
 1003b14:	e17fef17 	ldw	r5,-68(fp)
 1003b18:	e1bff017 	ldw	r6,-64(fp)
 1003b1c:	e1fff117 	ldw	r7,-60(fp)
 1003b20:	10005140 	call	1000514 <draw_object>
			case 125:
				draw_object(pixel_buffer, object, s125, num);
 1003b24:	008040b4 	movhi	r2,258
 1003b28:	10b10e04 	addi	r2,r2,-15304
 1003b2c:	11000017 	ldw	r4,0(r2)
 1003b30:	e0bfdc17 	ldw	r2,-144(fp)
 1003b34:	d8800d15 	stw	r2,52(sp)
 1003b38:	e0bfd917 	ldw	r2,-156(fp)
 1003b3c:	d8800e15 	stw	r2,56(sp)
 1003b40:	e0bff217 	ldw	r2,-56(fp)
 1003b44:	d8800015 	stw	r2,0(sp)
 1003b48:	e0bff317 	ldw	r2,-52(fp)
 1003b4c:	d8800115 	stw	r2,4(sp)
 1003b50:	e0bff417 	ldw	r2,-48(fp)
 1003b54:	d8800215 	stw	r2,8(sp)
 1003b58:	e0bff517 	ldw	r2,-44(fp)
 1003b5c:	d8800315 	stw	r2,12(sp)
 1003b60:	e0bff617 	ldw	r2,-40(fp)
 1003b64:	d8800415 	stw	r2,16(sp)
 1003b68:	e0bff717 	ldw	r2,-36(fp)
 1003b6c:	d8800515 	stw	r2,20(sp)
 1003b70:	e0bff817 	ldw	r2,-32(fp)
 1003b74:	d8800615 	stw	r2,24(sp)
 1003b78:	e0bff917 	ldw	r2,-28(fp)
 1003b7c:	d8800715 	stw	r2,28(sp)
 1003b80:	e0bffa17 	ldw	r2,-24(fp)
 1003b84:	d8800815 	stw	r2,32(sp)
 1003b88:	e0bffb17 	ldw	r2,-20(fp)
 1003b8c:	d8800915 	stw	r2,36(sp)
 1003b90:	e0bffc17 	ldw	r2,-16(fp)
 1003b94:	d8800a15 	stw	r2,40(sp)
 1003b98:	e0bffd17 	ldw	r2,-12(fp)
 1003b9c:	d8800b15 	stw	r2,44(sp)
 1003ba0:	e0bffe17 	ldw	r2,-8(fp)
 1003ba4:	d8800c15 	stw	r2,48(sp)
 1003ba8:	e17fef17 	ldw	r5,-68(fp)
 1003bac:	e1bff017 	ldw	r6,-64(fp)
 1003bb0:	e1fff117 	ldw	r7,-60(fp)
 1003bb4:	10005140 	call	1000514 <draw_object>
			case 130:
				draw_object(pixel_buffer, object, s130, num);
 1003bb8:	008040b4 	movhi	r2,258
 1003bbc:	10b10e04 	addi	r2,r2,-15304
 1003bc0:	11000017 	ldw	r4,0(r2)
 1003bc4:	e0bfdb17 	ldw	r2,-148(fp)
 1003bc8:	d8800d15 	stw	r2,52(sp)
 1003bcc:	e0bfd917 	ldw	r2,-156(fp)
 1003bd0:	d8800e15 	stw	r2,56(sp)
 1003bd4:	e0bff217 	ldw	r2,-56(fp)
 1003bd8:	d8800015 	stw	r2,0(sp)
 1003bdc:	e0bff317 	ldw	r2,-52(fp)
 1003be0:	d8800115 	stw	r2,4(sp)
 1003be4:	e0bff417 	ldw	r2,-48(fp)
 1003be8:	d8800215 	stw	r2,8(sp)
 1003bec:	e0bff517 	ldw	r2,-44(fp)
 1003bf0:	d8800315 	stw	r2,12(sp)
 1003bf4:	e0bff617 	ldw	r2,-40(fp)
 1003bf8:	d8800415 	stw	r2,16(sp)
 1003bfc:	e0bff717 	ldw	r2,-36(fp)
 1003c00:	d8800515 	stw	r2,20(sp)
 1003c04:	e0bff817 	ldw	r2,-32(fp)
 1003c08:	d8800615 	stw	r2,24(sp)
 1003c0c:	e0bff917 	ldw	r2,-28(fp)
 1003c10:	d8800715 	stw	r2,28(sp)
 1003c14:	e0bffa17 	ldw	r2,-24(fp)
 1003c18:	d8800815 	stw	r2,32(sp)
 1003c1c:	e0bffb17 	ldw	r2,-20(fp)
 1003c20:	d8800915 	stw	r2,36(sp)
 1003c24:	e0bffc17 	ldw	r2,-16(fp)
 1003c28:	d8800a15 	stw	r2,40(sp)
 1003c2c:	e0bffd17 	ldw	r2,-12(fp)
 1003c30:	d8800b15 	stw	r2,44(sp)
 1003c34:	e0bffe17 	ldw	r2,-8(fp)
 1003c38:	d8800c15 	stw	r2,48(sp)
 1003c3c:	e17fef17 	ldw	r5,-68(fp)
 1003c40:	e1bff017 	ldw	r6,-64(fp)
 1003c44:	e1fff117 	ldw	r7,-60(fp)
 1003c48:	10005140 	call	1000514 <draw_object>
			case 135:
				draw_object(pixel_buffer, object, s135, num);
 1003c4c:	008040b4 	movhi	r2,258
 1003c50:	10b10e04 	addi	r2,r2,-15304
 1003c54:	11000017 	ldw	r4,0(r2)
 1003c58:	e0bfda17 	ldw	r2,-152(fp)
 1003c5c:	d8800d15 	stw	r2,52(sp)
 1003c60:	e0bfd917 	ldw	r2,-156(fp)
 1003c64:	d8800e15 	stw	r2,56(sp)
 1003c68:	e0bff217 	ldw	r2,-56(fp)
 1003c6c:	d8800015 	stw	r2,0(sp)
 1003c70:	e0bff317 	ldw	r2,-52(fp)
 1003c74:	d8800115 	stw	r2,4(sp)
 1003c78:	e0bff417 	ldw	r2,-48(fp)
 1003c7c:	d8800215 	stw	r2,8(sp)
 1003c80:	e0bff517 	ldw	r2,-44(fp)
 1003c84:	d8800315 	stw	r2,12(sp)
 1003c88:	e0bff617 	ldw	r2,-40(fp)
 1003c8c:	d8800415 	stw	r2,16(sp)
 1003c90:	e0bff717 	ldw	r2,-36(fp)
 1003c94:	d8800515 	stw	r2,20(sp)
 1003c98:	e0bff817 	ldw	r2,-32(fp)
 1003c9c:	d8800615 	stw	r2,24(sp)
 1003ca0:	e0bff917 	ldw	r2,-28(fp)
 1003ca4:	d8800715 	stw	r2,28(sp)
 1003ca8:	e0bffa17 	ldw	r2,-24(fp)
 1003cac:	d8800815 	stw	r2,32(sp)
 1003cb0:	e0bffb17 	ldw	r2,-20(fp)
 1003cb4:	d8800915 	stw	r2,36(sp)
 1003cb8:	e0bffc17 	ldw	r2,-16(fp)
 1003cbc:	d8800a15 	stw	r2,40(sp)
 1003cc0:	e0bffd17 	ldw	r2,-12(fp)
 1003cc4:	d8800b15 	stw	r2,44(sp)
 1003cc8:	e0bffe17 	ldw	r2,-8(fp)
 1003ccc:	d8800c15 	stw	r2,48(sp)
 1003cd0:	e17fef17 	ldw	r5,-68(fp)
 1003cd4:	e1bff017 	ldw	r6,-64(fp)
 1003cd8:	e1fff117 	ldw	r7,-60(fp)
 1003cdc:	10005140 	call	1000514 <draw_object>
		//need to fine bmp for game
		// need a timer for the game
		//draw_object(axis);
		//clear_object(axis);
		int num = 0;
		for(num = 0; num < 4; num++)
 1003ce0:	e0bfd917 	ldw	r2,-156(fp)
 1003ce4:	10800044 	addi	r2,r2,1
 1003ce8:	e0bfd915 	stw	r2,-156(fp)
 1003cec:	e0bfd917 	ldw	r2,-156(fp)
 1003cf0:	10800110 	cmplti	r2,r2,4
 1003cf4:	103ccb1e 	bne	r2,zero,1003024 <tight_rope_game+0x3ec>
		}



			int i;
			int k = 0;
 1003cf8:	e03fd715 	stw	zero,-164(fp)
		for(i = 0; i < 4 ; i++)// if player fall
 1003cfc:	e03fd815 	stw	zero,-160(fp)
 1003d00:	00003706 	br	1003de0 <tight_rope_game+0x11a8>
		{
			if(player_fall[i] == 1)
 1003d04:	e0bfd817 	ldw	r2,-160(fp)
 1003d08:	00c040b4 	movhi	r3,258
 1003d0c:	18f28004 	addi	r3,r3,-13824
 1003d10:	1085883a 	add	r2,r2,r2
 1003d14:	1085883a 	add	r2,r2,r2
 1003d18:	10c5883a 	add	r2,r2,r3
 1003d1c:	10800017 	ldw	r2,0(r2)
 1003d20:	10800058 	cmpnei	r2,r2,1
 1003d24:	1000031e 	bne	r2,zero,1003d34 <tight_rope_game+0x10fc>
			{
			//draw ending screen;
			//draw_object();
			//end game for player i
			//end andriod como for player i
			k++;
 1003d28:	e0bfd717 	ldw	r2,-164(fp)
 1003d2c:	10800044 	addi	r2,r2,1
 1003d30:	e0bfd715 	stw	r2,-164(fp)
			}
			if(k == 3)
 1003d34:	e0bfd717 	ldw	r2,-164(fp)
 1003d38:	108000e0 	cmpeqi	r2,r2,3
 1003d3c:	103cb61e 	bne	r2,zero,1003018 <tight_rope_game+0x3e0>
				// show victory screen for player who didnt lose
				// option to go back to menu
				break;
			}

			clear_object(pixel_buffer, object,bg , i);
 1003d40:	008040b4 	movhi	r2,258
 1003d44:	10b10e04 	addi	r2,r2,-15304
 1003d48:	11000017 	ldw	r4,0(r2)
 1003d4c:	e0bfed17 	ldw	r2,-76(fp)
 1003d50:	d8800d15 	stw	r2,52(sp)
 1003d54:	e0bfd817 	ldw	r2,-160(fp)
 1003d58:	d8800e15 	stw	r2,56(sp)
 1003d5c:	e0bff217 	ldw	r2,-56(fp)
 1003d60:	d8800015 	stw	r2,0(sp)
 1003d64:	e0bff317 	ldw	r2,-52(fp)
 1003d68:	d8800115 	stw	r2,4(sp)
 1003d6c:	e0bff417 	ldw	r2,-48(fp)
 1003d70:	d8800215 	stw	r2,8(sp)
 1003d74:	e0bff517 	ldw	r2,-44(fp)
 1003d78:	d8800315 	stw	r2,12(sp)
 1003d7c:	e0bff617 	ldw	r2,-40(fp)
 1003d80:	d8800415 	stw	r2,16(sp)
 1003d84:	e0bff717 	ldw	r2,-36(fp)
 1003d88:	d8800515 	stw	r2,20(sp)
 1003d8c:	e0bff817 	ldw	r2,-32(fp)
 1003d90:	d8800615 	stw	r2,24(sp)
 1003d94:	e0bff917 	ldw	r2,-28(fp)
 1003d98:	d8800715 	stw	r2,28(sp)
 1003d9c:	e0bffa17 	ldw	r2,-24(fp)
 1003da0:	d8800815 	stw	r2,32(sp)
 1003da4:	e0bffb17 	ldw	r2,-20(fp)
 1003da8:	d8800915 	stw	r2,36(sp)
 1003dac:	e0bffc17 	ldw	r2,-16(fp)
 1003db0:	d8800a15 	stw	r2,40(sp)
 1003db4:	e0bffd17 	ldw	r2,-12(fp)
 1003db8:	d8800b15 	stw	r2,44(sp)
 1003dbc:	e0bffe17 	ldw	r2,-8(fp)
 1003dc0:	d8800c15 	stw	r2,48(sp)
 1003dc4:	e17fef17 	ldw	r5,-68(fp)
 1003dc8:	e1bff017 	ldw	r6,-64(fp)
 1003dcc:	e1fff117 	ldw	r7,-60(fp)
 1003dd0:	10007340 	call	1000734 <clear_object>



			int i;
			int k = 0;
		for(i = 0; i < 4 ; i++)// if player fall
 1003dd4:	e0bfd817 	ldw	r2,-160(fp)
 1003dd8:	10800044 	addi	r2,r2,1
 1003ddc:	e0bfd815 	stw	r2,-160(fp)
 1003de0:	e0bfd817 	ldw	r2,-160(fp)
 1003de4:	10800110 	cmplti	r2,r2,4
 1003de8:	103fc61e 	bne	r2,zero,1003d04 <tight_rope_game+0x10cc>
			}

			clear_object(pixel_buffer, object,bg , i);
		}

	}
 1003dec:	003c8a06 	br	1003018 <tight_rope_game+0x3e0>

01003df0 <acc>:

}
int acc(int axis)
{
 1003df0:	defffb04 	addi	sp,sp,-20
 1003df4:	df000415 	stw	fp,16(sp)
 1003df8:	df000404 	addi	fp,sp,16
 1003dfc:	e13ffe15 	stw	r4,-8(fp)
	int Rlimit  = 70; // if the angle is higher or lower than a certain degree, acc the changes
 1003e00:	00801184 	movi	r2,70
 1003e04:	e0bffd15 	stw	r2,-12(fp)
	//might need higher degree of changes
	int Llimit = 110;
 1003e08:	00801b84 	movi	r2,110
 1003e0c:	e0bffc15 	stw	r2,-16(fp)
	if(axis < Rlimit)
 1003e10:	e0fffe17 	ldw	r3,-8(fp)
 1003e14:	e0bffd17 	ldw	r2,-12(fp)
 1003e18:	1880040e 	bge	r3,r2,1003e2c <acc+0x3c>
		return axis - 10;
 1003e1c:	e0bffe17 	ldw	r2,-8(fp)
 1003e20:	10bffd84 	addi	r2,r2,-10
 1003e24:	e0bfff15 	stw	r2,-4(fp)
 1003e28:	00000906 	br	1003e50 <acc+0x60>
	else if( axis < Llimit )
 1003e2c:	e0fffe17 	ldw	r3,-8(fp)
 1003e30:	e0bffc17 	ldw	r2,-16(fp)
 1003e34:	1880040e 	bge	r3,r2,1003e48 <acc+0x58>
		return axis + 10;
 1003e38:	e0bffe17 	ldw	r2,-8(fp)
 1003e3c:	10800284 	addi	r2,r2,10
 1003e40:	e0bfff15 	stw	r2,-4(fp)
 1003e44:	00000206 	br	1003e50 <acc+0x60>
	else
		return axis;
 1003e48:	e0bffe17 	ldw	r2,-8(fp)
 1003e4c:	e0bfff15 	stw	r2,-4(fp)
 1003e50:	e0bfff17 	ldw	r2,-4(fp)
}
 1003e54:	e037883a 	mov	sp,fp
 1003e58:	df000017 	ldw	fp,0(sp)
 1003e5c:	dec00104 	addi	sp,sp,4
 1003e60:	f800283a 	ret

01003e64 <wind>:

void wind(int i , int dir) //wind pushes player one way or another,
{
 1003e64:	defffd04 	addi	sp,sp,-12
 1003e68:	df000215 	stw	fp,8(sp)
 1003e6c:	df000204 	addi	fp,sp,8
 1003e70:	e13ffe15 	stw	r4,-8(fp)
 1003e74:	e17fff15 	stw	r5,-4(fp)
	if(dir == 1)// some random fact that affects the way wind pushes
 1003e78:	e0bfff17 	ldw	r2,-4(fp)
 1003e7c:	10800058 	cmpnei	r2,r2,1
 1003e80:	1000101e 	bne	r2,zero,1003ec4 <wind+0x60>
	{
		 axis[i] -= 10;
 1003e84:	e17ffe17 	ldw	r5,-8(fp)
 1003e88:	e0bffe17 	ldw	r2,-8(fp)
 1003e8c:	00c040b4 	movhi	r3,258
 1003e90:	18f28404 	addi	r3,r3,-13808
 1003e94:	1085883a 	add	r2,r2,r2
 1003e98:	1085883a 	add	r2,r2,r2
 1003e9c:	10c5883a 	add	r2,r2,r3
 1003ea0:	10800017 	ldw	r2,0(r2)
 1003ea4:	113ffd84 	addi	r4,r2,-10
 1003ea8:	00c040b4 	movhi	r3,258
 1003eac:	18f28404 	addi	r3,r3,-13808
 1003eb0:	2945883a 	add	r2,r5,r5
 1003eb4:	1085883a 	add	r2,r2,r2
 1003eb8:	10c5883a 	add	r2,r2,r3
 1003ebc:	11000015 	stw	r4,0(r2)
 1003ec0:	00000f06 	br	1003f00 <wind+0x9c>
	}
	else
	{
		 axis[i] += 10;
 1003ec4:	e17ffe17 	ldw	r5,-8(fp)
 1003ec8:	e0bffe17 	ldw	r2,-8(fp)
 1003ecc:	00c040b4 	movhi	r3,258
 1003ed0:	18f28404 	addi	r3,r3,-13808
 1003ed4:	1085883a 	add	r2,r2,r2
 1003ed8:	1085883a 	add	r2,r2,r2
 1003edc:	10c5883a 	add	r2,r2,r3
 1003ee0:	10800017 	ldw	r2,0(r2)
 1003ee4:	11000284 	addi	r4,r2,10
 1003ee8:	00c040b4 	movhi	r3,258
 1003eec:	18f28404 	addi	r3,r3,-13808
 1003ef0:	2945883a 	add	r2,r5,r5
 1003ef4:	1085883a 	add	r2,r2,r2
 1003ef8:	10c5883a 	add	r2,r2,r3
 1003efc:	11000015 	stw	r4,0(r2)
	}

}
 1003f00:	e037883a 	mov	sp,fp
 1003f04:	df000017 	ldw	fp,0(sp)
 1003f08:	dec00104 	addi	sp,sp,4
 1003f0c:	f800283a 	ret

01003f10 <cal_fall>:


void cal_fall(int axis, int i) // check if the angle of over a limit, if it is ends the game
{
 1003f10:	defffd04 	addi	sp,sp,-12
 1003f14:	df000215 	stw	fp,8(sp)
 1003f18:	df000204 	addi	fp,sp,8
 1003f1c:	e13ffe15 	stw	r4,-8(fp)
 1003f20:	e17fff15 	stw	r5,-4(fp)

	if(axis > RSL || axis < LSL)
 1003f24:	d0e00017 	ldw	r3,-32768(gp)
 1003f28:	e0bffe17 	ldw	r2,-8(fp)
 1003f2c:	18800316 	blt	r3,r2,1003f3c <cal_fall+0x2c>
 1003f30:	d0e00117 	ldw	r3,-32764(gp)
 1003f34:	e0bffe17 	ldw	r2,-8(fp)
 1003f38:	10c0090e 	bge	r2,r3,1003f60 <cal_fall+0x50>
		player_fall[i] = 1;
 1003f3c:	e0bfff17 	ldw	r2,-4(fp)
 1003f40:	00c040b4 	movhi	r3,258
 1003f44:	18f28004 	addi	r3,r3,-13824
 1003f48:	1085883a 	add	r2,r2,r2
 1003f4c:	1085883a 	add	r2,r2,r2
 1003f50:	10c7883a 	add	r3,r2,r3
 1003f54:	00800044 	movi	r2,1
 1003f58:	18800015 	stw	r2,0(r3)


void cal_fall(int axis, int i) // check if the angle of over a limit, if it is ends the game
{

	if(axis > RSL || axis < LSL)
 1003f5c:	00000706 	br	1003f7c <cal_fall+0x6c>
		player_fall[i] = 1;
	else
		player_fall[i] = 0;
 1003f60:	e0bfff17 	ldw	r2,-4(fp)
 1003f64:	00c040b4 	movhi	r3,258
 1003f68:	18f28004 	addi	r3,r3,-13824
 1003f6c:	1085883a 	add	r2,r2,r2
 1003f70:	1085883a 	add	r2,r2,r2
 1003f74:	10c5883a 	add	r2,r2,r3
 1003f78:	10000015 	stw	zero,0(r2)


}
 1003f7c:	e037883a 	mov	sp,fp
 1003f80:	df000017 	ldw	fp,0(sp)
 1003f84:	dec00104 	addi	sp,sp,4
 1003f88:	f800283a 	ret

01003f8c <handle_timer_interrupts>:
void handle_timer_interrupts(){ //Interrupt for when hardware timer counts to zero
 1003f8c:	defffc04 	addi	sp,sp,-16
 1003f90:	dfc00315 	stw	ra,12(sp)
 1003f94:	df000215 	stw	fp,8(sp)
 1003f98:	dc000115 	stw	r16,4(sp)
 1003f9c:	df000104 	addi	fp,sp,4
	//update the info, checks
	//axis[4] = ANDRIOD_INPUT[4];


	int i;
	for(i = 0; i< 4; i++)
 1003fa0:	e03fff15 	stw	zero,-4(fp)
 1003fa4:	00006d06 	br	100415c <handle_timer_interrupts+0x1d0>
	{
		if(axis[i] > RSL && axis[i] < mid )
 1003fa8:	e0bfff17 	ldw	r2,-4(fp)
 1003fac:	00c040b4 	movhi	r3,258
 1003fb0:	18f28404 	addi	r3,r3,-13808
 1003fb4:	1085883a 	add	r2,r2,r2
 1003fb8:	1085883a 	add	r2,r2,r2
 1003fbc:	10c5883a 	add	r2,r2,r3
 1003fc0:	10c00017 	ldw	r3,0(r2)
 1003fc4:	d0a00017 	ldw	r2,-32768(gp)
 1003fc8:	10c0190e 	bge	r2,r3,1004030 <handle_timer_interrupts+0xa4>
 1003fcc:	e0bfff17 	ldw	r2,-4(fp)
 1003fd0:	00c040b4 	movhi	r3,258
 1003fd4:	18f28404 	addi	r3,r3,-13808
 1003fd8:	1085883a 	add	r2,r2,r2
 1003fdc:	1085883a 	add	r2,r2,r2
 1003fe0:	10c5883a 	add	r2,r2,r3
 1003fe4:	10c00017 	ldw	r3,0(r2)
 1003fe8:	d0a00217 	ldw	r2,-32760(gp)
 1003fec:	1880100e 	bge	r3,r2,1004030 <handle_timer_interrupts+0xa4>
			axis[i] -= 5;
 1003ff0:	e17fff17 	ldw	r5,-4(fp)
 1003ff4:	e0bfff17 	ldw	r2,-4(fp)
 1003ff8:	00c040b4 	movhi	r3,258
 1003ffc:	18f28404 	addi	r3,r3,-13808
 1004000:	1085883a 	add	r2,r2,r2
 1004004:	1085883a 	add	r2,r2,r2
 1004008:	10c5883a 	add	r2,r2,r3
 100400c:	10800017 	ldw	r2,0(r2)
 1004010:	113ffec4 	addi	r4,r2,-5
 1004014:	00c040b4 	movhi	r3,258
 1004018:	18f28404 	addi	r3,r3,-13808
 100401c:	2945883a 	add	r2,r5,r5
 1004020:	1085883a 	add	r2,r2,r2
 1004024:	10c5883a 	add	r2,r2,r3
 1004028:	11000015 	stw	r4,0(r2)


	int i;
	for(i = 0; i< 4; i++)
	{
		if(axis[i] > RSL && axis[i] < mid )
 100402c:	00002106 	br	10040b4 <handle_timer_interrupts+0x128>
			axis[i] -= 5;
		else if(axis[i] < LSL && axis[i] > mid)
 1004030:	e0bfff17 	ldw	r2,-4(fp)
 1004034:	00c040b4 	movhi	r3,258
 1004038:	18f28404 	addi	r3,r3,-13808
 100403c:	1085883a 	add	r2,r2,r2
 1004040:	1085883a 	add	r2,r2,r2
 1004044:	10c5883a 	add	r2,r2,r3
 1004048:	10c00017 	ldw	r3,0(r2)
 100404c:	d0a00117 	ldw	r2,-32764(gp)
 1004050:	1880180e 	bge	r3,r2,10040b4 <handle_timer_interrupts+0x128>
 1004054:	e0bfff17 	ldw	r2,-4(fp)
 1004058:	00c040b4 	movhi	r3,258
 100405c:	18f28404 	addi	r3,r3,-13808
 1004060:	1085883a 	add	r2,r2,r2
 1004064:	1085883a 	add	r2,r2,r2
 1004068:	10c5883a 	add	r2,r2,r3
 100406c:	10c00017 	ldw	r3,0(r2)
 1004070:	d0a00217 	ldw	r2,-32760(gp)
 1004074:	10c00f0e 	bge	r2,r3,10040b4 <handle_timer_interrupts+0x128>
			axis[i] +=5;
 1004078:	e17fff17 	ldw	r5,-4(fp)
 100407c:	e0bfff17 	ldw	r2,-4(fp)
 1004080:	00c040b4 	movhi	r3,258
 1004084:	18f28404 	addi	r3,r3,-13808
 1004088:	1085883a 	add	r2,r2,r2
 100408c:	1085883a 	add	r2,r2,r2
 1004090:	10c5883a 	add	r2,r2,r3
 1004094:	10800017 	ldw	r2,0(r2)
 1004098:	11000144 	addi	r4,r2,5
 100409c:	00c040b4 	movhi	r3,258
 10040a0:	18f28404 	addi	r3,r3,-13808
 10040a4:	2945883a 	add	r2,r5,r5
 10040a8:	1085883a 	add	r2,r2,r2
 10040ac:	10c5883a 	add	r2,r2,r3
 10040b0:	11000015 	stw	r4,0(r2)

		if(wind_now == 5000)
 10040b4:	d0a73417 	ldw	r2,-25392(gp)
 10040b8:	1084e218 	cmpnei	r2,r2,5000
 10040bc:	1000041e 	bne	r2,zero,10040d0 <handle_timer_interrupts+0x144>
			wind(i,1);
 10040c0:	e13fff17 	ldw	r4,-4(fp)
 10040c4:	01400044 	movi	r5,1
 10040c8:	1003e640 	call	1003e64 <wind>
 10040cc:	00000706 	br	10040ec <handle_timer_interrupts+0x160>
		else if(wind_now == 9999)
 10040d0:	d0a73417 	ldw	r2,-25392(gp)
 10040d4:	1089c3d8 	cmpnei	r2,r2,9999
 10040d8:	1000041e 	bne	r2,zero,10040ec <handle_timer_interrupts+0x160>
		{
			wind(i,0);
 10040dc:	e13fff17 	ldw	r4,-4(fp)
 10040e0:	000b883a 	mov	r5,zero
 10040e4:	1003e640 	call	1003e64 <wind>
			wind_now = 0;
 10040e8:	d0273415 	stw	zero,-25392(gp)
		}
		//axis[i] = wind(axis[i]);
		axis[i] = acc(axis[i]);
 10040ec:	e43fff17 	ldw	r16,-4(fp)
 10040f0:	e0bfff17 	ldw	r2,-4(fp)
 10040f4:	00c040b4 	movhi	r3,258
 10040f8:	18f28404 	addi	r3,r3,-13808
 10040fc:	1085883a 	add	r2,r2,r2
 1004100:	1085883a 	add	r2,r2,r2
 1004104:	10c5883a 	add	r2,r2,r3
 1004108:	11000017 	ldw	r4,0(r2)
 100410c:	1003df00 	call	1003df0 <acc>
 1004110:	1009883a 	mov	r4,r2
 1004114:	00c040b4 	movhi	r3,258
 1004118:	18f28404 	addi	r3,r3,-13808
 100411c:	8405883a 	add	r2,r16,r16
 1004120:	1085883a 	add	r2,r2,r2
 1004124:	10c5883a 	add	r2,r2,r3
 1004128:	11000015 	stw	r4,0(r2)
		cal_fall(axis[i], i);
 100412c:	e0bfff17 	ldw	r2,-4(fp)
 1004130:	00c040b4 	movhi	r3,258
 1004134:	18f28404 	addi	r3,r3,-13808
 1004138:	1085883a 	add	r2,r2,r2
 100413c:	1085883a 	add	r2,r2,r2
 1004140:	10c5883a 	add	r2,r2,r3
 1004144:	11000017 	ldw	r4,0(r2)
 1004148:	e17fff17 	ldw	r5,-4(fp)
 100414c:	1003f100 	call	1003f10 <cal_fall>
	//update the info, checks
	//axis[4] = ANDRIOD_INPUT[4];


	int i;
	for(i = 0; i< 4; i++)
 1004150:	e0bfff17 	ldw	r2,-4(fp)
 1004154:	10800044 	addi	r2,r2,1
 1004158:	e0bfff15 	stw	r2,-4(fp)
 100415c:	e0bfff17 	ldw	r2,-4(fp)
 1004160:	10800110 	cmplti	r2,r2,4
 1004164:	103f901e 	bne	r2,zero,1003fa8 <handle_timer_interrupts+0x1c>





	IOWR_16DIRECT(TIMER_0_BASE,0,0); //needed to show that interrupt finished executing
 1004168:	00910804 	movi	r2,17440
 100416c:	1000002d 	sthio	zero,0(r2)
	IOWR_16DIRECT(TIMER_0_BASE,4,0x5); //restarts the hardware timer before exiting the isr
 1004170:	00d10904 	movi	r3,17444
 1004174:	00800144 	movi	r2,5
 1004178:	1880002d 	sthio	r2,0(r3)
	return;
}
 100417c:	e037883a 	mov	sp,fp
 1004180:	dfc00217 	ldw	ra,8(sp)
 1004184:	df000117 	ldw	fp,4(sp)
 1004188:	dc000017 	ldw	r16,0(sp)
 100418c:	dec00304 	addi	sp,sp,12
 1004190:	f800283a 	ret

01004194 <dump_data>:

void dump_data(unsigned char id, unsigned char *data){
 1004194:	defffd04 	addi	sp,sp,-12
 1004198:	df000215 	stw	fp,8(sp)
 100419c:	df000204 	addi	fp,sp,8
 10041a0:	e17fff15 	stw	r5,-4(fp)
 10041a4:	e13ffe05 	stb	r4,-8(fp)
	if(id==p.pid0){
 10041a8:	008040b4 	movhi	r2,258
 10041ac:	10b13a04 	addi	r2,r2,-15128
 10041b0:	10802103 	ldbu	r2,132(r2)
 10041b4:	10c03fcc 	andi	r3,r2,255
 10041b8:	e0bffe03 	ldbu	r2,-8(fp)
 10041bc:	1880061e 	bne	r3,r2,10041d8 <dump_data+0x44>
		ANDROID_INPUT[0] = *((float*)data);
 10041c0:	e0bfff17 	ldw	r2,-4(fp)
 10041c4:	10c00017 	ldw	r3,0(r2)
 10041c8:	008040b4 	movhi	r2,258
 10041cc:	10b27c04 	addi	r2,r2,-13840
 10041d0:	10c00015 	stw	r3,0(r2)
 10041d4:	00001d06 	br	100424c <dump_data+0xb8>
	}else if(id==p.pid1){
 10041d8:	008040b4 	movhi	r2,258
 10041dc:	10b13a04 	addi	r2,r2,-15128
 10041e0:	10802143 	ldbu	r2,133(r2)
 10041e4:	10c03fcc 	andi	r3,r2,255
 10041e8:	e0bffe03 	ldbu	r2,-8(fp)
 10041ec:	1880061e 	bne	r3,r2,1004208 <dump_data+0x74>
		ANDROID_INPUT[1] = *((float*)data);
 10041f0:	e0bfff17 	ldw	r2,-4(fp)
 10041f4:	10c00017 	ldw	r3,0(r2)
 10041f8:	008040b4 	movhi	r2,258
 10041fc:	10b27c04 	addi	r2,r2,-13840
 1004200:	10c00115 	stw	r3,4(r2)
 1004204:	00001106 	br	100424c <dump_data+0xb8>
	}else if(id==p.pid2){
 1004208:	008040b4 	movhi	r2,258
 100420c:	10b13a04 	addi	r2,r2,-15128
 1004210:	10802183 	ldbu	r2,134(r2)
 1004214:	10c03fcc 	andi	r3,r2,255
 1004218:	e0bffe03 	ldbu	r2,-8(fp)
 100421c:	1880061e 	bne	r3,r2,1004238 <dump_data+0xa4>
		ANDROID_INPUT[2] = *((float*)data);
 1004220:	e0bfff17 	ldw	r2,-4(fp)
 1004224:	10c00017 	ldw	r3,0(r2)
 1004228:	008040b4 	movhi	r2,258
 100422c:	10b27c04 	addi	r2,r2,-13840
 1004230:	10c00215 	stw	r3,8(r2)
 1004234:	00000506 	br	100424c <dump_data+0xb8>
	}else{
		ANDROID_INPUT[3] = *((float*)data); //TODO might be wrong
 1004238:	e0bfff17 	ldw	r2,-4(fp)
 100423c:	10c00017 	ldw	r3,0(r2)
 1004240:	008040b4 	movhi	r2,258
 1004244:	10b27c04 	addi	r2,r2,-13840
 1004248:	10c00315 	stw	r3,12(r2)
	}
}
 100424c:	e037883a 	mov	sp,fp
 1004250:	df000017 	ldw	fp,0(sp)
 1004254:	dec00104 	addi	sp,sp,4
 1004258:	f800283a 	ret

0100425c <_atoi_r>:
 100425c:	000d883a 	mov	r6,zero
 1004260:	01c00284 	movi	r7,10
 1004264:	1004ce41 	jmpi	1004ce4 <_strtol_r>

01004268 <atoi>:
 1004268:	000b883a 	mov	r5,zero
 100426c:	01800284 	movi	r6,10
 1004270:	1004f281 	jmpi	1004f28 <strtol>

01004274 <free>:
 1004274:	008040b4 	movhi	r2,258
 1004278:	10a9e904 	addi	r2,r2,-22620
 100427c:	200b883a 	mov	r5,r4
 1004280:	11000017 	ldw	r4,0(r2)
 1004284:	1008d981 	jmpi	1008d98 <_free_r>

01004288 <malloc>:
 1004288:	008040b4 	movhi	r2,258
 100428c:	10a9e904 	addi	r2,r2,-22620
 1004290:	200b883a 	mov	r5,r4
 1004294:	11000017 	ldw	r4,0(r2)
 1004298:	100429c1 	jmpi	100429c <_malloc_r>

0100429c <_malloc_r>:
 100429c:	defff604 	addi	sp,sp,-40
 10042a0:	28c002c4 	addi	r3,r5,11
 10042a4:	00800584 	movi	r2,22
 10042a8:	dc800215 	stw	r18,8(sp)
 10042ac:	dfc00915 	stw	ra,36(sp)
 10042b0:	df000815 	stw	fp,32(sp)
 10042b4:	ddc00715 	stw	r23,28(sp)
 10042b8:	dd800615 	stw	r22,24(sp)
 10042bc:	dd400515 	stw	r21,20(sp)
 10042c0:	dd000415 	stw	r20,16(sp)
 10042c4:	dcc00315 	stw	r19,12(sp)
 10042c8:	dc400115 	stw	r17,4(sp)
 10042cc:	dc000015 	stw	r16,0(sp)
 10042d0:	2025883a 	mov	r18,r4
 10042d4:	10c01236 	bltu	r2,r3,1004320 <_malloc_r+0x84>
 10042d8:	04400404 	movi	r17,16
 10042dc:	8940142e 	bgeu	r17,r5,1004330 <_malloc_r+0x94>
 10042e0:	00800304 	movi	r2,12
 10042e4:	0007883a 	mov	r3,zero
 10042e8:	90800015 	stw	r2,0(r18)
 10042ec:	1805883a 	mov	r2,r3
 10042f0:	dfc00917 	ldw	ra,36(sp)
 10042f4:	df000817 	ldw	fp,32(sp)
 10042f8:	ddc00717 	ldw	r23,28(sp)
 10042fc:	dd800617 	ldw	r22,24(sp)
 1004300:	dd400517 	ldw	r21,20(sp)
 1004304:	dd000417 	ldw	r20,16(sp)
 1004308:	dcc00317 	ldw	r19,12(sp)
 100430c:	dc800217 	ldw	r18,8(sp)
 1004310:	dc400117 	ldw	r17,4(sp)
 1004314:	dc000017 	ldw	r16,0(sp)
 1004318:	dec00a04 	addi	sp,sp,40
 100431c:	f800283a 	ret
 1004320:	00bffe04 	movi	r2,-8
 1004324:	18a2703a 	and	r17,r3,r2
 1004328:	883fed16 	blt	r17,zero,10042e0 <_malloc_r+0x44>
 100432c:	897fec36 	bltu	r17,r5,10042e0 <_malloc_r+0x44>
 1004330:	9009883a 	mov	r4,r18
 1004334:	100e8bc0 	call	100e8bc <__malloc_lock>
 1004338:	00807dc4 	movi	r2,503
 100433c:	14402b2e 	bgeu	r2,r17,10043ec <_malloc_r+0x150>
 1004340:	8806d27a 	srli	r3,r17,9
 1004344:	18003f1e 	bne	r3,zero,1004444 <_malloc_r+0x1a8>
 1004348:	880cd0fa 	srli	r6,r17,3
 100434c:	300490fa 	slli	r2,r6,3
 1004350:	02c040b4 	movhi	r11,258
 1004354:	5ae2e104 	addi	r11,r11,-29820
 1004358:	12cb883a 	add	r5,r2,r11
 100435c:	2c000317 	ldw	r16,12(r5)
 1004360:	580f883a 	mov	r7,r11
 1004364:	2c00041e 	bne	r5,r16,1004378 <_malloc_r+0xdc>
 1004368:	00000a06 	br	1004394 <_malloc_r+0xf8>
 100436c:	1800860e 	bge	r3,zero,1004588 <_malloc_r+0x2ec>
 1004370:	84000317 	ldw	r16,12(r16)
 1004374:	2c000726 	beq	r5,r16,1004394 <_malloc_r+0xf8>
 1004378:	80800117 	ldw	r2,4(r16)
 100437c:	00ffff04 	movi	r3,-4
 1004380:	10c8703a 	and	r4,r2,r3
 1004384:	2447c83a 	sub	r3,r4,r17
 1004388:	008003c4 	movi	r2,15
 100438c:	10fff70e 	bge	r2,r3,100436c <_malloc_r+0xd0>
 1004390:	31bfffc4 	addi	r6,r6,-1
 1004394:	32400044 	addi	r9,r6,1
 1004398:	028040b4 	movhi	r10,258
 100439c:	52a2e304 	addi	r10,r10,-29812
 10043a0:	54000217 	ldw	r16,8(r10)
 10043a4:	8280a026 	beq	r16,r10,1004628 <_malloc_r+0x38c>
 10043a8:	80800117 	ldw	r2,4(r16)
 10043ac:	00ffff04 	movi	r3,-4
 10043b0:	10ca703a 	and	r5,r2,r3
 10043b4:	2c4dc83a 	sub	r6,r5,r17
 10043b8:	008003c4 	movi	r2,15
 10043bc:	11808316 	blt	r2,r6,10045cc <_malloc_r+0x330>
 10043c0:	52800315 	stw	r10,12(r10)
 10043c4:	52800215 	stw	r10,8(r10)
 10043c8:	30002916 	blt	r6,zero,1004470 <_malloc_r+0x1d4>
 10043cc:	8147883a 	add	r3,r16,r5
 10043d0:	18800117 	ldw	r2,4(r3)
 10043d4:	9009883a 	mov	r4,r18
 10043d8:	10800054 	ori	r2,r2,1
 10043dc:	18800115 	stw	r2,4(r3)
 10043e0:	100e8dc0 	call	100e8dc <__malloc_unlock>
 10043e4:	80c00204 	addi	r3,r16,8
 10043e8:	003fc006 	br	10042ec <_malloc_r+0x50>
 10043ec:	02c040b4 	movhi	r11,258
 10043f0:	5ae2e104 	addi	r11,r11,-29820
 10043f4:	8ac5883a 	add	r2,r17,r11
 10043f8:	14000317 	ldw	r16,12(r2)
 10043fc:	580f883a 	mov	r7,r11
 1004400:	8806d0fa 	srli	r3,r17,3
 1004404:	14006c26 	beq	r2,r16,10045b8 <_malloc_r+0x31c>
 1004408:	80c00117 	ldw	r3,4(r16)
 100440c:	00bfff04 	movi	r2,-4
 1004410:	81800317 	ldw	r6,12(r16)
 1004414:	1886703a 	and	r3,r3,r2
 1004418:	80c7883a 	add	r3,r16,r3
 100441c:	18800117 	ldw	r2,4(r3)
 1004420:	81400217 	ldw	r5,8(r16)
 1004424:	9009883a 	mov	r4,r18
 1004428:	10800054 	ori	r2,r2,1
 100442c:	18800115 	stw	r2,4(r3)
 1004430:	31400215 	stw	r5,8(r6)
 1004434:	29800315 	stw	r6,12(r5)
 1004438:	100e8dc0 	call	100e8dc <__malloc_unlock>
 100443c:	80c00204 	addi	r3,r16,8
 1004440:	003faa06 	br	10042ec <_malloc_r+0x50>
 1004444:	00800104 	movi	r2,4
 1004448:	10c0052e 	bgeu	r2,r3,1004460 <_malloc_r+0x1c4>
 100444c:	00800504 	movi	r2,20
 1004450:	10c07836 	bltu	r2,r3,1004634 <_malloc_r+0x398>
 1004454:	198016c4 	addi	r6,r3,91
 1004458:	300490fa 	slli	r2,r6,3
 100445c:	003fbc06 	br	1004350 <_malloc_r+0xb4>
 1004460:	8804d1ba 	srli	r2,r17,6
 1004464:	11800e04 	addi	r6,r2,56
 1004468:	300490fa 	slli	r2,r6,3
 100446c:	003fb806 	br	1004350 <_malloc_r+0xb4>
 1004470:	00807fc4 	movi	r2,511
 1004474:	1140bb36 	bltu	r2,r5,1004764 <_malloc_r+0x4c8>
 1004478:	2806d0fa 	srli	r3,r5,3
 100447c:	573ffe04 	addi	fp,r10,-8
 1004480:	00800044 	movi	r2,1
 1004484:	180890fa 	slli	r4,r3,3
 1004488:	1807d0ba 	srai	r3,r3,2
 100448c:	e1c00117 	ldw	r7,4(fp)
 1004490:	5909883a 	add	r4,r11,r4
 1004494:	21400217 	ldw	r5,8(r4)
 1004498:	10c4983a 	sll	r2,r2,r3
 100449c:	81000315 	stw	r4,12(r16)
 10044a0:	81400215 	stw	r5,8(r16)
 10044a4:	388eb03a 	or	r7,r7,r2
 10044a8:	2c000315 	stw	r16,12(r5)
 10044ac:	24000215 	stw	r16,8(r4)
 10044b0:	e1c00115 	stw	r7,4(fp)
 10044b4:	4807883a 	mov	r3,r9
 10044b8:	4800cd16 	blt	r9,zero,10047f0 <_malloc_r+0x554>
 10044bc:	1807d0ba 	srai	r3,r3,2
 10044c0:	00800044 	movi	r2,1
 10044c4:	10c8983a 	sll	r4,r2,r3
 10044c8:	39004436 	bltu	r7,r4,10045dc <_malloc_r+0x340>
 10044cc:	21c4703a 	and	r2,r4,r7
 10044d0:	10000a1e 	bne	r2,zero,10044fc <_malloc_r+0x260>
 10044d4:	2109883a 	add	r4,r4,r4
 10044d8:	00bfff04 	movi	r2,-4
 10044dc:	4884703a 	and	r2,r9,r2
 10044e0:	3906703a 	and	r3,r7,r4
 10044e4:	12400104 	addi	r9,r2,4
 10044e8:	1800041e 	bne	r3,zero,10044fc <_malloc_r+0x260>
 10044ec:	2109883a 	add	r4,r4,r4
 10044f0:	3904703a 	and	r2,r7,r4
 10044f4:	4a400104 	addi	r9,r9,4
 10044f8:	103ffc26 	beq	r2,zero,10044ec <_malloc_r+0x250>
 10044fc:	480490fa 	slli	r2,r9,3
 1004500:	4819883a 	mov	r12,r9
 1004504:	023fff04 	movi	r8,-4
 1004508:	589b883a 	add	r13,r11,r2
 100450c:	6807883a 	mov	r3,r13
 1004510:	014003c4 	movi	r5,15
 1004514:	1c000317 	ldw	r16,12(r3)
 1004518:	1c00041e 	bne	r3,r16,100452c <_malloc_r+0x290>
 100451c:	0000a706 	br	10047bc <_malloc_r+0x520>
 1004520:	3000ab0e 	bge	r6,zero,10047d0 <_malloc_r+0x534>
 1004524:	84000317 	ldw	r16,12(r16)
 1004528:	1c00a426 	beq	r3,r16,10047bc <_malloc_r+0x520>
 100452c:	80800117 	ldw	r2,4(r16)
 1004530:	1204703a 	and	r2,r2,r8
 1004534:	144dc83a 	sub	r6,r2,r17
 1004538:	29bff90e 	bge	r5,r6,1004520 <_malloc_r+0x284>
 100453c:	81000317 	ldw	r4,12(r16)
 1004540:	80c00217 	ldw	r3,8(r16)
 1004544:	89400054 	ori	r5,r17,1
 1004548:	8445883a 	add	r2,r16,r17
 100454c:	20c00215 	stw	r3,8(r4)
 1004550:	19000315 	stw	r4,12(r3)
 1004554:	81400115 	stw	r5,4(r16)
 1004558:	1187883a 	add	r3,r2,r6
 100455c:	31000054 	ori	r4,r6,1
 1004560:	50800315 	stw	r2,12(r10)
 1004564:	50800215 	stw	r2,8(r10)
 1004568:	19800015 	stw	r6,0(r3)
 100456c:	11000115 	stw	r4,4(r2)
 1004570:	12800215 	stw	r10,8(r2)
 1004574:	12800315 	stw	r10,12(r2)
 1004578:	9009883a 	mov	r4,r18
 100457c:	100e8dc0 	call	100e8dc <__malloc_unlock>
 1004580:	80c00204 	addi	r3,r16,8
 1004584:	003f5906 	br	10042ec <_malloc_r+0x50>
 1004588:	8109883a 	add	r4,r16,r4
 100458c:	20800117 	ldw	r2,4(r4)
 1004590:	80c00217 	ldw	r3,8(r16)
 1004594:	81400317 	ldw	r5,12(r16)
 1004598:	10800054 	ori	r2,r2,1
 100459c:	20800115 	stw	r2,4(r4)
 10045a0:	28c00215 	stw	r3,8(r5)
 10045a4:	19400315 	stw	r5,12(r3)
 10045a8:	9009883a 	mov	r4,r18
 10045ac:	100e8dc0 	call	100e8dc <__malloc_unlock>
 10045b0:	80c00204 	addi	r3,r16,8
 10045b4:	003f4d06 	br	10042ec <_malloc_r+0x50>
 10045b8:	80800204 	addi	r2,r16,8
 10045bc:	14000317 	ldw	r16,12(r2)
 10045c0:	143f911e 	bne	r2,r16,1004408 <_malloc_r+0x16c>
 10045c4:	1a400084 	addi	r9,r3,2
 10045c8:	003f7306 	br	1004398 <_malloc_r+0xfc>
 10045cc:	88c00054 	ori	r3,r17,1
 10045d0:	8445883a 	add	r2,r16,r17
 10045d4:	80c00115 	stw	r3,4(r16)
 10045d8:	003fdf06 	br	1004558 <_malloc_r+0x2bc>
 10045dc:	e4000217 	ldw	r16,8(fp)
 10045e0:	00bfff04 	movi	r2,-4
 10045e4:	80c00117 	ldw	r3,4(r16)
 10045e8:	802d883a 	mov	r22,r16
 10045ec:	18aa703a 	and	r21,r3,r2
 10045f0:	ac401636 	bltu	r21,r17,100464c <_malloc_r+0x3b0>
 10045f4:	ac49c83a 	sub	r4,r21,r17
 10045f8:	008003c4 	movi	r2,15
 10045fc:	1100130e 	bge	r2,r4,100464c <_malloc_r+0x3b0>
 1004600:	88800054 	ori	r2,r17,1
 1004604:	8447883a 	add	r3,r16,r17
 1004608:	80800115 	stw	r2,4(r16)
 100460c:	20800054 	ori	r2,r4,1
 1004610:	18800115 	stw	r2,4(r3)
 1004614:	e0c00215 	stw	r3,8(fp)
 1004618:	9009883a 	mov	r4,r18
 100461c:	100e8dc0 	call	100e8dc <__malloc_unlock>
 1004620:	80c00204 	addi	r3,r16,8
 1004624:	003f3106 	br	10042ec <_malloc_r+0x50>
 1004628:	39c00117 	ldw	r7,4(r7)
 100462c:	573ffe04 	addi	fp,r10,-8
 1004630:	003fa006 	br	10044b4 <_malloc_r+0x218>
 1004634:	00801504 	movi	r2,84
 1004638:	10c06736 	bltu	r2,r3,10047d8 <_malloc_r+0x53c>
 100463c:	8804d33a 	srli	r2,r17,12
 1004640:	11801b84 	addi	r6,r2,110
 1004644:	300490fa 	slli	r2,r6,3
 1004648:	003f4106 	br	1004350 <_malloc_r+0xb4>
 100464c:	d0a73517 	ldw	r2,-25388(gp)
 1004650:	d0e00617 	ldw	r3,-32744(gp)
 1004654:	053fffc4 	movi	r20,-1
 1004658:	10800404 	addi	r2,r2,16
 100465c:	88a7883a 	add	r19,r17,r2
 1004660:	1d000326 	beq	r3,r20,1004670 <_malloc_r+0x3d4>
 1004664:	98c3ffc4 	addi	r3,r19,4095
 1004668:	00bc0004 	movi	r2,-4096
 100466c:	18a6703a 	and	r19,r3,r2
 1004670:	9009883a 	mov	r4,r18
 1004674:	980b883a 	mov	r5,r19
 1004678:	1004b2c0 	call	1004b2c <_sbrk_r>
 100467c:	1009883a 	mov	r4,r2
 1004680:	15000426 	beq	r2,r20,1004694 <_malloc_r+0x3f8>
 1004684:	854b883a 	add	r5,r16,r21
 1004688:	1029883a 	mov	r20,r2
 100468c:	11405a2e 	bgeu	r2,r5,10047f8 <_malloc_r+0x55c>
 1004690:	87000c26 	beq	r16,fp,10046c4 <_malloc_r+0x428>
 1004694:	e4000217 	ldw	r16,8(fp)
 1004698:	80c00117 	ldw	r3,4(r16)
 100469c:	00bfff04 	movi	r2,-4
 10046a0:	1884703a 	and	r2,r3,r2
 10046a4:	14400336 	bltu	r2,r17,10046b4 <_malloc_r+0x418>
 10046a8:	1449c83a 	sub	r4,r2,r17
 10046ac:	008003c4 	movi	r2,15
 10046b0:	113fd316 	blt	r2,r4,1004600 <_malloc_r+0x364>
 10046b4:	9009883a 	mov	r4,r18
 10046b8:	100e8dc0 	call	100e8dc <__malloc_unlock>
 10046bc:	0007883a 	mov	r3,zero
 10046c0:	003f0a06 	br	10042ec <_malloc_r+0x50>
 10046c4:	05c040b4 	movhi	r23,258
 10046c8:	bdf13004 	addi	r23,r23,-15168
 10046cc:	b8800017 	ldw	r2,0(r23)
 10046d0:	988d883a 	add	r6,r19,r2
 10046d4:	b9800015 	stw	r6,0(r23)
 10046d8:	d0e00617 	ldw	r3,-32744(gp)
 10046dc:	00bfffc4 	movi	r2,-1
 10046e0:	18808e26 	beq	r3,r2,100491c <_malloc_r+0x680>
 10046e4:	2145c83a 	sub	r2,r4,r5
 10046e8:	3085883a 	add	r2,r6,r2
 10046ec:	b8800015 	stw	r2,0(r23)
 10046f0:	20c001cc 	andi	r3,r4,7
 10046f4:	18005f1e 	bne	r3,zero,1004874 <_malloc_r+0x5d8>
 10046f8:	000b883a 	mov	r5,zero
 10046fc:	a4c5883a 	add	r2,r20,r19
 1004700:	1083ffcc 	andi	r2,r2,4095
 1004704:	00c40004 	movi	r3,4096
 1004708:	1887c83a 	sub	r3,r3,r2
 100470c:	28e7883a 	add	r19,r5,r3
 1004710:	9009883a 	mov	r4,r18
 1004714:	980b883a 	mov	r5,r19
 1004718:	1004b2c0 	call	1004b2c <_sbrk_r>
 100471c:	1007883a 	mov	r3,r2
 1004720:	00bfffc4 	movi	r2,-1
 1004724:	18807a26 	beq	r3,r2,1004910 <_malloc_r+0x674>
 1004728:	1d05c83a 	sub	r2,r3,r20
 100472c:	9885883a 	add	r2,r19,r2
 1004730:	10c00054 	ori	r3,r2,1
 1004734:	b8800017 	ldw	r2,0(r23)
 1004738:	a021883a 	mov	r16,r20
 100473c:	a0c00115 	stw	r3,4(r20)
 1004740:	9885883a 	add	r2,r19,r2
 1004744:	b8800015 	stw	r2,0(r23)
 1004748:	e5000215 	stw	r20,8(fp)
 100474c:	b7003626 	beq	r22,fp,1004828 <_malloc_r+0x58c>
 1004750:	018003c4 	movi	r6,15
 1004754:	35404b36 	bltu	r6,r21,1004884 <_malloc_r+0x5e8>
 1004758:	00800044 	movi	r2,1
 100475c:	a0800115 	stw	r2,4(r20)
 1004760:	003fcd06 	br	1004698 <_malloc_r+0x3fc>
 1004764:	2808d27a 	srli	r4,r5,9
 1004768:	2000371e 	bne	r4,zero,1004848 <_malloc_r+0x5ac>
 100476c:	2808d0fa 	srli	r4,r5,3
 1004770:	200690fa 	slli	r3,r4,3
 1004774:	1ad1883a 	add	r8,r3,r11
 1004778:	41800217 	ldw	r6,8(r8)
 100477c:	41805b26 	beq	r8,r6,10048ec <_malloc_r+0x650>
 1004780:	30800117 	ldw	r2,4(r6)
 1004784:	00ffff04 	movi	r3,-4
 1004788:	10c4703a 	and	r2,r2,r3
 100478c:	2880022e 	bgeu	r5,r2,1004798 <_malloc_r+0x4fc>
 1004790:	31800217 	ldw	r6,8(r6)
 1004794:	41bffa1e 	bne	r8,r6,1004780 <_malloc_r+0x4e4>
 1004798:	32000317 	ldw	r8,12(r6)
 100479c:	39c00117 	ldw	r7,4(r7)
 10047a0:	82000315 	stw	r8,12(r16)
 10047a4:	81800215 	stw	r6,8(r16)
 10047a8:	070040b4 	movhi	fp,258
 10047ac:	e722e104 	addi	fp,fp,-29820
 10047b0:	34000315 	stw	r16,12(r6)
 10047b4:	44000215 	stw	r16,8(r8)
 10047b8:	003f3e06 	br	10044b4 <_malloc_r+0x218>
 10047bc:	63000044 	addi	r12,r12,1
 10047c0:	608000cc 	andi	r2,r12,3
 10047c4:	10005d26 	beq	r2,zero,100493c <_malloc_r+0x6a0>
 10047c8:	18c00204 	addi	r3,r3,8
 10047cc:	003f5106 	br	1004514 <_malloc_r+0x278>
 10047d0:	8089883a 	add	r4,r16,r2
 10047d4:	003f6d06 	br	100458c <_malloc_r+0x2f0>
 10047d8:	00805504 	movi	r2,340
 10047dc:	10c02036 	bltu	r2,r3,1004860 <_malloc_r+0x5c4>
 10047e0:	8804d3fa 	srli	r2,r17,15
 10047e4:	11801dc4 	addi	r6,r2,119
 10047e8:	300490fa 	slli	r2,r6,3
 10047ec:	003ed806 	br	1004350 <_malloc_r+0xb4>
 10047f0:	48c000c4 	addi	r3,r9,3
 10047f4:	003f3106 	br	10044bc <_malloc_r+0x220>
 10047f8:	05c040b4 	movhi	r23,258
 10047fc:	bdf13004 	addi	r23,r23,-15168
 1004800:	b8800017 	ldw	r2,0(r23)
 1004804:	988d883a 	add	r6,r19,r2
 1004808:	b9800015 	stw	r6,0(r23)
 100480c:	293fb21e 	bne	r5,r4,10046d8 <_malloc_r+0x43c>
 1004810:	2083ffcc 	andi	r2,r4,4095
 1004814:	103fb01e 	bne	r2,zero,10046d8 <_malloc_r+0x43c>
 1004818:	e4000217 	ldw	r16,8(fp)
 100481c:	9d45883a 	add	r2,r19,r21
 1004820:	10800054 	ori	r2,r2,1
 1004824:	80800115 	stw	r2,4(r16)
 1004828:	b8c00017 	ldw	r3,0(r23)
 100482c:	d0a73617 	ldw	r2,-25384(gp)
 1004830:	10c0012e 	bgeu	r2,r3,1004838 <_malloc_r+0x59c>
 1004834:	d0e73615 	stw	r3,-25384(gp)
 1004838:	d0a73717 	ldw	r2,-25380(gp)
 100483c:	10ff962e 	bgeu	r2,r3,1004698 <_malloc_r+0x3fc>
 1004840:	d0e73715 	stw	r3,-25380(gp)
 1004844:	003f9406 	br	1004698 <_malloc_r+0x3fc>
 1004848:	00800104 	movi	r2,4
 100484c:	11001e36 	bltu	r2,r4,10048c8 <_malloc_r+0x62c>
 1004850:	2804d1ba 	srli	r2,r5,6
 1004854:	11000e04 	addi	r4,r2,56
 1004858:	200690fa 	slli	r3,r4,3
 100485c:	003fc506 	br	1004774 <_malloc_r+0x4d8>
 1004860:	00815504 	movi	r2,1364
 1004864:	10c01d2e 	bgeu	r2,r3,10048dc <_malloc_r+0x640>
 1004868:	01801f84 	movi	r6,126
 100486c:	0080fc04 	movi	r2,1008
 1004870:	003eb706 	br	1004350 <_malloc_r+0xb4>
 1004874:	00800204 	movi	r2,8
 1004878:	10cbc83a 	sub	r5,r2,r3
 100487c:	2169883a 	add	r20,r4,r5
 1004880:	003f9e06 	br	10046fc <_malloc_r+0x460>
 1004884:	00bffe04 	movi	r2,-8
 1004888:	a93ffd04 	addi	r4,r21,-12
 100488c:	2088703a 	and	r4,r4,r2
 1004890:	b10b883a 	add	r5,r22,r4
 1004894:	00c00144 	movi	r3,5
 1004898:	28c00215 	stw	r3,8(r5)
 100489c:	28c00115 	stw	r3,4(r5)
 10048a0:	b0800117 	ldw	r2,4(r22)
 10048a4:	1080004c 	andi	r2,r2,1
 10048a8:	2084b03a 	or	r2,r4,r2
 10048ac:	b0800115 	stw	r2,4(r22)
 10048b0:	313fdd2e 	bgeu	r6,r4,1004828 <_malloc_r+0x58c>
 10048b4:	b1400204 	addi	r5,r22,8
 10048b8:	9009883a 	mov	r4,r18
 10048bc:	1008d980 	call	1008d98 <_free_r>
 10048c0:	e4000217 	ldw	r16,8(fp)
 10048c4:	003fd806 	br	1004828 <_malloc_r+0x58c>
 10048c8:	00800504 	movi	r2,20
 10048cc:	11001536 	bltu	r2,r4,1004924 <_malloc_r+0x688>
 10048d0:	210016c4 	addi	r4,r4,91
 10048d4:	200690fa 	slli	r3,r4,3
 10048d8:	003fa606 	br	1004774 <_malloc_r+0x4d8>
 10048dc:	8804d4ba 	srli	r2,r17,18
 10048e0:	11801f04 	addi	r6,r2,124
 10048e4:	300490fa 	slli	r2,r6,3
 10048e8:	003e9906 	br	1004350 <_malloc_r+0xb4>
 10048ec:	2009d0ba 	srai	r4,r4,2
 10048f0:	014040b4 	movhi	r5,258
 10048f4:	2962e104 	addi	r5,r5,-29820
 10048f8:	00c00044 	movi	r3,1
 10048fc:	28800117 	ldw	r2,4(r5)
 1004900:	1906983a 	sll	r3,r3,r4
 1004904:	10c4b03a 	or	r2,r2,r3
 1004908:	28800115 	stw	r2,4(r5)
 100490c:	003fa306 	br	100479c <_malloc_r+0x500>
 1004910:	0027883a 	mov	r19,zero
 1004914:	00c00044 	movi	r3,1
 1004918:	003f8606 	br	1004734 <_malloc_r+0x498>
 100491c:	d1200615 	stw	r4,-32744(gp)
 1004920:	003f7306 	br	10046f0 <_malloc_r+0x454>
 1004924:	00801504 	movi	r2,84
 1004928:	11001936 	bltu	r2,r4,1004990 <_malloc_r+0x6f4>
 100492c:	2804d33a 	srli	r2,r5,12
 1004930:	11001b84 	addi	r4,r2,110
 1004934:	200690fa 	slli	r3,r4,3
 1004938:	003f8e06 	br	1004774 <_malloc_r+0x4d8>
 100493c:	480b883a 	mov	r5,r9
 1004940:	6807883a 	mov	r3,r13
 1004944:	288000cc 	andi	r2,r5,3
 1004948:	18fffe04 	addi	r3,r3,-8
 100494c:	297fffc4 	addi	r5,r5,-1
 1004950:	10001526 	beq	r2,zero,10049a8 <_malloc_r+0x70c>
 1004954:	18800217 	ldw	r2,8(r3)
 1004958:	10fffa26 	beq	r2,r3,1004944 <_malloc_r+0x6a8>
 100495c:	2109883a 	add	r4,r4,r4
 1004960:	393f1e36 	bltu	r7,r4,10045dc <_malloc_r+0x340>
 1004964:	203f1d26 	beq	r4,zero,10045dc <_malloc_r+0x340>
 1004968:	21c4703a 	and	r2,r4,r7
 100496c:	10000226 	beq	r2,zero,1004978 <_malloc_r+0x6dc>
 1004970:	6013883a 	mov	r9,r12
 1004974:	003ee106 	br	10044fc <_malloc_r+0x260>
 1004978:	2109883a 	add	r4,r4,r4
 100497c:	3904703a 	and	r2,r7,r4
 1004980:	63000104 	addi	r12,r12,4
 1004984:	103ffc26 	beq	r2,zero,1004978 <_malloc_r+0x6dc>
 1004988:	6013883a 	mov	r9,r12
 100498c:	003edb06 	br	10044fc <_malloc_r+0x260>
 1004990:	00805504 	movi	r2,340
 1004994:	11000836 	bltu	r2,r4,10049b8 <_malloc_r+0x71c>
 1004998:	2804d3fa 	srli	r2,r5,15
 100499c:	11001dc4 	addi	r4,r2,119
 10049a0:	200690fa 	slli	r3,r4,3
 10049a4:	003f7306 	br	1004774 <_malloc_r+0x4d8>
 10049a8:	0104303a 	nor	r2,zero,r4
 10049ac:	388e703a 	and	r7,r7,r2
 10049b0:	e1c00115 	stw	r7,4(fp)
 10049b4:	003fe906 	br	100495c <_malloc_r+0x6c0>
 10049b8:	00815504 	movi	r2,1364
 10049bc:	1100032e 	bgeu	r2,r4,10049cc <_malloc_r+0x730>
 10049c0:	01001f84 	movi	r4,126
 10049c4:	00c0fc04 	movi	r3,1008
 10049c8:	003f6a06 	br	1004774 <_malloc_r+0x4d8>
 10049cc:	2804d4ba 	srli	r2,r5,18
 10049d0:	11001f04 	addi	r4,r2,124
 10049d4:	200690fa 	slli	r3,r4,3
