
almost_5.elf:     file format elf32-littlenios2
almost_5.elf
architecture: nios2, flags 0x00000112:
EXEC_P, HAS_SYMS, D_PAGED
start address 0x01000184

Program Header:
    LOAD off    0x00001000 vaddr 0x01000000 paddr 0x01000000 align 2**12
         filesz 0x00000020 memsz 0x00000020 flags r-x
    LOAD off    0x00001020 vaddr 0x01000020 paddr 0x01000020 align 2**12
         filesz 0x00019b70 memsz 0x00019b70 flags r-x
    LOAD off    0x0001ab90 vaddr 0x01019b90 paddr 0x0101ba90 align 2**12
         filesz 0x00001f00 memsz 0x00001f00 flags rw-
    LOAD off    0x0001d990 vaddr 0x0101d990 paddr 0x0101d990 align 2**12
         filesz 0x00000000 memsz 0x000010a0 flags rw-

Sections:
Idx Name          Size      VMA       LMA       File off  Algn
  0 .entry        00000020  01000000  01000000  00001000  2**5
                  CONTENTS, ALLOC, LOAD, READONLY, CODE
  1 .exceptions   00000164  01000020  01000020  00001020  2**2
                  CONTENTS, ALLOC, LOAD, READONLY, CODE
  2 .text         00018e70  01000184  01000184  00001184  2**2
                  CONTENTS, ALLOC, LOAD, READONLY, CODE
  3 .rodata       00000b9c  01018ff4  01018ff4  00019ff4  2**2
                  CONTENTS, ALLOC, LOAD, READONLY, DATA
  4 .rwdata       00001f00  01019b90  0101ba90  0001ab90  2**2
                  CONTENTS, ALLOC, LOAD, DATA, SMALL_DATA
  5 .bss          000010a0  0101d990  0101d990  0001d990  2**2
                  ALLOC, SMALL_DATA
  6 .comment      00000026  00000000  00000000  0001ca90  2**0
                  CONTENTS, READONLY
  7 .debug_aranges 00000ed8  00000000  00000000  0001cab8  2**3
                  CONTENTS, READONLY, DEBUGGING
  8 .debug_pubnames 00002b21  00000000  00000000  0001d990  2**0
                  CONTENTS, READONLY, DEBUGGING
  9 .debug_info   0002ec50  00000000  00000000  000204b1  2**0
                  CONTENTS, READONLY, DEBUGGING
 10 .debug_abbrev 0000a525  00000000  00000000  0004f101  2**0
                  CONTENTS, READONLY, DEBUGGING
 11 .debug_line   000204a6  00000000  00000000  00059626  2**0
                  CONTENTS, READONLY, DEBUGGING
 12 .debug_frame  00002584  00000000  00000000  00079acc  2**2
                  CONTENTS, READONLY, DEBUGGING
 13 .debug_str    0000509b  00000000  00000000  0007c050  2**0
                  CONTENTS, READONLY, DEBUGGING
 14 .debug_loc    000140a6  00000000  00000000  000810eb  2**0
                  CONTENTS, READONLY, DEBUGGING
 15 .debug_alt_sim_info 00000030  00000000  00000000  00095194  2**2
                  CONTENTS, READONLY, DEBUGGING
 16 .debug_ranges 00002bc0  00000000  00000000  000951c8  2**3
                  CONTENTS, READONLY, DEBUGGING
 17 .thread_model 00000003  00000000  00000000  0009d015  2**0
                  CONTENTS, READONLY
 18 .cpu          0000000f  00000000  00000000  0009d018  2**0
                  CONTENTS, READONLY
 19 .qsys         00000001  00000000  00000000  0009d027  2**0
                  CONTENTS, READONLY
 20 .simulation_enabled 00000001  00000000  00000000  0009d028  2**0
                  CONTENTS, READONLY
 21 .stderr_dev   00000009  00000000  00000000  0009d029  2**0
                  CONTENTS, READONLY
 22 .stdin_dev    00000009  00000000  00000000  0009d032  2**0
                  CONTENTS, READONLY
 23 .stdout_dev   00000009  00000000  00000000  0009d03b  2**0
                  CONTENTS, READONLY
 24 .sopc_system_name 0000000b  00000000  00000000  0009d044  2**0
                  CONTENTS, READONLY
 25 .quartus_project_dir 00000020  00000000  00000000  0009d04f  2**0
                  CONTENTS, READONLY
 26 .jdi          00005a68  00000000  00000000  0009d06f  2**0
                  CONTENTS, READONLY
 27 .sopcinfo     00098082  00000000  00000000  000a2ad7  2**0
                  CONTENTS, READONLY
SYMBOL TABLE:
01000000 l    d  .entry	00000000 .entry
01000020 l    d  .exceptions	00000000 .exceptions
01000184 l    d  .text	00000000 .text
01018ff4 l    d  .rodata	00000000 .rodata
01019b90 l    d  .rwdata	00000000 .rwdata
0101d990 l    d  .bss	00000000 .bss
00000000 l    d  .comment	00000000 .comment
00000000 l    d  .debug_aranges	00000000 .debug_aranges
00000000 l    d  .debug_pubnames	00000000 .debug_pubnames
00000000 l    d  .debug_info	00000000 .debug_info
00000000 l    d  .debug_abbrev	00000000 .debug_abbrev
00000000 l    d  .debug_line	00000000 .debug_line
00000000 l    d  .debug_frame	00000000 .debug_frame
00000000 l    d  .debug_str	00000000 .debug_str
00000000 l    d  .debug_loc	00000000 .debug_loc
00000000 l    d  .debug_alt_sim_info	00000000 .debug_alt_sim_info
00000000 l    d  .debug_ranges	00000000 .debug_ranges
010001cc l       .text	00000000 alt_after_alt_main
00000000 l    df *ABS*	00000000 alt_irq_handler.c
00000000 l    df *ABS*	00000000 col.c
00000000 l    df *ABS*	00000000 main.c
01002570 l     F .text	0000065c keyboard_ISR
00000000 l    df *ABS*	00000000 object_spawner.c
00000000 l    df *ABS*	00000000 sd_audio.c
00000000 l    df *ABS*	00000000 atoi.c
00000000 l    df *ABS*	00000000 malloc.c
00000000 l    df *ABS*	00000000 mallocr.c
00000000 l    df *ABS*	00000000 memcpy.c
00000000 l    df *ABS*	00000000 printf.c
00000000 l    df *ABS*	00000000 puts.c
00000000 l    df *ABS*	00000000 rand.c
00000000 l    df *ABS*	00000000 sbrkr.c
00000000 l    df *ABS*	00000000 sprintf.c
00000000 l    df *ABS*	00000000 strlen.c
00000000 l    df *ABS*	00000000 strtol.c
00000000 l    df *ABS*	00000000 time.c
00000000 l    df *ABS*	00000000 vfprintf.c
010075a0 l     F .text	00000058 __sprint_r
010193ee l     O .rodata	00000010 blanks.3452
010193de l     O .rodata	00000010 zeroes.3453
00000000 l    df *ABS*	00000000 wsetup.c
00000000 l    df *ABS*	00000000 ctype_.c
010194ff l     O .rodata	00000180 _ctype_b
00000000 l    df *ABS*	00000000 dtoa.c
01009604 l     F .text	00000218 quorem
00000000 l    df *ABS*	00000000 fflush.c
00000000 l    df *ABS*	00000000 findfp.c
0100b000 l     F .text	00000058 std
0100b10c l     F .text	00000008 __fp_lock
0100b114 l     F .text	00000008 __fp_unlock
00000000 l    df *ABS*	00000000 mallocr.c
00000000 l    df *ABS*	00000000 fvwrite.c
00000000 l    df *ABS*	00000000 fwalk.c
00000000 l    df *ABS*	00000000 gettimeofdayr.c
00000000 l    df *ABS*	00000000 impure.c
01019f98 l     O .rwdata	00000400 impure_data
00000000 l    df *ABS*	00000000 int_errno.c
00000000 l    df *ABS*	00000000 locale.c
0101ba64 l     O .rwdata	00000004 charset
010196a4 l     O .rodata	00000030 lconv
00000000 l    df *ABS*	00000000 makebuf.c
00000000 l    df *ABS*	00000000 memchr.c
00000000 l    df *ABS*	00000000 memmove.c
00000000 l    df *ABS*	00000000 memset.c
00000000 l    df *ABS*	00000000 mprec.c
010197ec l     O .rodata	0000000c p05.2458
00000000 l    df *ABS*	00000000 mallocr.c
00000000 l    df *ABS*	00000000 s_isinfd.c
00000000 l    df *ABS*	00000000 s_isnand.c
00000000 l    df *ABS*	00000000 stdio.c
00000000 l    df *ABS*	00000000 strcmp.c
00000000 l    df *ABS*	00000000 writer.c
00000000 l    df *ABS*	00000000 mallocr.c
00000000 l    df *ABS*	00000000 closer.c
00000000 l    df *ABS*	00000000 fclose.c
00000000 l    df *ABS*	00000000 fstatr.c
00000000 l    df *ABS*	00000000 isattyr.c
00000000 l    df *ABS*	00000000 lseekr.c
00000000 l    df *ABS*	00000000 readr.c
00000000 l    df *ABS*	00000000 libgcc2.c
00000000 l    df *ABS*	00000000 libgcc2.c
00000000 l    df *ABS*	00000000 libgcc2.c
00000000 l    df *ABS*	00000000 dp-bit.c
0100eb5c l     F .text	00000410 _fpadd_parts
00000000 l    df *ABS*	00000000 dp-bit.c
00000000 l    df *ABS*	00000000 dp-bit.c
00000000 l    df *ABS*	00000000 dp-bit.c
00000000 l    df *ABS*	00000000 dp-bit.c
00000000 l    df *ABS*	00000000 dp-bit.c
00000000 l    df *ABS*	00000000 dp-bit.c
00000000 l    df *ABS*	00000000 dp-bit.c
00000000 l    df *ABS*	00000000 dp-bit.c
00000000 l    df *ABS*	00000000 dp-bit.c
00000000 l    df *ABS*	00000000 dp-bit.c
00000000 l    df *ABS*	00000000 dp-bit.c
00000000 l    df *ABS*	00000000 lib2-divmod.c
0100fc88 l     F .text	0000007c udivmodsi4
00000000 l    df *ABS*	00000000 libgcc2.c
00000000 l    df *ABS*	00000000 libgcc2.c
00000000 l    df *ABS*	00000000 dp-bit.c
00000000 l    df *ABS*	00000000 dp-bit.c
00000000 l    df *ABS*	00000000 dp-bit.c
00000000 l    df *ABS*	00000000 alt_close.c
00000000 l    df *ABS*	00000000 alt_dev.c
01010458 l     F .text	00000008 alt_dev_null_write
00000000 l    df *ABS*	00000000 alt_errno.c
00000000 l    df *ABS*	00000000 alt_fstat.c
00000000 l    df *ABS*	00000000 alt_gettod.c
00000000 l    df *ABS*	00000000 alt_irq_register.c
00000000 l    df *ABS*	00000000 alt_irq_vars.c
00000000 l    df *ABS*	00000000 alt_isatty.c
00000000 l    df *ABS*	00000000 alt_load.c
00000000 l    df *ABS*	00000000 alt_lseek.c
00000000 l    df *ABS*	00000000 alt_main.c
00000000 l    df *ABS*	00000000 alt_malloc_lock.c
00000000 l    df *ABS*	00000000 alt_read.c
00000000 l    df *ABS*	00000000 alt_release_fd.c
00000000 l    df *ABS*	00000000 alt_sbrk.c
0101ba84 l     O .rwdata	00000004 heap_end
00000000 l    df *ABS*	00000000 alt_tick.c
00000000 l    df *ABS*	00000000 alt_write.c
00000000 l    df *ABS*	00000000 alt_sys_init.c
0101a54c l     O .rwdata	00001060 jtag_uart
0101b5ac l     O .rwdata	00000030 av_config
0101b5dc l     O .rwdata	00000030 audio
0101b60c l     O .rwdata	0000002c character_lcd_0
0101b638 l     O .rwdata	0000002c push_button
0101b664 l     O .rwdata	00000038 ps2_0
0101b69c l     O .rwdata	00000048 char_drawer
0101b6e4 l     O .rwdata	00000054 pixel_buffer_dma
0101b738 l     O .rwdata	0000002c sd_card
00000000 l    df *ABS*	00000000 altera_avalon_jtag_uart_fd.c
00000000 l    df *ABS*	00000000 altera_avalon_jtag_uart_init.c
01010ff0 l     F .text	00000058 altera_avalon_jtag_uart_timeout
010110c0 l     F .text	00000108 altera_avalon_jtag_uart_irq
00000000 l    df *ABS*	00000000 altera_avalon_jtag_uart_ioctl.c
00000000 l    df *ABS*	00000000 altera_avalon_jtag_uart_read.c
00000000 l    df *ABS*	00000000 altera_avalon_jtag_uart_write.c
00000000 l    df *ABS*	00000000 altera_avalon_timer_sc.c
01011570 l     F .text	0000003c alt_avalon_timer_sc_irq
00000000 l    df *ABS*	00000000 altera_up_avalon_audio.c
00000000 l    df *ABS*	00000000 altera_up_avalon_audio_and_video_config.c
00000000 l    df *ABS*	00000000 altera_up_avalon_character_lcd.c
00000000 l    df *ABS*	00000000 altera_up_avalon_ps2.c
00000000 l    df *ABS*	00000000 altera_up_avalon_video_character_buffer_with_dma.c
00000000 l    df *ABS*	00000000 altera_up_avalon_video_pixel_buffer_dma.c
00000000 l    df *ABS*	00000000 altera_up_ps2_keyboard.c
0101da34 l     O .bss	00000004 state.1859
00000000 l    df *ABS*	00000000 altera_up_sd_card_avalon_interface.c
00000000 l    df *ABS*	00000000 alt_alarm_start.c
00000000 l    df *ABS*	00000000 alt_dcache_flush_all.c
00000000 l    df *ABS*	00000000 alt_dev_llist_insert.c
00000000 l    df *ABS*	00000000 alt_do_ctors.c
00000000 l    df *ABS*	00000000 alt_do_dtors.c
00000000 l    df *ABS*	00000000 alt_find_dev.c
00000000 l    df *ABS*	00000000 alt_icache_flush_all.c
00000000 l    df *ABS*	00000000 alt_io_redirect.c
00000000 l    df *ABS*	00000000 alt_open.c
00000000 l    df *ABS*	00000000 altera_nios2_qsys_irq.c
00000000 l    df *ABS*	00000000 alt_find_file.c
00000000 l    df *ABS*	00000000 alt_get_fd.c
00000000 l    df *ABS*	00000000 alt_icache_flush.c
00000000 l    df *ABS*	00000000 atexit.c
00000000 l    df *ABS*	00000000 exit.c
00000000 l    df *ABS*	00000000 memcmp.c
00000000 l    df *ABS*	00000000 strcpy.c
00000000 l    df *ABS*	00000000 __atexit.c
00000000 l    df *ABS*	00000000 __call_atexit.c
01018dbc l     F .text	00000004 register_fini
00000000 l    df *ABS*	00000000 alt_exit.c
01001af8 g     F .text	000001b4 decode
01011940 g     F .text	00000014 alt_up_av_config_reset
0101da40 g     O .bss	00000004 aux_status_register
0100c650 g     F .text	00000094 _mprec_log10
01011bdc g     F .text	0000005c alt_up_av_config_read_D5M_cfg_register
0100c73c g     F .text	00000088 __any_on
0100ddd8 g     F .text	00000070 _isatty_r
010197c4 g     O .rodata	00000028 __mprec_tinytens
0101191c g     F .text	00000010 alt_up_av_config_disable_interrupt
01010908 g     F .text	00000060 alt_main
01018bfc g     F .text	0000008c strcpy
010123b0 g     F .text	00000178 alt_up_pixel_buffer_dma_draw_vline
01006fdc g     F .text	000000a0 _puts_r
01011fc4 g     F .text	0000001c alt_up_ps2_disable_read_interrupt
0101e7a0 g     O .bss	00000100 alt_irq
0100de48 g     F .text	00000078 _lseek_r
0101ba90 g       *ABS*	00000000 __flash_rwdata_start
01011d84 g     F .text	00000010 alt_up_character_lcd_send_cmd
0100f67c g     F .text	00000088 __eqdf2
01014f98 g     F .text	0000020c Check_for_Master_Boot_Record
0100bd1c g     F .text	00000074 _gettimeofday_r
010116d8 g     F .text	0000001c alt_up_audio_read_fifo_avail
01011b40 g     F .text	00000040 alt_up_av_config_write_audio_cfg_register
0101ea30 g       *ABS*	00000000 __alt_heap_start
010148f0 g     F .text	00000160 alt_up_sd_card_fclose
01006f64 g     F .text	00000044 printf
01011804 g     F .text	0000005c alt_up_audio_record_r
0100d8a4 g     F .text	00000068 __sseek
0100b068 g     F .text	000000a4 __sinit
0101da94 g     O .bss	00000144 spikes
01012224 g     F .text	0000005c alt_up_char_buffer_string
01011f28 g     F .text	0000000c read_CE_bit
0100bdb4 g     F .text	00000084 _setlocale_r
0100b168 g     F .text	00000068 __sfmoreglue
0101096c g     F .text	00000004 __malloc_unlock
01011f5c g     F .text	0000003c alt_up_ps2_read_data_byte_timeout
0101da64 g     O .bss	00000004 current_sector_modified
0101ba40 g     O .rwdata	00000004 highlighted_item
0101d9a0 g     O .bss	00000004 menu
01012280 g     F .text	00000058 alt_up_char_buffer_draw
010116f4 g     F .text	00000024 alt_up_audio_reset_audio_core
01014b4c g     F .text	00000088 Read_Sector_Data_Attempt_CRC
0100c0cc g     F .text	000000e0 memmove
0101b764 g     O .rwdata	00000198 key_table
0100b158 g     F .text	00000010 _cleanup
0100c7c4 g     F .text	000000bc _Balloc
01013d88 g     F .text	0000006c alt_up_sd_card_is_Present
010148d4 g     F .text	0000001c Save_Modified_Sector
01005f98 g     F .text	0000029c read_bmp
01012a34 g     F .text	000000c0 alt_up_pixel_buffer_dma_draw
0100f78c g     F .text	00000088 __gtdf2
00000000  w      *UND*	00000000 __errno
01011d18 g     F .text	00000018 get_DDRAM_addr
01012b2c g     F .text	0000000c alt_up_pixel_buffer_dma_open_dev
01000000 g     F .entry	0000001c __reset
0101da5c g     O .bss	00000004 fat_partition_size_in_512_byte_sectors
01012dd4 g     F .text	00000040 get_multi_byte_make_code_index
01000020 g       *ABS*	00000000 __flash_exceptions_start
0100dd64 g     F .text	00000074 _fstat_r
010053a0 g     F .text	00000024 reset_audio_buffer
0101d9fc g     O .bss	00000004 errno
01011718 g     F .text	00000014 alt_up_audio_write_interrupt_pending
0101ba34 g     O .rwdata	00000004 pixel_buffer_addr1
0101d9a4 g     O .bss	00000004 char_buffer
01013000 g     F .text	00000054 set_keyboard_rate
0101da24 g     O .bss	00000004 alt_argv
01023a30 g       *ABS*	00000000 _gp
01018220 g     F .text	000002e8 alt_up_sd_card_fopen
0100549c g     F .text	00000094 audio_write_fifo
010172d0 g     F .text	000000dc alt_up_sd_card_find_first
0101da50 g     O .bss	00000004 command_argument_register
01012b04 g     F .text	00000028 alt_up_pixel_buffer_dma_change_back_buffer_address
01013054 g     F .text	0000006c reset_keyboard
01001cac g     F .text	000000dc draw_object
0101a3cc g     O .rwdata	00000180 alt_fd_list
0101ba44 g     O .rwdata	00000004 highlighted_level
010145f4 g     F .text	000000b4 find_first_empty_record_in_root_directory
010186c8 g     F .text	00000094 alt_find_dev
01006ec4 g     F .text	000000a0 memcpy
01011ee8 g     F .text	0000002c alt_up_character_lcd_write_fd
010122d8 g     F .text	00000024 alt_up_char_buffer_clear
010059cc g     F .text	00000070 init_read_wav
0100b14c g     F .text	0000000c _cleanup_r
0100f924 g     F .text	000000f8 __floatsidf
01018768 g     F .text	00000104 alt_io_redirect
0100f89c g     F .text	00000088 __ltdf2
01018ff4 g       *ABS*	00000000 __DTOR_END__
0100707c g     F .text	00000014 puts
010146a8 g     F .text	000000f4 find_first_empty_cluster
0100c5a0 g     F .text	000000b0 __ratio
01013df4 g     F .text	0000006c alt_up_sd_card_open_dev
0101dbd8 g     O .bss	00000144 box
010115c8 g     F .text	0000001c alt_up_audio_read_fifo_head
01012af4 g     F .text	00000010 alt_up_pixel_buffer_dma_check_swap_buffers_status
01011250 g     F .text	0000016c altera_avalon_jtag_uart_read
01006770 g     F .text	00000014 malloc
01006fa8 g     F .text	00000034 _printf_r
0100fdc4 g     F .text	00000008 __udivsi3
01010734 g     F .text	00000084 isatty
0101ba3c g     O .rwdata	00000004 priviledge
010196d4 g     O .rodata	000000c8 __mprec_tens
01012528 g     F .text	00000168 alt_up_pixel_buffer_dma_draw_hline
0100bd90 g     F .text	00000008 __locale_charset
0101da0c g     O .bss	00000008 alt_timezone
01018b04 g     F .text	00000038 alt_icache_flush
0101d9f0 g     O .bss	00000004 __malloc_top_pad
0101dd1c g     O .bss	00000144 flag
010119e4 g     F .text	00000044 alt_up_av_config_read_data
0101ba60 g     O .rwdata	00000004 __mb_cur_max
0100bd98 g     F .text	0000000c _localeconv_r
0100cebc g     F .text	0000003c __i2b
0100b700 g     F .text	0000049c __sfvwrite_r
01013e60 g     F .text	00000080 get_dir_divider_location
01007124 g     F .text	00000070 _sbrk_r
01012358 g     F .text	00000058 helper_plot_pixel
01013fec g     F .text	0000005c filename_to_upper_case
01013d10 g     F .text	00000038 alt_up_sd_card_set_attributes
0101426c g     F .text	000001e0 Read_File_Record_At_Offset
0100dec0 g     F .text	00000078 _read_r
0101a398 g     O .rwdata	0000000c __lc_ctype
0101ba78 g     O .rwdata	00000004 alt_max_fd
010115ac g     F .text	0000001c alt_up_audio_write_fifo_head
0101d9a8 g     O .bss	00000004 selC
01010168 g     F .text	00000138 __unpack_d
010157a4 g     F .text	00000cc4 find_file_in_directory
0100dc40 g     F .text	00000110 _fclose_r
01011f34 g     F .text	00000008 read_num_bytes_available
0100afcc g     F .text	00000034 fflush
0101b8fc g     O .rwdata	00000066 ascii_codes
0101d9f4 g     O .bss	00000004 __malloc_max_sbrked_mem
01010674 g     F .text	000000c0 alt_irq_register
01011f14 g     F .text	0000000c read_RI_bit
010152e0 g     F .text	000000b0 alt_up_sd_card_is_FAT16
0100efec g     F .text	00000074 __adddf3
0101d994 g     O .bss	00000004 game_state
0100c480 g     F .text	00000120 __b2d
01001a1c g     F .text	000000dc update_object
01012968 g     F .text	000000a8 alt_up_pixel_buffer_dma_clear_screen
0100e5ac g     F .text	000005b0 __umoddi3
0101086c g     F .text	0000009c lseek
0101ba5c g     O .rwdata	00000004 _global_impure_ptr
01016604 g     F .text	00000ccc get_home_directory_cluster_for_file
0100d238 g     F .text	000005f4 _realloc_r
0101ea30 g       *ABS*	00000000 __bss_end
01005530 g     F .text	0000006c audio_isr
0101275c g     F .text	0000020c alt_up_pixel_buffer_dma_draw_box
01010b38 g     F .text	000000e8 alt_tick
0100dfd0 g     F .text	000005dc __udivdi3
0101979c g     O .rodata	00000028 __mprec_bigtens
0100d118 g     F .text	00000120 __s2b
0100faf4 g     F .text	00000194 __floatunsidf
0100c3a0 g     F .text	00000060 __mcmp
0101da68 g     O .bss	00000004 current_sector_index
01011798 g     F .text	0000000c alt_up_audio_open_dev
01011f48 g     F .text	00000008 read_data_byte
0101ba54 g     O .rwdata	00000004 __ctype_ptr
0100b134 g     F .text	00000018 __fp_lock_all
0101d9e8 g     O .bss	00000004 prev_y
01005730 g     F .text	00000008 free_sfx
01011860 g     F .text	00000060 alt_up_audio_play_r
01010b04 g     F .text	00000034 alt_alarm_stop
0101d990 g     O .bss	00000004 d_counter
01007520 g     F .text	00000024 strtol
01011f20 g     F .text	00000008 read_RE_bit
0101479c g     F .text	000000b0 mark_cluster
0101da1c g     O .bss	00000004 alt_irq_active
01005728 g     F .text	00000008 free_sfx1
010000ec g     F .exceptions	00000098 alt_irq_handler
0101a3a4 g     O .rwdata	00000028 alt_dev_null
010138f8 g     F .text	000002e0 convert_filename_to_name_extension
0101d9ac g     O .bss	00000004 title
01011e2c g     F .text	00000010 alt_up_character_lcd_cursor_blink_on
01005a98 g     F .text	0000027c sd_read_players
01011f98 g     F .text	0000002c alt_up_ps2_write_data_byte
0101859c g     F .text	00000018 alt_dcache_flush_all
0100c26c g     F .text	00000070 __hi0bits
0101da3c g     O .bss	00000004 is_sd_card_formated_as_FAT16
01012690 g     F .text	000000cc alt_up_pixel_buffer_dma_draw_rectangle
0100fa1c g     F .text	000000d8 __fixdfsi
010177e8 g     F .text	0000032c find_first_empty_record_in_a_subdirectory
010063c8 g     F .text	000000b4 refill_buffer
0101ba90 g       *ABS*	00000000 __ram_rwdata_end
0101b9c8 g     O .rwdata	00000066 multi_byte_make_code
01005a60 g     F .text	00000038 av_config_setup
00000000 g       *ABS*	00000000 __alt_mem_onchip_memory
0101ba70 g     O .rwdata	00000008 alt_dev_list
01010c20 g     F .text	00000118 write
0101da60 g     O .bss	00000004 device_pointer
01001d88 g     F .text	00000330 update_highlight
01012b38 g     F .text	0000029c alt_up_pixel_buffer_dma_draw_line
01019b90 g       *ABS*	00000000 __ram_rodata_end
0101d9b0 g     O .bss	00000004 ind
01010460 g     F .text	00000090 fstat
01004aa8 g     F .text	00000064 game_reset
0100cff8 g     F .text	00000120 __pow5mult
0101da00 g     O .bss	00000004 __nlocale_changed
0100fdcc g     F .text	00000008 __umodsi3
0101d99c g     O .bss	00000004 p_counter
0101ea30 g       *ABS*	00000000 end
0100451c g     F .text	00000120 up_obj
010120b4 g     F .text	00000048 alt_up_ps2_write_fd
0101d9b4 g     O .bss	00000004 dcol
01004c48 g     F .text	00000108 master_init
01012308 g     F .text	00000050 alt_up_char_buffer_init
0101de60 g     O .bss	0000000c playername
01006744 g     F .text	0000000c _atoi_r
01011048 g     F .text	00000078 altera_avalon_jtag_uart_init
01018ff0 g       *ABS*	00000000 __CTOR_LIST__
01800000 g       *ABS*	00000000 __alt_stack_pointer
01011540 g     F .text	00000030 alt_avalon_timer_sc_init
0100fdd4 g     F .text	00000080 __clzsi2
010113bc g     F .text	00000184 altera_avalon_jtag_uart_write
0100b058 g     F .text	00000004 __sfp_lock_acquire
0100bfe8 g     F .text	000000e4 memchr
01011d4c g     F .text	00000028 alt_up_character_lcd_write
010075f8 g     F .text	00001eac ___vfprintf_internal_r
01007208 g     F .text	00000060 _sprintf_r
0101d9b8 g     O .bss	00000004 dead
0100b3ec g     F .text	00000314 _free_r
01018dc0 g     F .text	000001b0 __call_exitprocs
010130c0 g     F .text	00000124 translate_make_code
010020b8 g     F .text	00000400 draw_menu
0101da04 g     O .bss	00000004 __mlocale_changed
0101d9bc g     O .bss	00000004 win
0101ba50 g     O .rwdata	00000004 __malloc_sbrk_base
01000184 g     F .text	0000004c _start
0101da2c g     O .bss	00000004 _alt_tick_rate
01006234 g     F .text	00000194 sd_write_players
01005994 g     F .text	00000010 sd_fclose
010115e4 g     F .text	0000006c alt_up_audio_write_fifo
010070ac g     F .text	00000078 rand
0100cb88 g     F .text	0000014c __lshift
01011990 g     F .text	00000020 alt_up_av_config_write_data
0101da30 g     O .bss	00000004 _alt_nticks
01010970 g     F .text	0000011c read
01010d58 g     F .text	00000214 alt_sys_init
01011e98 g     F .text	00000050 alt_up_character_lcd_shift_display
01011650 g     F .text	0000006c alt_up_audio_read_fifo
01005738 g     F .text	00000030 sd_readbyte
01018c88 g     F .text	00000134 __register_exitproc
01011a28 g     F .text	0000003c alt_up_av_config_write_LTM_cfg_register
01011740 g     F .text	00000018 alt_up_audio_disable_write_interrupt
0101ba38 g     O .rwdata	00000004 pixel_buffer_addr2
01011ff8 g     F .text	00000014 alt_up_ps2_clear_fifo
0100ccd4 g     F .text	000001e8 __multiply
01011e4c g     F .text	0000004c alt_up_character_lcd_erase_pos
01010fa8 g     F .text	00000048 altera_avalon_jtag_uart_close
01019b90 g       *ABS*	00000000 __ram_rwdata_start
01018ff4 g       *ABS*	00000000 __ram_rodata_start
01005768 g     F .text	0000022c fill_buffer
0101da6c g     O .bss	00000028 __malloc_current_mallinfo
0100c880 g     F .text	0000017c __d2b
0101da38 g     O .bss	00000004 initialized
01010f98 g     F .text	00000010 altera_avalon_jtag_uart_read_fd
010001d0 g     F .text	00000008 check_collision
01018aa4 g     F .text	00000060 alt_get_fd
0101e238 g     O .bss	00000014 search_data
010102a0 g     F .text	000000c8 __fpcmp_parts_d
0100dbd0 g     F .text	00000070 _close_r
01004b0c g     F .text	0000013c game_start
01011758 g     F .text	00000014 alt_up_audio_enable_write_interrupt
0101d9c0 g     O .bss	00000004 decode_mode
010131e4 g     F .text	00000244 decode_scancode
01018b88 g     F .text	00000074 memcmp
01010f78 g     F .text	00000010 altera_avalon_jtag_uart_close_fd
0101ea30 g       *ABS*	00000000 __alt_stack_base
01010f6c g     F .text	0000000c altera_avalon_jtag_uart_ioctl_fd
0100559c g     F .text	0000008c clear_loc
010094c8 g     F .text	0000013c __swsetup_r
0100f424 g     F .text	00000258 __divdf3
0101176c g     F .text	00000018 alt_up_audio_disable_read_interrupt
0100b1d0 g     F .text	000000f0 __sfp
0101e24c g     O .bss	00000054 boot_sector_data
0100c6e4 g     F .text	00000058 __copybits
01019b90 g     O .rwdata	00000408 __malloc_av_
0100b064 g     F .text	00000004 __sinit_lock_release
010065e0 g     F .text	00000164 preload_sfx
0100f060 g     F .text	000003c4 __muldf3
0100d988 g     F .text	00000060 __sread
010189f4 g     F .text	000000b0 alt_find_file
010185b4 g     F .text	0000007c alt_dev_llist_insert
01010968 g     F .text	00000004 __malloc_lock
01010ab0 g     F .text	00000054 sbrk
0100add0 g     F .text	000001fc _fflush_r
0100db1c g     F .text	000000b4 _calloc_r
0101d9c4 g     O .bss	00000004 selB
010104f0 g     F .text	00000184 gettimeofday
0101d990 g       *ABS*	00000000 __bss_start
0100c1ac g     F .text	00000098 memset
01003014 g     F .text	00001454 main
010116bc g     F .text	0000001c alt_up_audio_write_fifo_space
01012e14 g     F .text	00000040 get_single_byte_make_code_index
0101da28 g     O .bss	00000004 alt_envp
0101d9f8 g     O .bss	00000004 __malloc_max_total_mem
01012a10 g     F .text	00000024 alt_up_pixel_buffer_dma_swap_buffers
010122fc g     F .text	0000000c alt_up_char_buffer_open_dev
01010f88 g     F .text	00000010 altera_avalon_jtag_uart_write_fd
0101de6c g     O .bss	00000144 co
01007090 g     F .text	0000001c srand
01002bcc g     F .text	00000448 handle_timer_interrupts
01013d48 g     F .text	00000040 alt_up_sd_card_get_attributes
0101d9c8 g     O .bss	00000004 ps2
0101444c g     F .text	000000ac Write_Sector_Data
010173ac g     F .text	0000043c alt_up_sd_card_write
01011da0 g     F .text	00000050 alt_up_character_lcd_shift_cursor
0100d89c g     F .text	00000008 __sclose
01800000 g       *ABS*	00000000 __alt_heap_limit
0100dd50 g     F .text	00000014 fclose
0101200c g     F .text	00000024 alt_up_ps2_read_data_byte
010024f4 g     F .text	0000007c clear_object
010072dc g     F .text	00000244 _strtol_r
0101e8a0 g     O .bss	00000190 _atexit0
0100981c g     F .text	000015b4 _dtoa_r
01006784 g     F .text	00000740 _malloc_r
01007544 g     F .text	0000005c time
0101ba7c g     O .rwdata	00000004 alt_errno
0100bc64 g     F .text	000000b8 _fwalk
01011f50 g     F .text	0000000c alt_up_ps2_open_dev
0100fd04 g     F .text	00000060 __divsi3
01001978 g     F .text	000000a4 init_char_update
010197f8 g     O .rodata	00000014 __thenan_df
01011d94 g     F .text	0000000c alt_up_character_lcd_open_dev
0100b2c0 g     F .text	0000012c _malloc_trim_r
01011fe0 g     F .text	00000018 alt_up_ps2_enable_read_interrupt
0101d9ec g     O .bss	00000004 inc
01018ff4 g       *ABS*	00000000 __CTOR_END__
0101da44 g     O .bss	00000004 status_register
01011d74 g     F .text	00000010 alt_up_character_lcd_init
0100d9e8 g     F .text	000000bc strcmp
0101da4c g     O .bss	00000004 command_register
01018ff4 g       *ABS*	00000000 __flash_rodata_start
01018ff4 g       *ABS*	00000000 __DTOR_LIST__
010053c4 g     F .text	000000d8 unrolled_parallax_draw
0101d9e4 g     O .bss	00000004 count
0100f704 g     F .text	00000088 __nedf2
010119b0 g     F .text	00000034 alt_up_av_config_open_dev
01010d38 g     F .text	00000020 alt_irq_init
01010a8c g     F .text	00000024 alt_release_fd
0101484c g     F .text	00000088 get_cluster_flag
01011f3c g     F .text	0000000c read_data_valid
01007194 g     F .text	00000074 sprintf
01011e3c g     F .text	00000010 alt_up_character_lcd_cursor_off
0101980c g     O .rodata	00000100 __clz_tab
01014048 g     F .text	00000224 Write_File_Record_At_Offset
0101da08 g     O .bss	00000004 _PathLocale
0101d9cc g     O .bss	00000004 pixel_buffer
010120fc g     F .text	00000060 alt_up_ps2_write_data_byte_with_ack
01018b3c g     F .text	00000014 atexit
0100daa4 g     F .text	00000078 _write_r
01011954 g     F .text	00000014 alt_up_av_config_read_ready
0100be38 g     F .text	0000001c setlocale
0101d998 g     O .bss	00000004 p_shift
01014bd4 g     F .text	000003c4 Check_for_DOS_FAT
01017b14 g     F .text	0000070c create_file
0101ba58 g     O .rwdata	00000004 _impure_ptr
0101da48 g     O .bss	00000004 CSD_register_w0
0101da20 g     O .bss	00000004 alt_argc
0101867c g     F .text	0000004c _do_dtors
0101d9d0 g     O .bss	00000001 ascii
0101d9d1 g     O .bss	00000004 buf
01000020 g       .exceptions	00000000 alt_irq_entry
0101ba30 g     O .rwdata	00000004 speed
0100c400 g     F .text	00000080 __ulp
0100d82c g     F .text	00000040 __isinfd
0100b11c g     F .text	00000018 __fp_unlock_all
0101ba68 g     O .rwdata	00000008 alt_fs_list
01013ee0 g     F .text	0000010c check_file_name_for_FAT16_compliance
0101da54 g     O .bss	00000004 buffer_memory
010059a4 g     F .text	00000028 sd_fopen
010117a4 g     F .text	00000060 alt_up_audio_record_l
010056bc g     F .text	0000006c free_bmp
01005a3c g     F .text	00000024 sd_init
0101da14 g     O .bss	00000008 alt_resettime
0101d9d8 g     O .bss	00000004 selA
01004468 g     F .text	000000b4 init_obj
0100647c g     F .text	00000164 preload_sfx1
01000020 g       *ABS*	00000000 __ram_exceptions_start
0100bda4 g     F .text	00000010 localeconv
0101192c g     F .text	00000014 alt_up_av_config_enable_interrupt
0101ba48 g     O .rwdata	00000004 first_platform
0101dfb0 g     O .bss	00000144 box_3
0101da58 g     O .bss	00000004 fat_partition_offset_in_512_byte_sectors
01011968 g     F .text	00000028 alt_up_av_config_read_acknowledge
01011aa0 g     F .text	00000040 alt_up_av_config_write_DC2_cfg_register
0101ba90 g       *ABS*	00000000 _edata
0101ea30 g       *ABS*	00000000 _end
0101e2a0 g     O .bss	00000500 active_files
01000184 g       *ABS*	00000000 __ram_exceptions_end
01013bd8 g     F .text	00000138 copy_file_record_name_to_string
010111c8 g     F .text	00000088 altera_avalon_jtag_uart_ioctl
010151a4 g     F .text	0000013c Look_for_FAT16
010118c0 g     F .text	0000005c alt_up_audio_play_l
010001d8 g     F .text	000017a0 char_update_isr
0100d90c g     F .text	0000007c __swrite
0101ba4c g     O .rwdata	00000004 __malloc_trim_threshold
0101e0f4 g     O .bss	00000144 box_1
010189ec g     F .text	00000008 altera_nios2_qsys_irq_init
01018b50 g     F .text	00000038 exit
01015390 g     F .text	00000414 alt_up_sd_card_find_next
0100bb9c g     F .text	000000c8 _fwalk_reent
0101215c g     F .text	000000c8 alt_up_ps2_init
0100c9fc g     F .text	0000018c __mdiff
01011b80 g     F .text	0000005c alt_up_av_config_read_LTM_cfg_register
0100fd64 g     F .text	00000060 __modsi3
0100463c g     F .text	0000046c object_spawn_init
010144f8 g     F .text	000000fc Read_Sector_Data
01800000 g       *ABS*	00000000 __alt_data_end
01000020 g     F .exceptions	00000000 alt_exception
0100b05c g     F .text	00000004 __sfp_lock_release
01000000 g       *ABS*	00000000 __alt_mem_sdram
01011d30 g     F .text	0000001c alt_up_character_lcd_string
01006750 g     F .text	0000000c atoi
01004d50 g     F .text	00000650 object_spawn_interrupt
010193fe g     O .rodata	00000101 _ctype_
01018f70 g     F .text	00000014 _exit
0100d86c g     F .text	00000030 __isnand
01018508 g     F .text	00000094 alt_alarm_start
01005d14 g     F .text	00000284 sd_read_level
0101d9dc g     O .bss	00000004 name
0100df38 g     F .text	00000098 __muldi3
01014a50 g     F .text	000000fc Read_Sector_Data_CRC
01016468 g     F .text	0000019c alt_up_sd_card_read
01012e54 g     F .text	000001ac get_next_state
0100be54 g     F .text	00000194 __smakebuf_r
01012074 g     F .text	00000040 alt_up_ps2_wait_for_ack
01007268 g     F .text	00000074 strlen
0101886c g     F .text	00000180 open
0100f814 g     F .text	00000088 __gedf2
01011c98 g     F .text	00000080 alt_up_av_config_read_video_cfg_register
0101875c g     F .text	0000000c alt_icache_flush_all
01011df0 g     F .text	0000003c alt_up_character_lcd_set_cursor_pos
0101ba80 g     O .rwdata	00000004 alt_priority_mask
01005628 g     F .text	00000094 draw_bmp
010094a4 g     F .text	00000024 __vfprintf_internal
01011a64 g     F .text	0000003c alt_up_av_config_write_D5M_cfg_register
01012030 g     F .text	00000044 alt_up_ps2_read_fd
0100ef6c g     F .text	00000080 __subdf3
0101b962 g     O .rwdata	00000066 single_byte_make_code
0100c2dc g     F .text	000000c4 __lo0bits
0101d9e0 g     O .bss	00000004 instr
0101ba88 g     O .rwdata	00000008 alt_alarm_list
01018630 g     F .text	0000004c _do_ctors
01010368 g     F .text	000000f0 close
010107b8 g     F .text	000000b4 alt_load
01011784 g     F .text	00000014 alt_up_audio_enable_read_interrupt
01011ae0 g     F .text	00000060 alt_up_av_config_write_video_cfg_register
0100fe54 g     F .text	00000314 __pack_d
01013428 g     F .text	000004d0 match_file_record_to_name_ext
0100675c g     F .text	00000014 free
0100b060 g     F .text	00000004 __sinit_lock_acquire
0100cef8 g     F .text	00000100 __multadd
0100c244 g     F .text	00000028 _Bfree
01011c38 g     F .text	00000060 alt_up_av_config_read_DC2_cfg_register
010024b8 g     F .text	0000003c clear_doge
0101172c g     F .text	00000014 alt_up_audio_read_interrupt_pending



Disassembly of section .entry:

01000000 <__reset>:
#if NIOS2_ICACHE_SIZE > 0 && defined(ALT_ALLOW_CODE_AT_RESET) && !defined(ALT_SIM_OPTIMIZE)
    /* Assume the instruction cache size is always a power of two. */
#if NIOS2_ICACHE_SIZE > 0x8000
    movhi r2, %hi(NIOS2_ICACHE_SIZE)
#else
    movui r2, NIOS2_ICACHE_SIZE
 1000000:	00840014 	movui	r2,4096
#endif

0:
    initi r2
 1000004:	1001483a 	initi	r2
    addi r2, r2, -NIOS2_ICACHE_LINE_SIZE
 1000008:	10bff804 	addi	r2,r2,-32
    bgt r2, zero, 0b
 100000c:	00bffd16 	blt	zero,r2,1000004 <__reset+0x4>
 * Jump to the _start entry point in the .text section if reset code
 * is allowed or if optimizing for RTL simulation.
 */
#if defined(ALT_ALLOW_CODE_AT_RESET) || defined(ALT_SIM_OPTIMIZE)
    /* Jump to the _start entry point in the .text section. */
    movhi r1, %hi(_start)
 1000010:	00404034 	movhi	at,256
    ori r1, r1, %lo(_start)
 1000014:	08406114 	ori	at,at,388
    jmp r1
 1000018:	0800683a 	jmp	at
 100001c:	00000000 	call	0 <__alt_mem_onchip_memory>

Disassembly of section .exceptions:

01000020 <alt_exception>:
         * Process an exception.  For all exceptions we must preserve all
         * caller saved registers on the stack (See the Nios2 ABI
         * documentation for details).
         */

        addi  sp, sp, -76
 1000020:	deffed04 	addi	sp,sp,-76

#endif

#endif

        stw   ra,  0(sp)
 1000024:	dfc00015 	stw	ra,0(sp)
        /*
         * Leave a gap in the stack frame at 4(sp) for the muldiv handler to
         * store zero into.
         */

        stw   r1,   8(sp)
 1000028:	d8400215 	stw	at,8(sp)
        stw   r2,  12(sp)
 100002c:	d8800315 	stw	r2,12(sp)
        stw   r3,  16(sp)
 1000030:	d8c00415 	stw	r3,16(sp)
        stw   r4,  20(sp)
 1000034:	d9000515 	stw	r4,20(sp)
        stw   r5,  24(sp)
 1000038:	d9400615 	stw	r5,24(sp)
        stw   r6,  28(sp)
 100003c:	d9800715 	stw	r6,28(sp)
        stw   r7,  32(sp)
 1000040:	d9c00815 	stw	r7,32(sp)

        rdctl r5, estatus
 1000044:	000b307a 	rdctl	r5,estatus

        stw   r8,  36(sp)
 1000048:	da000915 	stw	r8,36(sp)
        stw   r9,  40(sp)
 100004c:	da400a15 	stw	r9,40(sp)
        stw   r10, 44(sp)
 1000050:	da800b15 	stw	r10,44(sp)
        stw   r11, 48(sp)
 1000054:	dac00c15 	stw	r11,48(sp)
        stw   r12, 52(sp)
 1000058:	db000d15 	stw	r12,52(sp)
        stw   r13, 56(sp)
 100005c:	db400e15 	stw	r13,56(sp)
        stw   r14, 60(sp)
 1000060:	db800f15 	stw	r14,60(sp)
        stw   r15, 64(sp)
 1000064:	dbc01015 	stw	r15,64(sp)
        /*
         * ea-4 contains the address of the instruction being executed
         * when the exception occured. For interrupt exceptions, we will
         * will be re-issue the isntruction. Store it in 72(sp)
         */
        stw   r5,  68(sp)  /* estatus */
 1000068:	d9401115 	stw	r5,68(sp)
        addi  r15, ea, -4  /* instruction that caused exception */
 100006c:	ebffff04 	addi	r15,ea,-4
        stw   r15,  72(sp)
 1000070:	dbc01215 	stw	r15,72(sp)
#else
        /*
         * Test to see if the exception was a software exception or caused 
         * by an external interrupt, and vector accordingly.
         */
        rdctl r4, ipending
 1000074:	0009313a 	rdctl	r4,ipending
        andi  r2, r5, 1
 1000078:	2880004c 	andi	r2,r5,1
        beq   r2, zero, .Lnot_irq
 100007c:	10000326 	beq	r2,zero,100008c <alt_exception+0x6c>
        beq   r4, zero, .Lnot_irq
 1000080:	20000226 	beq	r4,zero,100008c <alt_exception+0x6c>
        /*
         * Now that all necessary registers have been preserved, call 
         * alt_irq_handler() to process the interrupts.
         */

        call alt_irq_handler
 1000084:	10000ec0 	call	10000ec <alt_irq_handler>

        .section .exceptions.irqreturn, "xa"

        br    .Lexception_exit
 1000088:	00000306 	br	1000098 <alt_exception+0x78>
         * upon completion, so we write ea (address of instruction *after*
         * the one where the exception occured) into 72(sp). The actual
         * instruction that caused the exception is written in r2, which these
         * handlers will utilize.
         */
        stw   ea,  72(sp)  /* Don't re-issue */
 100008c:	df401215 	stw	ea,72(sp)
        ldw   r2, -4(ea)   /* Instruction that caused exception */
 1000090:	e8bfff17 	ldw	r2,-4(ea)
#ifdef NIOS2_HAS_DEBUG_STUB
       /*
        *  Either tell the user now (if there is a debugger attached) or go into
        *  the debug monitor which will loop until a debugger is attached.
        */
        break
 1000094:	003da03a 	break	0
        /* 
         * Restore the saved registers, so that all general purpose registers 
         * have been restored to their state at the time the interrupt occured.
         */

        ldw   r5,  68(sp)
 1000098:	d9401117 	ldw	r5,68(sp)
        ldw   ea,  72(sp)  /* This becomes the PC once eret is executed */
 100009c:	df401217 	ldw	ea,72(sp)
        ldw   ra,   0(sp)
 10000a0:	dfc00017 	ldw	ra,0(sp)

        wrctl estatus, r5
 10000a4:	2801707a 	wrctl	estatus,r5

        ldw   r1,   8(sp)
 10000a8:	d8400217 	ldw	at,8(sp)
        ldw   r2,  12(sp)
 10000ac:	d8800317 	ldw	r2,12(sp)
        ldw   r3,  16(sp)
 10000b0:	d8c00417 	ldw	r3,16(sp)
        ldw   r4,  20(sp)
 10000b4:	d9000517 	ldw	r4,20(sp)
        ldw   r5,  24(sp)
 10000b8:	d9400617 	ldw	r5,24(sp)
        ldw   r6,  28(sp)
 10000bc:	d9800717 	ldw	r6,28(sp)
        ldw   r7,  32(sp)
 10000c0:	d9c00817 	ldw	r7,32(sp)
#ifdef ALT_STACK_CHECK
        ldw   et, %gprel(alt_exception_old_stack_limit)(gp)
#endif
#endif

        ldw   r8,  36(sp)
 10000c4:	da000917 	ldw	r8,36(sp)
        ldw   r9,  40(sp)
 10000c8:	da400a17 	ldw	r9,40(sp)
        ldw   r10, 44(sp)
 10000cc:	da800b17 	ldw	r10,44(sp)
        ldw   r11, 48(sp)
 10000d0:	dac00c17 	ldw	r11,48(sp)
        ldw   r12, 52(sp)
 10000d4:	db000d17 	ldw	r12,52(sp)
        ldw   r13, 56(sp)
 10000d8:	db400e17 	ldw	r13,56(sp)
        ldw   r14, 60(sp)
 10000dc:	db800f17 	ldw	r14,60(sp)
        ldw   r15, 64(sp)
 10000e0:	dbc01017 	ldw	r15,64(sp)
#endif

        ldw   sp,  76(sp)

#else
        addi  sp, sp, 76
 10000e4:	dec01304 	addi	sp,sp,76

        /*
         * Return to the interrupted instruction.
         */

        eret
 10000e8:	ef80083a 	eret

010000ec <alt_irq_handler>:
 * instruction is present if the macro ALT_CI_INTERRUPT_VECTOR defined.
 */

void alt_irq_handler (void) __attribute__ ((section (".exceptions")));
void alt_irq_handler (void)
{
 10000ec:	defffe04 	addi	sp,sp,-8
 10000f0:	dfc00115 	stw	ra,4(sp)
 10000f4:	dc000015 	stw	r16,0(sp)
#ifndef NIOS2_EIC_PRESENT
static ALT_INLINE alt_u32 ALT_ALWAYS_INLINE alt_irq_pending (void)
{
  alt_u32 active;

  NIOS2_READ_IPENDING (active);
 10000f8:	0009313a 	rdctl	r4,ipending
     * called to clear the interrupt condition.
     */

    do
    {
      if (active & mask)
 10000fc:	2080004c 	andi	r2,r4,1
 1000100:	1005003a 	cmpeq	r2,r2,zero
 1000104:	040040b4 	movhi	r16,258
 1000108:	8439e804 	addi	r16,r16,-6240
 100010c:	10001126 	beq	r2,zero,1000154 <alt_irq_handler+0x68>
 1000110:	00c00044 	movi	r3,1
 1000114:	000b883a 	mov	r5,zero
#else
        alt_irq[i].handler(alt_irq[i].context, i); 
#endif
        break;
      }
      mask <<= 1;
 1000118:	18c7883a 	add	r3,r3,r3
     * called to clear the interrupt condition.
     */

    do
    {
      if (active & mask)
 100011c:	20c4703a 	and	r2,r4,r3
        alt_irq[i].handler(alt_irq[i].context, i); 
#endif
        break;
      }
      mask <<= 1;
      i++;
 1000120:	29400044 	addi	r5,r5,1
     * called to clear the interrupt condition.
     */

    do
    {
      if (active & mask)
 1000124:	103ffc26 	beq	r2,zero,1000118 <alt_irq_handler+0x2c>
      { 
#ifdef ALT_ENHANCED_INTERRUPT_API_PRESENT
        alt_irq[i].handler(alt_irq[i].context); 
#else
        alt_irq[i].handler(alt_irq[i].context, i); 
 1000128:	280490fa 	slli	r2,r5,3
 100012c:	1405883a 	add	r2,r2,r16
 1000130:	11000117 	ldw	r4,4(r2)
 1000134:	10c00017 	ldw	r3,0(r2)
 1000138:	183ee83a 	callr	r3
 100013c:	0005313a 	rdctl	r2,ipending

    } while (1);

    active = alt_irq_pending ();
    
  } while (active);
 1000140:	10000c26 	beq	r2,zero,1000174 <alt_irq_handler+0x88>
 1000144:	1009883a 	mov	r4,r2
     * called to clear the interrupt condition.
     */

    do
    {
      if (active & mask)
 1000148:	2080004c 	andi	r2,r4,1
 100014c:	1005003a 	cmpeq	r2,r2,zero
 1000150:	103fef1e 	bne	r2,zero,1000110 <alt_irq_handler+0x24>
 1000154:	000b883a 	mov	r5,zero
      { 
#ifdef ALT_ENHANCED_INTERRUPT_API_PRESENT
        alt_irq[i].handler(alt_irq[i].context); 
#else
        alt_irq[i].handler(alt_irq[i].context, i); 
 1000158:	280490fa 	slli	r2,r5,3
 100015c:	1405883a 	add	r2,r2,r16
 1000160:	11000117 	ldw	r4,4(r2)
 1000164:	10c00017 	ldw	r3,0(r2)
 1000168:	183ee83a 	callr	r3
 100016c:	0005313a 	rdctl	r2,ipending

    } while (1);

    active = alt_irq_pending ();
    
  } while (active);
 1000170:	103ff41e 	bne	r2,zero,1000144 <alt_irq_handler+0x58>
  /*
   * Notify the operating system that interrupt processing is complete.
   */ 

  ALT_OS_INT_EXIT();
}
 1000174:	dfc00117 	ldw	ra,4(sp)
 1000178:	dc000017 	ldw	r16,0(sp)
 100017c:	dec00204 	addi	sp,sp,8
 1000180:	f800283a 	ret

Disassembly of section .text:

01000184 <_start>:

    /* Assume the data cache size is always a power of two. */
#if NIOS2_DCACHE_SIZE > 0x8000
    movhi r2, %hi(NIOS2_DCACHE_SIZE)
#else
    movui r2, NIOS2_DCACHE_SIZE
 1000184:	00820014 	movui	r2,2048
#endif

0:
    initd 0(r2)
 1000188:	10000033 	initd	0(r2)
    addi r2, r2, -NIOS2_DCACHE_LINE_SIZE
 100018c:	10bff804 	addi	r2,r2,-32
    bgt r2, zero, 0b
 1000190:	00bffd16 	blt	zero,r2,1000188 <_start+0x4>
#if (NIOS2_NUM_OF_SHADOW_REG_SETS == 0)    
    /*
     * Now that the caches are initialized, set up the stack pointer.
     * The value provided by the linker is assumed to be correctly aligned.
     */
    movhi sp, %hi(__alt_stack_pointer)
 1000194:	06c06034 	movhi	sp,384
    ori sp, sp, %lo(__alt_stack_pointer)
 1000198:	dec00014 	ori	sp,sp,0

    /* Set up the global pointer. */
    movhi gp, %hi(_gp)
 100019c:	068040b4 	movhi	gp,258
    ori gp, gp, %lo(_gp)
 10001a0:	d68e8c14 	ori	gp,gp,14896
 */
#ifndef ALT_SIM_OPTIMIZE
    /* Log that the BSS is about to be cleared. */
    ALT_LOG_PUTS(alt_log_msg_bss)

    movhi r2, %hi(__bss_start)
 10001a4:	00804074 	movhi	r2,257
    ori r2, r2, %lo(__bss_start)
 10001a8:	10b66414 	ori	r2,r2,55696

    movhi r3, %hi(__bss_end)
 10001ac:	00c04074 	movhi	r3,257
    ori r3, r3, %lo(__bss_end)
 10001b0:	18fa8c14 	ori	r3,r3,59952

    beq r2, r3, 1f
 10001b4:	10c00326 	beq	r2,r3,10001c4 <_start+0x40>

0:
    stw zero, (r2)
 10001b8:	10000015 	stw	zero,0(r2)
    addi r2, r2, 4
 10001bc:	10800104 	addi	r2,r2,4
    bltu r2, r3, 0b
 10001c0:	10fffd36 	bltu	r2,r3,10001b8 <_start+0x34>
     * section aren't defined until alt_load() has been called).
     */
    mov   et, zero
#endif

    call alt_load
 10001c4:	10107b80 	call	10107b8 <alt_load>

    /* Log that alt_main is about to be called. */
    ALT_LOG_PUTS(alt_log_msg_alt_main)

    /* Call the C entry point. It should never return. */
    call alt_main
 10001c8:	10109080 	call	1010908 <alt_main>

010001cc <alt_after_alt_main>:

    /* Wait in infinite loop in case alt_main does return. */
alt_after_alt_main:
    br alt_after_alt_main
 10001cc:	003fff06 	br	10001cc <alt_after_alt_main>

010001d0 <check_collision>:

int d_counter = 0;

bool check_collision(charac *c){
	return c->collide;
}
 10001d0:	20800617 	ldw	r2,24(r4)
 10001d4:	f800283a 	ret

010001d8 <char_update_isr>:

	IOWR_16DIRECT(TIMER_2_BASE, 4, 0x5);	//starts timer with interrupt
}


void char_update_isr(void *context) {
 10001d8:	201d883a 	mov	r14,r4

	IOWR_16DIRECT(TIMER_2_BASE,0,0); //needed to show that interrupt finished executing
 10001dc:	00911004 	movi	r2,17472
 10001e0:	1000002d 	sthio	zero,0(r2)

	//dy--;
	//m->c->y + dy;

	//if( c->y == 239 ) c->collide = true; //check if fell off screen
	if(d_counter <= 300){
 10001e4:	d167d817 	ldw	r5,-24736(gp)
 10001e8:	00804b04 	movi	r2,300
void char_update_isr(void *context) {

	IOWR_16DIRECT(TIMER_2_BASE,0,0); //needed to show that interrupt finished executing

	master* m = (master*)context;
	charac* c = m->c;
 10001ec:	21c00717 	ldw	r7,28(r4)
	object* o = m->o;
 10001f0:	22800017 	ldw	r10,0(r4)
	object* co = m->co;
 10001f4:	23400117 	ldw	r13,4(r4)
	object* spikes = m->spikes;
 10001f8:	22c00417 	ldw	r11,16(r4)
	object* box_1 = m->box_1;
 10001fc:	23000317 	ldw	r12,12(r4)
	object* box_3 = m->box_3;
 1000200:	22000217 	ldw	r8,8(r4)
	object* flag = m->flag;
 1000204:	23c00517 	ldw	r15,20(r4)

	//dy--;
	//m->c->y + dy;

	//if( c->y == 239 ) c->collide = true; //check if fell off screen
	if(d_counter <= 300){
 1000208:	11400a16 	blt	r2,r5,1000234 <char_update_isr+0x5c>
		if (d_counter%10 == 0)
 100020c:	00800284 	movi	r2,10
 1000210:	2885283a 	div	r2,r5,r2
 1000214:	108002a4 	muli	r2,r2,10
 1000218:	2882db26 	beq	r5,r2,1000d88 <char_update_isr+0xbb0>
		c->y += 1;
		else;
		d_counter++;
 100021c:	28800044 	addi	r2,r5,1
 1000220:	d0a7d815 	stw	r2,-24736(gp)
		IOWR_16DIRECT(TIMER_2_BASE, 4, 0x5); //restart timer
 1000224:	00c00144 	movi	r3,5
 1000228:	00911104 	movi	r2,17476
 100022c:	10c0002d 	sthio	r3,0(r2)
 1000230:	f800283a 	ret
		return;
	}


	if(c->ducking == false){
 1000234:	38800517 	ldw	r2,20(r7)
 1000238:	1002cd26 	beq	r2,zero,1000d70 <char_update_isr+0xb98>
	int i;


	//obstacle collision
	for(i = 0; i < OBJECT_SIZE; i++) {//checks all boxes
		if(c->x >= o->x[i] && c->y-2 >= o->y[i] && c->y-c->height+10 <= o->y[i]+o->height[i] &&
 100023c:	39800017 	ldw	r6,0(r7)
 1000240:	52400a17 	ldw	r9,40(r10)
 1000244:	3242d90e 	bge	r6,r9,1000dac <char_update_isr+0xbd4>
 1000248:	52400b17 	ldw	r9,44(r10)
 100024c:	32400416 	blt	r6,r9,1000260 <char_update_isr+0x88>
 1000250:	39400117 	ldw	r5,4(r7)
 1000254:	51000117 	ldw	r4,4(r10)
 1000258:	28bfff84 	addi	r2,r5,-2
 100025c:	1104780e 	bge	r2,r4,1001440 <char_update_isr+0x1268>
 1000260:	52400c17 	ldw	r9,48(r10)
 1000264:	32400416 	blt	r6,r9,1000278 <char_update_isr+0xa0>
 1000268:	39400117 	ldw	r5,4(r7)
 100026c:	51000217 	ldw	r4,8(r10)
 1000270:	28bfff84 	addi	r2,r5,-2
 1000274:	1104810e 	bge	r2,r4,100147c <char_update_isr+0x12a4>
 1000278:	52400d17 	ldw	r9,52(r10)
 100027c:	32400416 	blt	r6,r9,1000290 <char_update_isr+0xb8>
 1000280:	39400117 	ldw	r5,4(r7)
 1000284:	51000317 	ldw	r4,12(r10)
 1000288:	28bfff84 	addi	r2,r5,-2
 100028c:	11048a0e 	bge	r2,r4,10014b8 <char_update_isr+0x12e0>
 1000290:	52400e17 	ldw	r9,56(r10)
 1000294:	32400416 	blt	r6,r9,10002a8 <char_update_isr+0xd0>
 1000298:	39400117 	ldw	r5,4(r7)
 100029c:	51000417 	ldw	r4,16(r10)
 10002a0:	28bfff84 	addi	r2,r5,-2
 10002a4:	1104930e 	bge	r2,r4,10014f4 <char_update_isr+0x131c>
 10002a8:	52400f17 	ldw	r9,60(r10)
 10002ac:	32400416 	blt	r6,r9,10002c0 <char_update_isr+0xe8>
 10002b0:	39400117 	ldw	r5,4(r7)
 10002b4:	51000517 	ldw	r4,20(r10)
 10002b8:	28bfff84 	addi	r2,r5,-2
 10002bc:	11049c0e 	bge	r2,r4,1001530 <char_update_isr+0x1358>
 10002c0:	52401017 	ldw	r9,64(r10)
 10002c4:	32400416 	blt	r6,r9,10002d8 <char_update_isr+0x100>
 10002c8:	39400117 	ldw	r5,4(r7)
 10002cc:	51000617 	ldw	r4,24(r10)
 10002d0:	28bfff84 	addi	r2,r5,-2
 10002d4:	1104a50e 	bge	r2,r4,100156c <char_update_isr+0x1394>
 10002d8:	52401117 	ldw	r9,68(r10)
 10002dc:	32400416 	blt	r6,r9,10002f0 <char_update_isr+0x118>
 10002e0:	39400117 	ldw	r5,4(r7)
 10002e4:	51000717 	ldw	r4,28(r10)
 10002e8:	28bfff84 	addi	r2,r5,-2
 10002ec:	1104ae0e 	bge	r2,r4,10015a8 <char_update_isr+0x13d0>
 10002f0:	52401217 	ldw	r9,72(r10)
 10002f4:	32400416 	blt	r6,r9,1000308 <char_update_isr+0x130>
 10002f8:	39400117 	ldw	r5,4(r7)
 10002fc:	51000817 	ldw	r4,32(r10)
 1000300:	28bfff84 	addi	r2,r5,-2
 1000304:	1104b70e 	bge	r2,r4,10015e4 <char_update_isr+0x140c>
 1000308:	52401317 	ldw	r9,76(r10)
 100030c:	32400416 	blt	r6,r9,1000320 <char_update_isr+0x148>
 1000310:	39400117 	ldw	r5,4(r7)
 1000314:	51000917 	ldw	r4,36(r10)
 1000318:	28bfff84 	addi	r2,r5,-2
 100031c:	1104c00e 	bge	r2,r4,1001620 <char_update_isr+0x1448>
		{
			c->collide = true;
			break;
		}
	}
	if(c->collide) return;
 1000320:	38800617 	ldw	r2,24(r7)
 1000324:	1004371e 	bne	r2,zero,1001404 <char_update_isr+0x122c>

	//box3 collision
		for(i = 0; i < OBJECT_SIZE; i++) {//checks all boxes
			if(c->x >= box_3->x[i] && c->y-2 >= box_3->y[i] && c->y-c->height+10 <= box_3->y[i]+box_3->height[i] &&
 1000328:	42400a17 	ldw	r9,40(r8)
 100032c:	32401216 	blt	r6,r9,1000378 <char_update_isr+0x1a0>
 1000330:	39400117 	ldw	r5,4(r7)
 1000334:	41000017 	ldw	r4,0(r8)
 1000338:	28bfff84 	addi	r2,r5,-2
 100033c:	11000e16 	blt	r2,r4,1000378 <char_update_isr+0x1a0>
 1000340:	38800317 	ldw	r2,12(r7)
 1000344:	40c01e17 	ldw	r3,120(r8)
 1000348:	2885c83a 	sub	r2,r5,r2
 100034c:	20c7883a 	add	r3,r4,r3
 1000350:	10800284 	addi	r2,r2,10
 1000354:	18800816 	blt	r3,r2,1000378 <char_update_isr+0x1a0>
 1000358:	38800217 	ldw	r2,8(r7)
 100035c:	41003217 	ldw	r4,200(r8)
 1000360:	3085c83a 	sub	r2,r6,r2
 1000364:	10800284 	addi	r2,r2,10
 1000368:	4907883a 	add	r3,r9,r4
 100036c:	18800216 	blt	r3,r2,1000378 <char_update_isr+0x1a0>
 1000370:	00bfffc4 	movi	r2,-1
 1000374:	20829f1e 	bne	r4,r2,1000df4 <char_update_isr+0xc1c>
 1000378:	42400b17 	ldw	r9,44(r8)
 100037c:	32401216 	blt	r6,r9,10003c8 <char_update_isr+0x1f0>
 1000380:	39400117 	ldw	r5,4(r7)
 1000384:	41000117 	ldw	r4,4(r8)
 1000388:	28bfff84 	addi	r2,r5,-2
 100038c:	11000e16 	blt	r2,r4,10003c8 <char_update_isr+0x1f0>
 1000390:	38800317 	ldw	r2,12(r7)
 1000394:	40c01f17 	ldw	r3,124(r8)
 1000398:	2885c83a 	sub	r2,r5,r2
 100039c:	20c7883a 	add	r3,r4,r3
 10003a0:	10800284 	addi	r2,r2,10
 10003a4:	18800816 	blt	r3,r2,10003c8 <char_update_isr+0x1f0>
 10003a8:	38800217 	ldw	r2,8(r7)
 10003ac:	41003317 	ldw	r4,204(r8)
 10003b0:	3085c83a 	sub	r2,r6,r2
 10003b4:	10800284 	addi	r2,r2,10
 10003b8:	4907883a 	add	r3,r9,r4
 10003bc:	18800216 	blt	r3,r2,10003c8 <char_update_isr+0x1f0>
 10003c0:	00bfffc4 	movi	r2,-1
 10003c4:	20828b1e 	bne	r4,r2,1000df4 <char_update_isr+0xc1c>
 10003c8:	42400c17 	ldw	r9,48(r8)
 10003cc:	32401216 	blt	r6,r9,1000418 <char_update_isr+0x240>
 10003d0:	39400117 	ldw	r5,4(r7)
 10003d4:	41000217 	ldw	r4,8(r8)
 10003d8:	28bfff84 	addi	r2,r5,-2
 10003dc:	11000e16 	blt	r2,r4,1000418 <char_update_isr+0x240>
 10003e0:	38800317 	ldw	r2,12(r7)
 10003e4:	40c02017 	ldw	r3,128(r8)
 10003e8:	2885c83a 	sub	r2,r5,r2
 10003ec:	20c7883a 	add	r3,r4,r3
 10003f0:	10800284 	addi	r2,r2,10
 10003f4:	18800816 	blt	r3,r2,1000418 <char_update_isr+0x240>
 10003f8:	38800217 	ldw	r2,8(r7)
 10003fc:	41003417 	ldw	r4,208(r8)
 1000400:	3085c83a 	sub	r2,r6,r2
 1000404:	10800284 	addi	r2,r2,10
 1000408:	4907883a 	add	r3,r9,r4
 100040c:	18800216 	blt	r3,r2,1000418 <char_update_isr+0x240>
 1000410:	00bfffc4 	movi	r2,-1
 1000414:	2082771e 	bne	r4,r2,1000df4 <char_update_isr+0xc1c>
 1000418:	42400d17 	ldw	r9,52(r8)
 100041c:	32401216 	blt	r6,r9,1000468 <char_update_isr+0x290>
 1000420:	39400117 	ldw	r5,4(r7)
 1000424:	41000317 	ldw	r4,12(r8)
 1000428:	28bfff84 	addi	r2,r5,-2
 100042c:	11000e16 	blt	r2,r4,1000468 <char_update_isr+0x290>
 1000430:	38800317 	ldw	r2,12(r7)
 1000434:	40c02117 	ldw	r3,132(r8)
 1000438:	2885c83a 	sub	r2,r5,r2
 100043c:	20c7883a 	add	r3,r4,r3
 1000440:	10800284 	addi	r2,r2,10
 1000444:	18800816 	blt	r3,r2,1000468 <char_update_isr+0x290>
 1000448:	38800217 	ldw	r2,8(r7)
 100044c:	41003517 	ldw	r4,212(r8)
 1000450:	3085c83a 	sub	r2,r6,r2
 1000454:	10800284 	addi	r2,r2,10
 1000458:	4907883a 	add	r3,r9,r4
 100045c:	18800216 	blt	r3,r2,1000468 <char_update_isr+0x290>
 1000460:	00bfffc4 	movi	r2,-1
 1000464:	2082631e 	bne	r4,r2,1000df4 <char_update_isr+0xc1c>
 1000468:	42400e17 	ldw	r9,56(r8)
 100046c:	32401216 	blt	r6,r9,10004b8 <char_update_isr+0x2e0>
 1000470:	39400117 	ldw	r5,4(r7)
 1000474:	41000417 	ldw	r4,16(r8)
 1000478:	28bfff84 	addi	r2,r5,-2
 100047c:	11000e16 	blt	r2,r4,10004b8 <char_update_isr+0x2e0>
 1000480:	38800317 	ldw	r2,12(r7)
 1000484:	40c02217 	ldw	r3,136(r8)
 1000488:	2885c83a 	sub	r2,r5,r2
 100048c:	20c7883a 	add	r3,r4,r3
 1000490:	10800284 	addi	r2,r2,10
 1000494:	18800816 	blt	r3,r2,10004b8 <char_update_isr+0x2e0>
 1000498:	38800217 	ldw	r2,8(r7)
 100049c:	41003617 	ldw	r4,216(r8)
 10004a0:	3085c83a 	sub	r2,r6,r2
 10004a4:	10800284 	addi	r2,r2,10
 10004a8:	4907883a 	add	r3,r9,r4
 10004ac:	18800216 	blt	r3,r2,10004b8 <char_update_isr+0x2e0>
 10004b0:	00bfffc4 	movi	r2,-1
 10004b4:	20824f1e 	bne	r4,r2,1000df4 <char_update_isr+0xc1c>
 10004b8:	42400f17 	ldw	r9,60(r8)
 10004bc:	32401216 	blt	r6,r9,1000508 <char_update_isr+0x330>
 10004c0:	39400117 	ldw	r5,4(r7)
 10004c4:	41000517 	ldw	r4,20(r8)
 10004c8:	28bfff84 	addi	r2,r5,-2
 10004cc:	11000e16 	blt	r2,r4,1000508 <char_update_isr+0x330>
 10004d0:	38800317 	ldw	r2,12(r7)
 10004d4:	40c02317 	ldw	r3,140(r8)
 10004d8:	2885c83a 	sub	r2,r5,r2
 10004dc:	20c7883a 	add	r3,r4,r3
 10004e0:	10800284 	addi	r2,r2,10
 10004e4:	18800816 	blt	r3,r2,1000508 <char_update_isr+0x330>
 10004e8:	38800217 	ldw	r2,8(r7)
 10004ec:	41003717 	ldw	r4,220(r8)
 10004f0:	3085c83a 	sub	r2,r6,r2
 10004f4:	10800284 	addi	r2,r2,10
 10004f8:	4907883a 	add	r3,r9,r4
 10004fc:	18800216 	blt	r3,r2,1000508 <char_update_isr+0x330>
 1000500:	00bfffc4 	movi	r2,-1
 1000504:	20823b1e 	bne	r4,r2,1000df4 <char_update_isr+0xc1c>
 1000508:	42401017 	ldw	r9,64(r8)
 100050c:	32401216 	blt	r6,r9,1000558 <char_update_isr+0x380>
 1000510:	39400117 	ldw	r5,4(r7)
 1000514:	41000617 	ldw	r4,24(r8)
 1000518:	28bfff84 	addi	r2,r5,-2
 100051c:	11000e16 	blt	r2,r4,1000558 <char_update_isr+0x380>
 1000520:	38800317 	ldw	r2,12(r7)
 1000524:	40c02417 	ldw	r3,144(r8)
 1000528:	2885c83a 	sub	r2,r5,r2
 100052c:	20c7883a 	add	r3,r4,r3
 1000530:	10800284 	addi	r2,r2,10
 1000534:	18800816 	blt	r3,r2,1000558 <char_update_isr+0x380>
 1000538:	38800217 	ldw	r2,8(r7)
 100053c:	41003817 	ldw	r4,224(r8)
 1000540:	3085c83a 	sub	r2,r6,r2
 1000544:	10800284 	addi	r2,r2,10
 1000548:	4907883a 	add	r3,r9,r4
 100054c:	18800216 	blt	r3,r2,1000558 <char_update_isr+0x380>
 1000550:	00bfffc4 	movi	r2,-1
 1000554:	2082271e 	bne	r4,r2,1000df4 <char_update_isr+0xc1c>
 1000558:	42401117 	ldw	r9,68(r8)
 100055c:	32401216 	blt	r6,r9,10005a8 <char_update_isr+0x3d0>
 1000560:	39400117 	ldw	r5,4(r7)
 1000564:	41000717 	ldw	r4,28(r8)
 1000568:	28bfff84 	addi	r2,r5,-2
 100056c:	11000e16 	blt	r2,r4,10005a8 <char_update_isr+0x3d0>
 1000570:	38800317 	ldw	r2,12(r7)
 1000574:	40c02517 	ldw	r3,148(r8)
 1000578:	2885c83a 	sub	r2,r5,r2
 100057c:	20c7883a 	add	r3,r4,r3
 1000580:	10800284 	addi	r2,r2,10
 1000584:	18800816 	blt	r3,r2,10005a8 <char_update_isr+0x3d0>
 1000588:	38800217 	ldw	r2,8(r7)
 100058c:	41003917 	ldw	r4,228(r8)
 1000590:	3085c83a 	sub	r2,r6,r2
 1000594:	10800284 	addi	r2,r2,10
 1000598:	4907883a 	add	r3,r9,r4
 100059c:	18800216 	blt	r3,r2,10005a8 <char_update_isr+0x3d0>
 10005a0:	00bfffc4 	movi	r2,-1
 10005a4:	2082131e 	bne	r4,r2,1000df4 <char_update_isr+0xc1c>
 10005a8:	42401217 	ldw	r9,72(r8)
 10005ac:	32401216 	blt	r6,r9,10005f8 <char_update_isr+0x420>
 10005b0:	39400117 	ldw	r5,4(r7)
 10005b4:	41000817 	ldw	r4,32(r8)
 10005b8:	28bfff84 	addi	r2,r5,-2
 10005bc:	11000e16 	blt	r2,r4,10005f8 <char_update_isr+0x420>
 10005c0:	38800317 	ldw	r2,12(r7)
 10005c4:	40c02617 	ldw	r3,152(r8)
 10005c8:	2885c83a 	sub	r2,r5,r2
 10005cc:	20c7883a 	add	r3,r4,r3
 10005d0:	10800284 	addi	r2,r2,10
 10005d4:	18800816 	blt	r3,r2,10005f8 <char_update_isr+0x420>
 10005d8:	38800217 	ldw	r2,8(r7)
 10005dc:	41003a17 	ldw	r4,232(r8)
 10005e0:	3085c83a 	sub	r2,r6,r2
 10005e4:	10800284 	addi	r2,r2,10
 10005e8:	4907883a 	add	r3,r9,r4
 10005ec:	18800216 	blt	r3,r2,10005f8 <char_update_isr+0x420>
 10005f0:	00bfffc4 	movi	r2,-1
 10005f4:	2081ff1e 	bne	r4,r2,1000df4 <char_update_isr+0xc1c>
 10005f8:	42401317 	ldw	r9,76(r8)
 10005fc:	32401216 	blt	r6,r9,1000648 <char_update_isr+0x470>
 1000600:	39000117 	ldw	r4,4(r7)
 1000604:	41400917 	ldw	r5,36(r8)
 1000608:	20bfff84 	addi	r2,r4,-2
 100060c:	11400e16 	blt	r2,r5,1000648 <char_update_isr+0x470>
 1000610:	38800317 	ldw	r2,12(r7)
 1000614:	40c02717 	ldw	r3,156(r8)
 1000618:	2085c83a 	sub	r2,r4,r2
 100061c:	28c7883a 	add	r3,r5,r3
 1000620:	10800284 	addi	r2,r2,10
 1000624:	18800816 	blt	r3,r2,1000648 <char_update_isr+0x470>
 1000628:	38800217 	ldw	r2,8(r7)
 100062c:	41003b17 	ldw	r4,236(r8)
 1000630:	3085c83a 	sub	r2,r6,r2
 1000634:	10800284 	addi	r2,r2,10
 1000638:	4907883a 	add	r3,r9,r4
 100063c:	18800216 	blt	r3,r2,1000648 <char_update_isr+0x470>
 1000640:	00bfffc4 	movi	r2,-1
 1000644:	2081eb1e 	bne	r4,r2,1000df4 <char_update_isr+0xc1c>
		}
		if(c->collide) return;

		//box1 collision
				for(i = 0; i < OBJECT_SIZE; i++) {//checks all boxes
					if(c->x >= box_1->x[i] && c->y-2 >= box_1->y[i] && c->y-c->height+10 <= box_1->y[i]+box_1->height[i] &&
 1000648:	62000a17 	ldw	r8,40(r12)
 100064c:	32001216 	blt	r6,r8,1000698 <char_update_isr+0x4c0>
 1000650:	39000117 	ldw	r4,4(r7)
 1000654:	61400017 	ldw	r5,0(r12)
 1000658:	20bfff84 	addi	r2,r4,-2
 100065c:	11400e16 	blt	r2,r5,1000698 <char_update_isr+0x4c0>
 1000660:	38800317 	ldw	r2,12(r7)
 1000664:	60c01e17 	ldw	r3,120(r12)
 1000668:	2085c83a 	sub	r2,r4,r2
 100066c:	28c7883a 	add	r3,r5,r3
 1000670:	10800284 	addi	r2,r2,10
 1000674:	18800816 	blt	r3,r2,1000698 <char_update_isr+0x4c0>
 1000678:	38800217 	ldw	r2,8(r7)
 100067c:	61003217 	ldw	r4,200(r12)
 1000680:	3085c83a 	sub	r2,r6,r2
 1000684:	10800284 	addi	r2,r2,10
 1000688:	4107883a 	add	r3,r8,r4
 100068c:	18800216 	blt	r3,r2,1000698 <char_update_isr+0x4c0>
 1000690:	00bfffc4 	movi	r2,-1
 1000694:	2081d71e 	bne	r4,r2,1000df4 <char_update_isr+0xc1c>
 1000698:	62000b17 	ldw	r8,44(r12)
 100069c:	32001216 	blt	r6,r8,10006e8 <char_update_isr+0x510>
 10006a0:	39000117 	ldw	r4,4(r7)
 10006a4:	61400117 	ldw	r5,4(r12)
 10006a8:	20bfff84 	addi	r2,r4,-2
 10006ac:	11400e16 	blt	r2,r5,10006e8 <char_update_isr+0x510>
 10006b0:	38800317 	ldw	r2,12(r7)
 10006b4:	60c01f17 	ldw	r3,124(r12)
 10006b8:	2085c83a 	sub	r2,r4,r2
 10006bc:	28c7883a 	add	r3,r5,r3
 10006c0:	10800284 	addi	r2,r2,10
 10006c4:	18800816 	blt	r3,r2,10006e8 <char_update_isr+0x510>
 10006c8:	38800217 	ldw	r2,8(r7)
 10006cc:	61003317 	ldw	r4,204(r12)
 10006d0:	3085c83a 	sub	r2,r6,r2
 10006d4:	10800284 	addi	r2,r2,10
 10006d8:	4107883a 	add	r3,r8,r4
 10006dc:	18800216 	blt	r3,r2,10006e8 <char_update_isr+0x510>
 10006e0:	00bfffc4 	movi	r2,-1
 10006e4:	2081c31e 	bne	r4,r2,1000df4 <char_update_isr+0xc1c>
 10006e8:	62000c17 	ldw	r8,48(r12)
 10006ec:	32001216 	blt	r6,r8,1000738 <char_update_isr+0x560>
 10006f0:	39000117 	ldw	r4,4(r7)
 10006f4:	61400217 	ldw	r5,8(r12)
 10006f8:	20bfff84 	addi	r2,r4,-2
 10006fc:	11400e16 	blt	r2,r5,1000738 <char_update_isr+0x560>
 1000700:	38800317 	ldw	r2,12(r7)
 1000704:	60c02017 	ldw	r3,128(r12)
 1000708:	2085c83a 	sub	r2,r4,r2
 100070c:	28c7883a 	add	r3,r5,r3
 1000710:	10800284 	addi	r2,r2,10
 1000714:	18800816 	blt	r3,r2,1000738 <char_update_isr+0x560>
 1000718:	38800217 	ldw	r2,8(r7)
 100071c:	61003417 	ldw	r4,208(r12)
 1000720:	3085c83a 	sub	r2,r6,r2
 1000724:	10800284 	addi	r2,r2,10
 1000728:	4107883a 	add	r3,r8,r4
 100072c:	18800216 	blt	r3,r2,1000738 <char_update_isr+0x560>
 1000730:	00bfffc4 	movi	r2,-1
 1000734:	2081af1e 	bne	r4,r2,1000df4 <char_update_isr+0xc1c>
 1000738:	62000d17 	ldw	r8,52(r12)
 100073c:	32001216 	blt	r6,r8,1000788 <char_update_isr+0x5b0>
 1000740:	39000117 	ldw	r4,4(r7)
 1000744:	61400317 	ldw	r5,12(r12)
 1000748:	20bfff84 	addi	r2,r4,-2
 100074c:	11400e16 	blt	r2,r5,1000788 <char_update_isr+0x5b0>
 1000750:	38800317 	ldw	r2,12(r7)
 1000754:	60c02117 	ldw	r3,132(r12)
 1000758:	2085c83a 	sub	r2,r4,r2
 100075c:	28c7883a 	add	r3,r5,r3
 1000760:	10800284 	addi	r2,r2,10
 1000764:	18800816 	blt	r3,r2,1000788 <char_update_isr+0x5b0>
 1000768:	38800217 	ldw	r2,8(r7)
 100076c:	61003517 	ldw	r4,212(r12)
 1000770:	3085c83a 	sub	r2,r6,r2
 1000774:	10800284 	addi	r2,r2,10
 1000778:	4107883a 	add	r3,r8,r4
 100077c:	18800216 	blt	r3,r2,1000788 <char_update_isr+0x5b0>
 1000780:	00bfffc4 	movi	r2,-1
 1000784:	20819b1e 	bne	r4,r2,1000df4 <char_update_isr+0xc1c>
 1000788:	62000e17 	ldw	r8,56(r12)
 100078c:	32001216 	blt	r6,r8,10007d8 <char_update_isr+0x600>
 1000790:	39000117 	ldw	r4,4(r7)
 1000794:	61400417 	ldw	r5,16(r12)
 1000798:	20bfff84 	addi	r2,r4,-2
 100079c:	11400e16 	blt	r2,r5,10007d8 <char_update_isr+0x600>
 10007a0:	38800317 	ldw	r2,12(r7)
 10007a4:	60c02217 	ldw	r3,136(r12)
 10007a8:	2085c83a 	sub	r2,r4,r2
 10007ac:	28c7883a 	add	r3,r5,r3
 10007b0:	10800284 	addi	r2,r2,10
 10007b4:	18800816 	blt	r3,r2,10007d8 <char_update_isr+0x600>
 10007b8:	38800217 	ldw	r2,8(r7)
 10007bc:	61003617 	ldw	r4,216(r12)
 10007c0:	3085c83a 	sub	r2,r6,r2
 10007c4:	10800284 	addi	r2,r2,10
 10007c8:	4107883a 	add	r3,r8,r4
 10007cc:	18800216 	blt	r3,r2,10007d8 <char_update_isr+0x600>
 10007d0:	00bfffc4 	movi	r2,-1
 10007d4:	2081871e 	bne	r4,r2,1000df4 <char_update_isr+0xc1c>
 10007d8:	62000f17 	ldw	r8,60(r12)
 10007dc:	32001216 	blt	r6,r8,1000828 <char_update_isr+0x650>
 10007e0:	39000117 	ldw	r4,4(r7)
 10007e4:	61400517 	ldw	r5,20(r12)
 10007e8:	20bfff84 	addi	r2,r4,-2
 10007ec:	11400e16 	blt	r2,r5,1000828 <char_update_isr+0x650>
 10007f0:	38800317 	ldw	r2,12(r7)
 10007f4:	60c02317 	ldw	r3,140(r12)
 10007f8:	2085c83a 	sub	r2,r4,r2
 10007fc:	28c7883a 	add	r3,r5,r3
 1000800:	10800284 	addi	r2,r2,10
 1000804:	18800816 	blt	r3,r2,1000828 <char_update_isr+0x650>
 1000808:	38800217 	ldw	r2,8(r7)
 100080c:	61003717 	ldw	r4,220(r12)
 1000810:	3085c83a 	sub	r2,r6,r2
 1000814:	10800284 	addi	r2,r2,10
 1000818:	4107883a 	add	r3,r8,r4
 100081c:	18800216 	blt	r3,r2,1000828 <char_update_isr+0x650>
 1000820:	00bfffc4 	movi	r2,-1
 1000824:	2081731e 	bne	r4,r2,1000df4 <char_update_isr+0xc1c>
 1000828:	62001017 	ldw	r8,64(r12)
 100082c:	32001216 	blt	r6,r8,1000878 <char_update_isr+0x6a0>
 1000830:	39000117 	ldw	r4,4(r7)
 1000834:	61400617 	ldw	r5,24(r12)
 1000838:	20bfff84 	addi	r2,r4,-2
 100083c:	11400e16 	blt	r2,r5,1000878 <char_update_isr+0x6a0>
 1000840:	38800317 	ldw	r2,12(r7)
 1000844:	60c02417 	ldw	r3,144(r12)
 1000848:	2085c83a 	sub	r2,r4,r2
 100084c:	28c7883a 	add	r3,r5,r3
 1000850:	10800284 	addi	r2,r2,10
 1000854:	18800816 	blt	r3,r2,1000878 <char_update_isr+0x6a0>
 1000858:	38800217 	ldw	r2,8(r7)
 100085c:	61003817 	ldw	r4,224(r12)
 1000860:	3085c83a 	sub	r2,r6,r2
 1000864:	10800284 	addi	r2,r2,10
 1000868:	4107883a 	add	r3,r8,r4
 100086c:	18800216 	blt	r3,r2,1000878 <char_update_isr+0x6a0>
 1000870:	00bfffc4 	movi	r2,-1
 1000874:	20815f1e 	bne	r4,r2,1000df4 <char_update_isr+0xc1c>
 1000878:	62001117 	ldw	r8,68(r12)
 100087c:	32001216 	blt	r6,r8,10008c8 <char_update_isr+0x6f0>
 1000880:	39000117 	ldw	r4,4(r7)
 1000884:	61400717 	ldw	r5,28(r12)
 1000888:	20bfff84 	addi	r2,r4,-2
 100088c:	11400e16 	blt	r2,r5,10008c8 <char_update_isr+0x6f0>
 1000890:	38800317 	ldw	r2,12(r7)
 1000894:	60c02517 	ldw	r3,148(r12)
 1000898:	2085c83a 	sub	r2,r4,r2
 100089c:	28c7883a 	add	r3,r5,r3
 10008a0:	10800284 	addi	r2,r2,10
 10008a4:	18800816 	blt	r3,r2,10008c8 <char_update_isr+0x6f0>
 10008a8:	38800217 	ldw	r2,8(r7)
 10008ac:	61003917 	ldw	r4,228(r12)
 10008b0:	3085c83a 	sub	r2,r6,r2
 10008b4:	10800284 	addi	r2,r2,10
 10008b8:	4107883a 	add	r3,r8,r4
 10008bc:	18800216 	blt	r3,r2,10008c8 <char_update_isr+0x6f0>
 10008c0:	00bfffc4 	movi	r2,-1
 10008c4:	20814b1e 	bne	r4,r2,1000df4 <char_update_isr+0xc1c>
 10008c8:	62001217 	ldw	r8,72(r12)
 10008cc:	32001216 	blt	r6,r8,1000918 <char_update_isr+0x740>
 10008d0:	39000117 	ldw	r4,4(r7)
 10008d4:	61400817 	ldw	r5,32(r12)
 10008d8:	20bfff84 	addi	r2,r4,-2
 10008dc:	11400e16 	blt	r2,r5,1000918 <char_update_isr+0x740>
 10008e0:	38800317 	ldw	r2,12(r7)
 10008e4:	60c02617 	ldw	r3,152(r12)
 10008e8:	2085c83a 	sub	r2,r4,r2
 10008ec:	28c7883a 	add	r3,r5,r3
 10008f0:	10800284 	addi	r2,r2,10
 10008f4:	18800816 	blt	r3,r2,1000918 <char_update_isr+0x740>
 10008f8:	38800217 	ldw	r2,8(r7)
 10008fc:	61003a17 	ldw	r4,232(r12)
 1000900:	3085c83a 	sub	r2,r6,r2
 1000904:	10800284 	addi	r2,r2,10
 1000908:	4107883a 	add	r3,r8,r4
 100090c:	18800216 	blt	r3,r2,1000918 <char_update_isr+0x740>
 1000910:	00bfffc4 	movi	r2,-1
 1000914:	2081371e 	bne	r4,r2,1000df4 <char_update_isr+0xc1c>
 1000918:	62001317 	ldw	r8,76(r12)
 100091c:	32001216 	blt	r6,r8,1000968 <char_update_isr+0x790>
 1000920:	39000117 	ldw	r4,4(r7)
 1000924:	61400917 	ldw	r5,36(r12)
 1000928:	20bfff84 	addi	r2,r4,-2
 100092c:	11400e16 	blt	r2,r5,1000968 <char_update_isr+0x790>
 1000930:	38800317 	ldw	r2,12(r7)
 1000934:	60c02717 	ldw	r3,156(r12)
 1000938:	2085c83a 	sub	r2,r4,r2
 100093c:	28c7883a 	add	r3,r5,r3
 1000940:	10800284 	addi	r2,r2,10
 1000944:	18800816 	blt	r3,r2,1000968 <char_update_isr+0x790>
 1000948:	38800217 	ldw	r2,8(r7)
 100094c:	61003b17 	ldw	r4,236(r12)
 1000950:	3085c83a 	sub	r2,r6,r2
 1000954:	10800284 	addi	r2,r2,10
 1000958:	4107883a 	add	r3,r8,r4
 100095c:	18800216 	blt	r3,r2,1000968 <char_update_isr+0x790>
 1000960:	00bfffc4 	movi	r2,-1
 1000964:	2081231e 	bne	r4,r2,1000df4 <char_update_isr+0xc1c>
				}
				if(c->collide) return;

	//spike collision
	for(i = 0; i < OBJECT_SIZE; i++) {//checks all boxes
		if(c->x >= spikes->x[i] && c->y-2 >= spikes->y[i] && c->y-c->height+10 <= spikes->y[i]+spikes->height[i] &&
 1000968:	5a000a17 	ldw	r8,40(r11)
 100096c:	32001216 	blt	r6,r8,10009b8 <char_update_isr+0x7e0>
 1000970:	39400117 	ldw	r5,4(r7)
 1000974:	59000017 	ldw	r4,0(r11)
 1000978:	28bfff84 	addi	r2,r5,-2
 100097c:	11000e16 	blt	r2,r4,10009b8 <char_update_isr+0x7e0>
 1000980:	38800317 	ldw	r2,12(r7)
 1000984:	58c01e17 	ldw	r3,120(r11)
 1000988:	2885c83a 	sub	r2,r5,r2
 100098c:	20c7883a 	add	r3,r4,r3
 1000990:	10800284 	addi	r2,r2,10
 1000994:	18800816 	blt	r3,r2,10009b8 <char_update_isr+0x7e0>
 1000998:	38800217 	ldw	r2,8(r7)
 100099c:	59003217 	ldw	r4,200(r11)
 10009a0:	3085c83a 	sub	r2,r6,r2
 10009a4:	10800284 	addi	r2,r2,10
 10009a8:	4107883a 	add	r3,r8,r4
 10009ac:	18800216 	blt	r3,r2,10009b8 <char_update_isr+0x7e0>
 10009b0:	00bfffc4 	movi	r2,-1
 10009b4:	20810f1e 	bne	r4,r2,1000df4 <char_update_isr+0xc1c>
 10009b8:	5a000b17 	ldw	r8,44(r11)
 10009bc:	32001216 	blt	r6,r8,1000a08 <char_update_isr+0x830>
 10009c0:	39400117 	ldw	r5,4(r7)
 10009c4:	59000117 	ldw	r4,4(r11)
 10009c8:	28bfff84 	addi	r2,r5,-2
 10009cc:	11000e16 	blt	r2,r4,1000a08 <char_update_isr+0x830>
 10009d0:	38800317 	ldw	r2,12(r7)
 10009d4:	58c01f17 	ldw	r3,124(r11)
 10009d8:	2885c83a 	sub	r2,r5,r2
 10009dc:	20c7883a 	add	r3,r4,r3
 10009e0:	10800284 	addi	r2,r2,10
 10009e4:	18800816 	blt	r3,r2,1000a08 <char_update_isr+0x830>
 10009e8:	38800217 	ldw	r2,8(r7)
 10009ec:	59003317 	ldw	r4,204(r11)
 10009f0:	3085c83a 	sub	r2,r6,r2
 10009f4:	10800284 	addi	r2,r2,10
 10009f8:	4107883a 	add	r3,r8,r4
 10009fc:	18800216 	blt	r3,r2,1000a08 <char_update_isr+0x830>
 1000a00:	00bfffc4 	movi	r2,-1
 1000a04:	2080fb1e 	bne	r4,r2,1000df4 <char_update_isr+0xc1c>
 1000a08:	5a000c17 	ldw	r8,48(r11)
 1000a0c:	32001216 	blt	r6,r8,1000a58 <char_update_isr+0x880>
 1000a10:	39400117 	ldw	r5,4(r7)
 1000a14:	59000217 	ldw	r4,8(r11)
 1000a18:	28bfff84 	addi	r2,r5,-2
 1000a1c:	11000e16 	blt	r2,r4,1000a58 <char_update_isr+0x880>
 1000a20:	38800317 	ldw	r2,12(r7)
 1000a24:	58c02017 	ldw	r3,128(r11)
 1000a28:	2885c83a 	sub	r2,r5,r2
 1000a2c:	20c7883a 	add	r3,r4,r3
 1000a30:	10800284 	addi	r2,r2,10
 1000a34:	18800816 	blt	r3,r2,1000a58 <char_update_isr+0x880>
 1000a38:	38800217 	ldw	r2,8(r7)
 1000a3c:	59003417 	ldw	r4,208(r11)
 1000a40:	3085c83a 	sub	r2,r6,r2
 1000a44:	10800284 	addi	r2,r2,10
 1000a48:	4107883a 	add	r3,r8,r4
 1000a4c:	18800216 	blt	r3,r2,1000a58 <char_update_isr+0x880>
 1000a50:	00bfffc4 	movi	r2,-1
 1000a54:	2080e71e 	bne	r4,r2,1000df4 <char_update_isr+0xc1c>
 1000a58:	5a000d17 	ldw	r8,52(r11)
 1000a5c:	32001216 	blt	r6,r8,1000aa8 <char_update_isr+0x8d0>
 1000a60:	39400117 	ldw	r5,4(r7)
 1000a64:	59000317 	ldw	r4,12(r11)
 1000a68:	28bfff84 	addi	r2,r5,-2
 1000a6c:	11000e16 	blt	r2,r4,1000aa8 <char_update_isr+0x8d0>
 1000a70:	38800317 	ldw	r2,12(r7)
 1000a74:	58c02117 	ldw	r3,132(r11)
 1000a78:	2885c83a 	sub	r2,r5,r2
 1000a7c:	20c7883a 	add	r3,r4,r3
 1000a80:	10800284 	addi	r2,r2,10
 1000a84:	18800816 	blt	r3,r2,1000aa8 <char_update_isr+0x8d0>
 1000a88:	38800217 	ldw	r2,8(r7)
 1000a8c:	59003517 	ldw	r4,212(r11)
 1000a90:	3085c83a 	sub	r2,r6,r2
 1000a94:	10800284 	addi	r2,r2,10
 1000a98:	4107883a 	add	r3,r8,r4
 1000a9c:	18800216 	blt	r3,r2,1000aa8 <char_update_isr+0x8d0>
 1000aa0:	00bfffc4 	movi	r2,-1
 1000aa4:	2080d31e 	bne	r4,r2,1000df4 <char_update_isr+0xc1c>
 1000aa8:	5a000e17 	ldw	r8,56(r11)
 1000aac:	32001216 	blt	r6,r8,1000af8 <char_update_isr+0x920>
 1000ab0:	39400117 	ldw	r5,4(r7)
 1000ab4:	59000417 	ldw	r4,16(r11)
 1000ab8:	28bfff84 	addi	r2,r5,-2
 1000abc:	11000e16 	blt	r2,r4,1000af8 <char_update_isr+0x920>
 1000ac0:	38800317 	ldw	r2,12(r7)
 1000ac4:	58c02217 	ldw	r3,136(r11)
 1000ac8:	2885c83a 	sub	r2,r5,r2
 1000acc:	20c7883a 	add	r3,r4,r3
 1000ad0:	10800284 	addi	r2,r2,10
 1000ad4:	18800816 	blt	r3,r2,1000af8 <char_update_isr+0x920>
 1000ad8:	38800217 	ldw	r2,8(r7)
 1000adc:	59003617 	ldw	r4,216(r11)
 1000ae0:	3085c83a 	sub	r2,r6,r2
 1000ae4:	10800284 	addi	r2,r2,10
 1000ae8:	4107883a 	add	r3,r8,r4
 1000aec:	18800216 	blt	r3,r2,1000af8 <char_update_isr+0x920>
 1000af0:	00bfffc4 	movi	r2,-1
 1000af4:	2080bf1e 	bne	r4,r2,1000df4 <char_update_isr+0xc1c>
 1000af8:	5a000f17 	ldw	r8,60(r11)
 1000afc:	32001216 	blt	r6,r8,1000b48 <char_update_isr+0x970>
 1000b00:	39400117 	ldw	r5,4(r7)
 1000b04:	59000517 	ldw	r4,20(r11)
 1000b08:	28bfff84 	addi	r2,r5,-2
 1000b0c:	11000e16 	blt	r2,r4,1000b48 <char_update_isr+0x970>
 1000b10:	38800317 	ldw	r2,12(r7)
 1000b14:	58c02317 	ldw	r3,140(r11)
 1000b18:	2885c83a 	sub	r2,r5,r2
 1000b1c:	20c7883a 	add	r3,r4,r3
 1000b20:	10800284 	addi	r2,r2,10
 1000b24:	18800816 	blt	r3,r2,1000b48 <char_update_isr+0x970>
 1000b28:	38800217 	ldw	r2,8(r7)
 1000b2c:	59003717 	ldw	r4,220(r11)
 1000b30:	3085c83a 	sub	r2,r6,r2
 1000b34:	10800284 	addi	r2,r2,10
 1000b38:	4107883a 	add	r3,r8,r4
 1000b3c:	18800216 	blt	r3,r2,1000b48 <char_update_isr+0x970>
 1000b40:	00bfffc4 	movi	r2,-1
 1000b44:	2080ab1e 	bne	r4,r2,1000df4 <char_update_isr+0xc1c>
 1000b48:	5a001017 	ldw	r8,64(r11)
 1000b4c:	32001216 	blt	r6,r8,1000b98 <char_update_isr+0x9c0>
 1000b50:	39400117 	ldw	r5,4(r7)
 1000b54:	59000617 	ldw	r4,24(r11)
 1000b58:	28bfff84 	addi	r2,r5,-2
 1000b5c:	11000e16 	blt	r2,r4,1000b98 <char_update_isr+0x9c0>
 1000b60:	38800317 	ldw	r2,12(r7)
 1000b64:	58c02417 	ldw	r3,144(r11)
 1000b68:	2885c83a 	sub	r2,r5,r2
 1000b6c:	20c7883a 	add	r3,r4,r3
 1000b70:	10800284 	addi	r2,r2,10
 1000b74:	18800816 	blt	r3,r2,1000b98 <char_update_isr+0x9c0>
 1000b78:	38800217 	ldw	r2,8(r7)
 1000b7c:	59003817 	ldw	r4,224(r11)
 1000b80:	3085c83a 	sub	r2,r6,r2
 1000b84:	10800284 	addi	r2,r2,10
 1000b88:	4107883a 	add	r3,r8,r4
 1000b8c:	18800216 	blt	r3,r2,1000b98 <char_update_isr+0x9c0>
 1000b90:	00bfffc4 	movi	r2,-1
 1000b94:	2080971e 	bne	r4,r2,1000df4 <char_update_isr+0xc1c>
 1000b98:	5a001117 	ldw	r8,68(r11)
 1000b9c:	32001216 	blt	r6,r8,1000be8 <char_update_isr+0xa10>
 1000ba0:	39400117 	ldw	r5,4(r7)
 1000ba4:	59000717 	ldw	r4,28(r11)
 1000ba8:	28bfff84 	addi	r2,r5,-2
 1000bac:	11000e16 	blt	r2,r4,1000be8 <char_update_isr+0xa10>
 1000bb0:	38800317 	ldw	r2,12(r7)
 1000bb4:	58c02517 	ldw	r3,148(r11)
 1000bb8:	2885c83a 	sub	r2,r5,r2
 1000bbc:	20c7883a 	add	r3,r4,r3
 1000bc0:	10800284 	addi	r2,r2,10
 1000bc4:	18800816 	blt	r3,r2,1000be8 <char_update_isr+0xa10>
 1000bc8:	38800217 	ldw	r2,8(r7)
 1000bcc:	59003917 	ldw	r4,228(r11)
 1000bd0:	3085c83a 	sub	r2,r6,r2
 1000bd4:	10800284 	addi	r2,r2,10
 1000bd8:	4107883a 	add	r3,r8,r4
 1000bdc:	18800216 	blt	r3,r2,1000be8 <char_update_isr+0xa10>
 1000be0:	00bfffc4 	movi	r2,-1
 1000be4:	2080831e 	bne	r4,r2,1000df4 <char_update_isr+0xc1c>
 1000be8:	5a001217 	ldw	r8,72(r11)
 1000bec:	32001216 	blt	r6,r8,1000c38 <char_update_isr+0xa60>
 1000bf0:	39400117 	ldw	r5,4(r7)
 1000bf4:	59000817 	ldw	r4,32(r11)
 1000bf8:	28bfff84 	addi	r2,r5,-2
 1000bfc:	11000e16 	blt	r2,r4,1000c38 <char_update_isr+0xa60>
 1000c00:	38800317 	ldw	r2,12(r7)
 1000c04:	58c02617 	ldw	r3,152(r11)
 1000c08:	2885c83a 	sub	r2,r5,r2
 1000c0c:	20c7883a 	add	r3,r4,r3
 1000c10:	10800284 	addi	r2,r2,10
 1000c14:	18800816 	blt	r3,r2,1000c38 <char_update_isr+0xa60>
 1000c18:	38800217 	ldw	r2,8(r7)
 1000c1c:	59003a17 	ldw	r4,232(r11)
 1000c20:	3085c83a 	sub	r2,r6,r2
 1000c24:	10800284 	addi	r2,r2,10
 1000c28:	4107883a 	add	r3,r8,r4
 1000c2c:	18800216 	blt	r3,r2,1000c38 <char_update_isr+0xa60>
 1000c30:	00bfffc4 	movi	r2,-1
 1000c34:	20806f1e 	bne	r4,r2,1000df4 <char_update_isr+0xc1c>
 1000c38:	5a001317 	ldw	r8,76(r11)
 1000c3c:	32001216 	blt	r6,r8,1000c88 <char_update_isr+0xab0>
 1000c40:	39000117 	ldw	r4,4(r7)
 1000c44:	59400917 	ldw	r5,36(r11)
 1000c48:	20bfff84 	addi	r2,r4,-2
 1000c4c:	11400e16 	blt	r2,r5,1000c88 <char_update_isr+0xab0>
 1000c50:	38800317 	ldw	r2,12(r7)
 1000c54:	58c02717 	ldw	r3,156(r11)
 1000c58:	2085c83a 	sub	r2,r4,r2
 1000c5c:	28c7883a 	add	r3,r5,r3
 1000c60:	10800284 	addi	r2,r2,10
 1000c64:	18800816 	blt	r3,r2,1000c88 <char_update_isr+0xab0>
 1000c68:	38800217 	ldw	r2,8(r7)
 1000c6c:	59003b17 	ldw	r4,236(r11)
 1000c70:	3085c83a 	sub	r2,r6,r2
 1000c74:	10800284 	addi	r2,r2,10
 1000c78:	4107883a 	add	r3,r8,r4
 1000c7c:	18800216 	blt	r3,r2,1000c88 <char_update_isr+0xab0>
 1000c80:	00bfffc4 	movi	r2,-1
 1000c84:	20805b1e 	bne	r4,r2,1000df4 <char_update_isr+0xc1c>
//	}
//	if(c->collide) return;

	//coin collision
	for(i = 0; i < OBJECT_SIZE; i++) {//checks all coins
		if(c->x >= co->x[i] && c->y >= co->y[i] && c->y-c->height <= co->y[i]+ co->height[i] && co->temp_length[i] != -1 &&
 1000c88:	6a000a17 	ldw	r8,40(r13)
 1000c8c:	32005c16 	blt	r6,r8,1000e00 <char_update_isr+0xc28>
 1000c90:	39400117 	ldw	r5,4(r7)
 1000c94:	69000017 	ldw	r4,0(r13)
 1000c98:	29005916 	blt	r5,r4,1000e00 <char_update_isr+0xc28>
 1000c9c:	38c00317 	ldw	r3,12(r7)
 1000ca0:	68801e17 	ldw	r2,120(r13)
 1000ca4:	28c7c83a 	sub	r3,r5,r3
 1000ca8:	2085883a 	add	r2,r4,r2
 1000cac:	10c05416 	blt	r2,r3,1000e00 <char_update_isr+0xc28>
 1000cb0:	68c03217 	ldw	r3,200(r13)
 1000cb4:	00bfffc4 	movi	r2,-1
 1000cb8:	18805126 	beq	r3,r2,1000e00 <char_update_isr+0xc28>
 1000cbc:	38800217 	ldw	r2,8(r7)
 1000cc0:	40c7883a 	add	r3,r8,r3
 1000cc4:	3085c83a 	sub	r2,r6,r2
 1000cc8:	18804d16 	blt	r3,r2,1000e00 <char_update_isr+0xc28>
 1000ccc:	0007883a 	mov	r3,zero
			c->x - c->width <= co->x[i] + co->temp_length[i])
		{
			m->ab->sfx_flag1 = true;
 1000cd0:	71400817 	ldw	r5,32(r14)
			m->ab->sfx_count1 = 0;
			c->points++;
			co->temp_length[i] = -1;
 1000cd4:	18c7883a 	add	r3,r3,r3
 1000cd8:	18c7883a 	add	r3,r3,r3
	for(i = 0; i < OBJECT_SIZE; i++) {//checks all coins
		if(c->x >= co->x[i] && c->y >= co->y[i] && c->y-c->height <= co->y[i]+ co->height[i] && co->temp_length[i] != -1 &&
			c->x - c->width <= co->x[i] + co->temp_length[i])
		{
			m->ab->sfx_flag1 = true;
			m->ab->sfx_count1 = 0;
 1000cdc:	28030115 	stw	zero,3076(r5)
			c->points++;
 1000ce0:	38800e17 	ldw	r2,56(r7)
			co->temp_length[i] = -1;
 1000ce4:	1b47883a 	add	r3,r3,r13
			co->x[i] = 340;
 1000ce8:	01005504 	movi	r4,340
		if(c->x >= co->x[i] && c->y >= co->y[i] && c->y-c->height <= co->y[i]+ co->height[i] && co->temp_length[i] != -1 &&
			c->x - c->width <= co->x[i] + co->temp_length[i])
		{
			m->ab->sfx_flag1 = true;
			m->ab->sfx_count1 = 0;
			c->points++;
 1000cec:	10800044 	addi	r2,r2,1
 1000cf0:	38800e15 	stw	r2,56(r7)
			co->temp_length[i] = -1;
 1000cf4:	00bfffc4 	movi	r2,-1
 1000cf8:	18803215 	stw	r2,200(r3)
			co->x[i] = 340;
 1000cfc:	19000a15 	stw	r4,40(r3)
 1000d00:	39800017 	ldw	r6,0(r7)
	//coin collision
	for(i = 0; i < OBJECT_SIZE; i++) {//checks all coins
		if(c->x >= co->x[i] && c->y >= co->y[i] && c->y-c->height <= co->y[i]+ co->height[i] && co->temp_length[i] != -1 &&
			c->x - c->width <= co->x[i] + co->temp_length[i])
		{
			m->ab->sfx_flag1 = true;
 1000d04:	00800044 	movi	r2,1
 1000d08:	2882fe15 	stw	r2,3064(r5)
			//printf("points:%i\n", c->points);
			break;
		}
	}
	//flag collision
	if(c->x >= flag->x[0] && c->y >= flag->y[0] && c->y - c->height <= flag->y[0] + flag->height[0] && flag->temp_length[0] != -1 &&
 1000d0c:	7a000a17 	ldw	r8,40(r15)
 1000d10:	3200e616 	blt	r6,r8,10010ac <char_update_isr+0xed4>
 1000d14:	39000117 	ldw	r4,4(r7)
 1000d18:	79400017 	ldw	r5,0(r15)
 1000d1c:	2140e316 	blt	r4,r5,10010ac <char_update_isr+0xed4>
 1000d20:	38c00317 	ldw	r3,12(r7)
 1000d24:	78801e17 	ldw	r2,120(r15)
 1000d28:	20c7c83a 	sub	r3,r4,r3
 1000d2c:	2885883a 	add	r2,r5,r2
 1000d30:	10c0de16 	blt	r2,r3,10010ac <char_update_isr+0xed4>
 1000d34:	78c03217 	ldw	r3,200(r15)
 1000d38:	00bfffc4 	movi	r2,-1
 1000d3c:	1880db26 	beq	r3,r2,10010ac <char_update_isr+0xed4>
 1000d40:	38800217 	ldw	r2,8(r7)
 1000d44:	40c7883a 	add	r3,r8,r3
 1000d48:	3085c83a 	sub	r2,r6,r2
 1000d4c:	1880d716 	blt	r3,r2,10010ac <char_update_isr+0xed4>
		c->x - c->width <= flag->x[0] + flag->temp_length[0])
	{
		c->points+=5;
 1000d50:	39400e17 	ldw	r5,56(r7)
		c->win = true;
 1000d54:	00800044 	movi	r2,1

		printf("points:%i\n", c->points);
 1000d58:	010040b4 	movhi	r4,258
 1000d5c:	2123fd04 	addi	r4,r4,-28684
	}
	//flag collision
	if(c->x >= flag->x[0] && c->y >= flag->y[0] && c->y - c->height <= flag->y[0] + flag->height[0] && flag->temp_length[0] != -1 &&
		c->x - c->width <= flag->x[0] + flag->temp_length[0])
	{
		c->points+=5;
 1000d60:	29400144 	addi	r5,r5,5
		c->win = true;
 1000d64:	38800a15 	stw	r2,40(r7)
	}
	//flag collision
	if(c->x >= flag->x[0] && c->y >= flag->y[0] && c->y - c->height <= flag->y[0] + flag->height[0] && flag->temp_length[0] != -1 &&
		c->x - c->width <= flag->x[0] + flag->temp_length[0])
	{
		c->points+=5;
 1000d68:	39400e15 	stw	r5,56(r7)
		c->win = true;

		printf("points:%i\n", c->points);
 1000d6c:	1006f641 	jmpi	1006f64 <printf>
	}


	if(c->ducking == false){

			c->height = 31;
 1000d70:	008007c4 	movi	r2,31
 1000d74:	38800315 	stw	r2,12(r7)
	int i;


	//obstacle collision
	for(i = 0; i < OBJECT_SIZE; i++) {//checks all boxes
		if(c->x >= o->x[i] && c->y-2 >= o->y[i] && c->y-c->height+10 <= o->y[i]+o->height[i] &&
 1000d78:	39800017 	ldw	r6,0(r7)
 1000d7c:	52400a17 	ldw	r9,40(r10)
 1000d80:	327d3116 	blt	r6,r9,1000248 <char_update_isr+0x70>
 1000d84:	00000906 	br	1000dac <char_update_isr+0xbd4>
	//m->c->y + dy;

	//if( c->y == 239 ) c->collide = true; //check if fell off screen
	if(d_counter <= 300){
		if (d_counter%10 == 0)
		c->y += 1;
 1000d88:	38800117 	ldw	r2,4(r7)
		else;
		d_counter++;
		IOWR_16DIRECT(TIMER_2_BASE, 4, 0x5); //restart timer
 1000d8c:	00c00144 	movi	r3,5
	//m->c->y + dy;

	//if( c->y == 239 ) c->collide = true; //check if fell off screen
	if(d_counter <= 300){
		if (d_counter%10 == 0)
		c->y += 1;
 1000d90:	11000044 	addi	r4,r2,1
 1000d94:	39000115 	stw	r4,4(r7)
		else;
		d_counter++;
 1000d98:	28800044 	addi	r2,r5,1
 1000d9c:	d0a7d815 	stw	r2,-24736(gp)
		IOWR_16DIRECT(TIMER_2_BASE, 4, 0x5); //restart timer
 1000da0:	00911104 	movi	r2,17476
 1000da4:	10c0002d 	sthio	r3,0(r2)
 1000da8:	f800283a 	ret
	int i;


	//obstacle collision
	for(i = 0; i < OBJECT_SIZE; i++) {//checks all boxes
		if(c->x >= o->x[i] && c->y-2 >= o->y[i] && c->y-c->height+10 <= o->y[i]+o->height[i] &&
 1000dac:	39400117 	ldw	r5,4(r7)
 1000db0:	51000017 	ldw	r4,0(r10)
 1000db4:	28bfff84 	addi	r2,r5,-2
 1000db8:	113d2316 	blt	r2,r4,1000248 <char_update_isr+0x70>
 1000dbc:	38800317 	ldw	r2,12(r7)
 1000dc0:	50c01e17 	ldw	r3,120(r10)
 1000dc4:	2885c83a 	sub	r2,r5,r2
 1000dc8:	20c7883a 	add	r3,r4,r3
 1000dcc:	10800284 	addi	r2,r2,10
 1000dd0:	18bd1d16 	blt	r3,r2,1000248 <char_update_isr+0x70>
 1000dd4:	38800217 	ldw	r2,8(r7)
 1000dd8:	51003217 	ldw	r4,200(r10)
 1000ddc:	3085c83a 	sub	r2,r6,r2
 1000de0:	10800284 	addi	r2,r2,10
 1000de4:	4907883a 	add	r3,r9,r4
 1000de8:	18bd1716 	blt	r3,r2,1000248 <char_update_isr+0x70>
 1000dec:	00bfffc4 	movi	r2,-1
 1000df0:	20bd1526 	beq	r4,r2,1000248 <char_update_isr+0x70>
			else{
			c->y+=2;
			c->f_counter++;
			}
		if(c->y+4 >= 239){
			c->collide=true;
 1000df4:	00800044 	movi	r2,1
 1000df8:	38800615 	stw	r2,24(r7)
 1000dfc:	f800283a 	ret
//	}
//	if(c->collide) return;

	//coin collision
	for(i = 0; i < OBJECT_SIZE; i++) {//checks all coins
		if(c->x >= co->x[i] && c->y >= co->y[i] && c->y-c->height <= co->y[i]+ co->height[i] && co->temp_length[i] != -1 &&
 1000e00:	6a000b17 	ldw	r8,44(r13)
 1000e04:	32001116 	blt	r6,r8,1000e4c <char_update_isr+0xc74>
 1000e08:	39400117 	ldw	r5,4(r7)
 1000e0c:	69000117 	ldw	r4,4(r13)
 1000e10:	29000e16 	blt	r5,r4,1000e4c <char_update_isr+0xc74>
 1000e14:	38c00317 	ldw	r3,12(r7)
 1000e18:	68801f17 	ldw	r2,124(r13)
 1000e1c:	28c7c83a 	sub	r3,r5,r3
 1000e20:	2085883a 	add	r2,r4,r2
 1000e24:	10c00916 	blt	r2,r3,1000e4c <char_update_isr+0xc74>
 1000e28:	68c03317 	ldw	r3,204(r13)
 1000e2c:	00bfffc4 	movi	r2,-1
 1000e30:	18800626 	beq	r3,r2,1000e4c <char_update_isr+0xc74>
 1000e34:	38800217 	ldw	r2,8(r7)
 1000e38:	40c7883a 	add	r3,r8,r3
 1000e3c:	3085c83a 	sub	r2,r6,r2
 1000e40:	18800216 	blt	r3,r2,1000e4c <char_update_isr+0xc74>
 1000e44:	00c00044 	movi	r3,1
 1000e48:	003fa106 	br	1000cd0 <char_update_isr+0xaf8>
 1000e4c:	6a000c17 	ldw	r8,48(r13)
 1000e50:	32001116 	blt	r6,r8,1000e98 <char_update_isr+0xcc0>
 1000e54:	39400117 	ldw	r5,4(r7)
 1000e58:	69000217 	ldw	r4,8(r13)
 1000e5c:	29000e16 	blt	r5,r4,1000e98 <char_update_isr+0xcc0>
 1000e60:	38c00317 	ldw	r3,12(r7)
 1000e64:	68802017 	ldw	r2,128(r13)
 1000e68:	28c7c83a 	sub	r3,r5,r3
 1000e6c:	2085883a 	add	r2,r4,r2
 1000e70:	10c00916 	blt	r2,r3,1000e98 <char_update_isr+0xcc0>
 1000e74:	68c03417 	ldw	r3,208(r13)
 1000e78:	00bfffc4 	movi	r2,-1
 1000e7c:	18800626 	beq	r3,r2,1000e98 <char_update_isr+0xcc0>
 1000e80:	38800217 	ldw	r2,8(r7)
 1000e84:	40c7883a 	add	r3,r8,r3
 1000e88:	3085c83a 	sub	r2,r6,r2
 1000e8c:	18800216 	blt	r3,r2,1000e98 <char_update_isr+0xcc0>
 1000e90:	00c00084 	movi	r3,2
 1000e94:	003f8e06 	br	1000cd0 <char_update_isr+0xaf8>
 1000e98:	6a000d17 	ldw	r8,52(r13)
 1000e9c:	32001116 	blt	r6,r8,1000ee4 <char_update_isr+0xd0c>
 1000ea0:	39400117 	ldw	r5,4(r7)
 1000ea4:	69000317 	ldw	r4,12(r13)
 1000ea8:	29000e16 	blt	r5,r4,1000ee4 <char_update_isr+0xd0c>
 1000eac:	38c00317 	ldw	r3,12(r7)
 1000eb0:	68802117 	ldw	r2,132(r13)
 1000eb4:	28c7c83a 	sub	r3,r5,r3
 1000eb8:	2085883a 	add	r2,r4,r2
 1000ebc:	10c00916 	blt	r2,r3,1000ee4 <char_update_isr+0xd0c>
 1000ec0:	68c03517 	ldw	r3,212(r13)
 1000ec4:	00bfffc4 	movi	r2,-1
 1000ec8:	18800626 	beq	r3,r2,1000ee4 <char_update_isr+0xd0c>
 1000ecc:	38800217 	ldw	r2,8(r7)
 1000ed0:	40c7883a 	add	r3,r8,r3
 1000ed4:	3085c83a 	sub	r2,r6,r2
 1000ed8:	18800216 	blt	r3,r2,1000ee4 <char_update_isr+0xd0c>
 1000edc:	00c000c4 	movi	r3,3
 1000ee0:	003f7b06 	br	1000cd0 <char_update_isr+0xaf8>
 1000ee4:	6a000e17 	ldw	r8,56(r13)
 1000ee8:	32001116 	blt	r6,r8,1000f30 <char_update_isr+0xd58>
 1000eec:	39400117 	ldw	r5,4(r7)
 1000ef0:	69000417 	ldw	r4,16(r13)
 1000ef4:	29000e16 	blt	r5,r4,1000f30 <char_update_isr+0xd58>
 1000ef8:	38c00317 	ldw	r3,12(r7)
 1000efc:	68802217 	ldw	r2,136(r13)
 1000f00:	28c7c83a 	sub	r3,r5,r3
 1000f04:	2085883a 	add	r2,r4,r2
 1000f08:	10c00916 	blt	r2,r3,1000f30 <char_update_isr+0xd58>
 1000f0c:	68c03617 	ldw	r3,216(r13)
 1000f10:	00bfffc4 	movi	r2,-1
 1000f14:	18800626 	beq	r3,r2,1000f30 <char_update_isr+0xd58>
 1000f18:	38800217 	ldw	r2,8(r7)
 1000f1c:	40c7883a 	add	r3,r8,r3
 1000f20:	3085c83a 	sub	r2,r6,r2
 1000f24:	18800216 	blt	r3,r2,1000f30 <char_update_isr+0xd58>
 1000f28:	00c00104 	movi	r3,4
 1000f2c:	003f6806 	br	1000cd0 <char_update_isr+0xaf8>
 1000f30:	6a000f17 	ldw	r8,60(r13)
 1000f34:	32001116 	blt	r6,r8,1000f7c <char_update_isr+0xda4>
 1000f38:	39400117 	ldw	r5,4(r7)
 1000f3c:	69000517 	ldw	r4,20(r13)
 1000f40:	29000e16 	blt	r5,r4,1000f7c <char_update_isr+0xda4>
 1000f44:	38c00317 	ldw	r3,12(r7)
 1000f48:	68802317 	ldw	r2,140(r13)
 1000f4c:	28c7c83a 	sub	r3,r5,r3
 1000f50:	2085883a 	add	r2,r4,r2
 1000f54:	10c00916 	blt	r2,r3,1000f7c <char_update_isr+0xda4>
 1000f58:	68c03717 	ldw	r3,220(r13)
 1000f5c:	00bfffc4 	movi	r2,-1
 1000f60:	18800626 	beq	r3,r2,1000f7c <char_update_isr+0xda4>
 1000f64:	38800217 	ldw	r2,8(r7)
 1000f68:	40c7883a 	add	r3,r8,r3
 1000f6c:	3085c83a 	sub	r2,r6,r2
 1000f70:	18800216 	blt	r3,r2,1000f7c <char_update_isr+0xda4>
 1000f74:	00c00144 	movi	r3,5
 1000f78:	003f5506 	br	1000cd0 <char_update_isr+0xaf8>
 1000f7c:	6a001017 	ldw	r8,64(r13)
 1000f80:	32001116 	blt	r6,r8,1000fc8 <char_update_isr+0xdf0>
 1000f84:	39400117 	ldw	r5,4(r7)
 1000f88:	69000617 	ldw	r4,24(r13)
 1000f8c:	29000e16 	blt	r5,r4,1000fc8 <char_update_isr+0xdf0>
 1000f90:	38c00317 	ldw	r3,12(r7)
 1000f94:	68802417 	ldw	r2,144(r13)
 1000f98:	28c7c83a 	sub	r3,r5,r3
 1000f9c:	2085883a 	add	r2,r4,r2
 1000fa0:	10c00916 	blt	r2,r3,1000fc8 <char_update_isr+0xdf0>
 1000fa4:	68c03817 	ldw	r3,224(r13)
 1000fa8:	00bfffc4 	movi	r2,-1
 1000fac:	18800626 	beq	r3,r2,1000fc8 <char_update_isr+0xdf0>
 1000fb0:	38800217 	ldw	r2,8(r7)
 1000fb4:	40c7883a 	add	r3,r8,r3
 1000fb8:	3085c83a 	sub	r2,r6,r2
 1000fbc:	18800216 	blt	r3,r2,1000fc8 <char_update_isr+0xdf0>
 1000fc0:	00c00184 	movi	r3,6
 1000fc4:	003f4206 	br	1000cd0 <char_update_isr+0xaf8>
 1000fc8:	6a001117 	ldw	r8,68(r13)
 1000fcc:	32001116 	blt	r6,r8,1001014 <char_update_isr+0xe3c>
 1000fd0:	39400117 	ldw	r5,4(r7)
 1000fd4:	69000717 	ldw	r4,28(r13)
 1000fd8:	29000e16 	blt	r5,r4,1001014 <char_update_isr+0xe3c>
 1000fdc:	38c00317 	ldw	r3,12(r7)
 1000fe0:	68802517 	ldw	r2,148(r13)
 1000fe4:	28c7c83a 	sub	r3,r5,r3
 1000fe8:	2085883a 	add	r2,r4,r2
 1000fec:	10c00916 	blt	r2,r3,1001014 <char_update_isr+0xe3c>
 1000ff0:	68c03917 	ldw	r3,228(r13)
 1000ff4:	00bfffc4 	movi	r2,-1
 1000ff8:	18800626 	beq	r3,r2,1001014 <char_update_isr+0xe3c>
 1000ffc:	38800217 	ldw	r2,8(r7)
 1001000:	40c7883a 	add	r3,r8,r3
 1001004:	3085c83a 	sub	r2,r6,r2
 1001008:	18800216 	blt	r3,r2,1001014 <char_update_isr+0xe3c>
 100100c:	00c001c4 	movi	r3,7
 1001010:	003f2f06 	br	1000cd0 <char_update_isr+0xaf8>
 1001014:	6a001217 	ldw	r8,72(r13)
 1001018:	32001116 	blt	r6,r8,1001060 <char_update_isr+0xe88>
 100101c:	39400117 	ldw	r5,4(r7)
 1001020:	69000817 	ldw	r4,32(r13)
 1001024:	29000e16 	blt	r5,r4,1001060 <char_update_isr+0xe88>
 1001028:	38c00317 	ldw	r3,12(r7)
 100102c:	68802617 	ldw	r2,152(r13)
 1001030:	28c7c83a 	sub	r3,r5,r3
 1001034:	2085883a 	add	r2,r4,r2
 1001038:	10c00916 	blt	r2,r3,1001060 <char_update_isr+0xe88>
 100103c:	68c03a17 	ldw	r3,232(r13)
 1001040:	00bfffc4 	movi	r2,-1
 1001044:	18800626 	beq	r3,r2,1001060 <char_update_isr+0xe88>
 1001048:	38800217 	ldw	r2,8(r7)
 100104c:	40c7883a 	add	r3,r8,r3
 1001050:	3085c83a 	sub	r2,r6,r2
 1001054:	18800216 	blt	r3,r2,1001060 <char_update_isr+0xe88>
 1001058:	00c00204 	movi	r3,8
 100105c:	003f1c06 	br	1000cd0 <char_update_isr+0xaf8>
 1001060:	6a001317 	ldw	r8,76(r13)
 1001064:	323f2916 	blt	r6,r8,1000d0c <char_update_isr+0xb34>
 1001068:	39000117 	ldw	r4,4(r7)
 100106c:	69400917 	ldw	r5,36(r13)
 1001070:	217f2616 	blt	r4,r5,1000d0c <char_update_isr+0xb34>
 1001074:	38c00317 	ldw	r3,12(r7)
 1001078:	68802717 	ldw	r2,156(r13)
 100107c:	20c7c83a 	sub	r3,r4,r3
 1001080:	2885883a 	add	r2,r5,r2
 1001084:	10ff2116 	blt	r2,r3,1000d0c <char_update_isr+0xb34>
 1001088:	68c03b17 	ldw	r3,236(r13)
 100108c:	00bfffc4 	movi	r2,-1
 1001090:	18bf1e26 	beq	r3,r2,1000d0c <char_update_isr+0xb34>
 1001094:	38800217 	ldw	r2,8(r7)
 1001098:	40c7883a 	add	r3,r8,r3
 100109c:	3085c83a 	sub	r2,r6,r2
 10010a0:	18bf1a16 	blt	r3,r2,1000d0c <char_update_isr+0xb34>
 10010a4:	00c00244 	movi	r3,9
 10010a8:	003f0906 	br	1000cd0 <char_update_isr+0xaf8>
		printf("points:%i\n", c->points);
		return;
	}

	//check if already jumping
	if(c->jump_pressed && !c->jumping && c->grounded){
 10010ac:	38800817 	ldw	r2,32(r7)
 10010b0:	1000d51e 	bne	r2,zero,1001408 <char_update_isr+0x1230>
		m->ab->sfx_count = 0;
		//c->jump_released = false;
	}

	//jumping mechanics
	if(c->jumping) {
 10010b4:	38800417 	ldw	r2,16(r7)
 10010b8:	1001f81e 	bne	r2,zero,100189c <char_update_isr+0x16c4>
			c->jump_pressed = false;
		}
	}
	else { //if not, he's falling
		//if(c->grounded) goto A;
		if(c->y < 239)
 10010bc:	39000117 	ldw	r4,4(r7)
 10010c0:	00803b84 	movi	r2,238
 10010c4:	11000116 	blt	r2,r4,10010cc <char_update_isr+0xef4>
			c->jump_pressed = false;
 10010c8:	38000815 	stw	zero,32(r7)
			//c->jump_released = true;
			if(c->f_counter < 25){
 10010cc:	38c00c17 	ldw	r3,48(r7)
 10010d0:	00800604 	movi	r2,24
 10010d4:	10c20016 	blt	r2,r3,10018d8 <char_update_isr+0x1700>
			c->y+=1;
 10010d8:	21000044 	addi	r4,r4,1
			c->f_counter++;
 10010dc:	18800044 	addi	r2,r3,1
 10010e0:	38800c15 	stw	r2,48(r7)
		//if(c->grounded) goto A;
		if(c->y < 239)
			c->jump_pressed = false;
			//c->jump_released = true;
			if(c->f_counter < 25){
			c->y+=1;
 10010e4:	39000115 	stw	r4,4(r7)
			}
			else{
			c->y+=2;
			c->f_counter++;
			}
		if(c->y+4 >= 239){
 10010e8:	00803a84 	movi	r2,234
 10010ec:	113f4116 	blt	r2,r4,1000df4 <char_update_isr+0xc1c>
			c->collide=true;
			return;
		}
		for(i = 0; i < OBJECT_SIZE; i++) { //checks all boxes
			if( c->x >= o->x[i] && c->y  >= o->y[i] &&c->y < o->y[i]+2 && o->temp_length[i] != -1 &&
 10010f0:	39800017 	ldw	r6,0(r7)
 10010f4:	50c00a17 	ldw	r3,40(r10)
 10010f8:	30c00f16 	blt	r6,r3,1001138 <char_update_isr+0xf60>
 10010fc:	50800017 	ldw	r2,0(r10)
 1001100:	20800d16 	blt	r4,r2,1001138 <char_update_isr+0xf60>
 1001104:	10800084 	addi	r2,r2,2
 1001108:	20800b0e 	bge	r4,r2,1001138 <char_update_isr+0xf60>
 100110c:	51403217 	ldw	r5,200(r10)
 1001110:	023fffc4 	movi	r8,-1
 1001114:	2a000826 	beq	r5,r8,1001138 <char_update_isr+0xf60>
 1001118:	38800217 	ldw	r2,8(r7)
 100111c:	1947883a 	add	r3,r3,r5
 1001120:	3085c83a 	sub	r2,r6,r2
 1001124:	18800416 	blt	r3,r2,1001138 <char_update_isr+0xf60>
 1001128:	50c02817 	ldw	r3,160(r10)
 100112c:	38800f17 	ldw	r2,60(r7)
 1001130:	10c20d26 	beq	r2,r3,1001968 <char_update_isr+0x1790>
 1001134:	1a020c26 	beq	r3,r8,1001968 <char_update_isr+0x1790>
 1001138:	50c00b17 	ldw	r3,44(r10)
 100113c:	30c00f16 	blt	r6,r3,100117c <char_update_isr+0xfa4>
 1001140:	50800117 	ldw	r2,4(r10)
 1001144:	20800d16 	blt	r4,r2,100117c <char_update_isr+0xfa4>
 1001148:	10800084 	addi	r2,r2,2
 100114c:	20800b0e 	bge	r4,r2,100117c <char_update_isr+0xfa4>
 1001150:	51403317 	ldw	r5,204(r10)
 1001154:	023fffc4 	movi	r8,-1
 1001158:	2a000826 	beq	r5,r8,100117c <char_update_isr+0xfa4>
 100115c:	38800217 	ldw	r2,8(r7)
 1001160:	1947883a 	add	r3,r3,r5
 1001164:	3085c83a 	sub	r2,r6,r2
 1001168:	18800416 	blt	r3,r2,100117c <char_update_isr+0xfa4>
 100116c:	50c02917 	ldw	r3,164(r10)
 1001170:	38800f17 	ldw	r2,60(r7)
 1001174:	10c1f826 	beq	r2,r3,1001958 <char_update_isr+0x1780>
 1001178:	1a01f726 	beq	r3,r8,1001958 <char_update_isr+0x1780>
 100117c:	50c00c17 	ldw	r3,48(r10)
 1001180:	30c00f16 	blt	r6,r3,10011c0 <char_update_isr+0xfe8>
 1001184:	50800217 	ldw	r2,8(r10)
 1001188:	20800d16 	blt	r4,r2,10011c0 <char_update_isr+0xfe8>
 100118c:	10800084 	addi	r2,r2,2
 1001190:	20800b0e 	bge	r4,r2,10011c0 <char_update_isr+0xfe8>
 1001194:	51403417 	ldw	r5,208(r10)
 1001198:	023fffc4 	movi	r8,-1
 100119c:	2a000826 	beq	r5,r8,10011c0 <char_update_isr+0xfe8>
 10011a0:	38800217 	ldw	r2,8(r7)
 10011a4:	1947883a 	add	r3,r3,r5
 10011a8:	3085c83a 	sub	r2,r6,r2
 10011ac:	18800416 	blt	r3,r2,10011c0 <char_update_isr+0xfe8>
 10011b0:	50c02a17 	ldw	r3,168(r10)
 10011b4:	38800f17 	ldw	r2,60(r7)
 10011b8:	10c1d326 	beq	r2,r3,1001908 <char_update_isr+0x1730>
 10011bc:	1a01d226 	beq	r3,r8,1001908 <char_update_isr+0x1730>
 10011c0:	50c00d17 	ldw	r3,52(r10)
 10011c4:	30c00f16 	blt	r6,r3,1001204 <char_update_isr+0x102c>
 10011c8:	50800317 	ldw	r2,12(r10)
 10011cc:	20800d16 	blt	r4,r2,1001204 <char_update_isr+0x102c>
 10011d0:	10800084 	addi	r2,r2,2
 10011d4:	20800b0e 	bge	r4,r2,1001204 <char_update_isr+0x102c>
 10011d8:	51403517 	ldw	r5,212(r10)
 10011dc:	023fffc4 	movi	r8,-1
 10011e0:	2a000826 	beq	r5,r8,1001204 <char_update_isr+0x102c>
 10011e4:	38800217 	ldw	r2,8(r7)
 10011e8:	1947883a 	add	r3,r3,r5
 10011ec:	3085c83a 	sub	r2,r6,r2
 10011f0:	18800416 	blt	r3,r2,1001204 <char_update_isr+0x102c>
 10011f4:	50c02b17 	ldw	r3,172(r10)
 10011f8:	38800f17 	ldw	r2,60(r7)
 10011fc:	10c1cc26 	beq	r2,r3,1001930 <char_update_isr+0x1758>
 1001200:	1a01cb26 	beq	r3,r8,1001930 <char_update_isr+0x1758>
 1001204:	50c00e17 	ldw	r3,56(r10)
 1001208:	30c00f16 	blt	r6,r3,1001248 <char_update_isr+0x1070>
 100120c:	50800417 	ldw	r2,16(r10)
 1001210:	20800d16 	blt	r4,r2,1001248 <char_update_isr+0x1070>
 1001214:	10800084 	addi	r2,r2,2
 1001218:	20800b0e 	bge	r4,r2,1001248 <char_update_isr+0x1070>
 100121c:	51403617 	ldw	r5,216(r10)
 1001220:	023fffc4 	movi	r8,-1
 1001224:	2a000826 	beq	r5,r8,1001248 <char_update_isr+0x1070>
 1001228:	38800217 	ldw	r2,8(r7)
 100122c:	1947883a 	add	r3,r3,r5
 1001230:	3085c83a 	sub	r2,r6,r2
 1001234:	18800416 	blt	r3,r2,1001248 <char_update_isr+0x1070>
 1001238:	50c02c17 	ldw	r3,176(r10)
 100123c:	38800f17 	ldw	r2,60(r7)
 1001240:	10c1c126 	beq	r2,r3,1001948 <char_update_isr+0x1770>
 1001244:	1a01c026 	beq	r3,r8,1001948 <char_update_isr+0x1770>
 1001248:	50c00f17 	ldw	r3,60(r10)
 100124c:	30c00f16 	blt	r6,r3,100128c <char_update_isr+0x10b4>
 1001250:	50800517 	ldw	r2,20(r10)
 1001254:	20800d16 	blt	r4,r2,100128c <char_update_isr+0x10b4>
 1001258:	10800084 	addi	r2,r2,2
 100125c:	20800b0e 	bge	r4,r2,100128c <char_update_isr+0x10b4>
 1001260:	51403717 	ldw	r5,220(r10)
 1001264:	023fffc4 	movi	r8,-1
 1001268:	2a000826 	beq	r5,r8,100128c <char_update_isr+0x10b4>
 100126c:	38800217 	ldw	r2,8(r7)
 1001270:	1947883a 	add	r3,r3,r5
 1001274:	3085c83a 	sub	r2,r6,r2
 1001278:	18800416 	blt	r3,r2,100128c <char_update_isr+0x10b4>
 100127c:	50c02d17 	ldw	r3,180(r10)
 1001280:	38800f17 	ldw	r2,60(r7)
 1001284:	10c1b226 	beq	r2,r3,1001950 <char_update_isr+0x1778>
 1001288:	1a01b126 	beq	r3,r8,1001950 <char_update_isr+0x1778>
 100128c:	50c01017 	ldw	r3,64(r10)
 1001290:	30c00f16 	blt	r6,r3,10012d0 <char_update_isr+0x10f8>
 1001294:	50800617 	ldw	r2,24(r10)
 1001298:	20800d16 	blt	r4,r2,10012d0 <char_update_isr+0x10f8>
 100129c:	10800084 	addi	r2,r2,2
 10012a0:	20800b0e 	bge	r4,r2,10012d0 <char_update_isr+0x10f8>
 10012a4:	51403817 	ldw	r5,224(r10)
 10012a8:	023fffc4 	movi	r8,-1
 10012ac:	2a000826 	beq	r5,r8,10012d0 <char_update_isr+0x10f8>
 10012b0:	38800217 	ldw	r2,8(r7)
 10012b4:	1947883a 	add	r3,r3,r5
 10012b8:	3085c83a 	sub	r2,r6,r2
 10012bc:	18800416 	blt	r3,r2,10012d0 <char_update_isr+0x10f8>
 10012c0:	50c02e17 	ldw	r3,184(r10)
 10012c4:	38800f17 	ldw	r2,60(r7)
 10012c8:	10c1a526 	beq	r2,r3,1001960 <char_update_isr+0x1788>
 10012cc:	1a01a426 	beq	r3,r8,1001960 <char_update_isr+0x1788>
 10012d0:	50c01117 	ldw	r3,68(r10)
 10012d4:	30c00f16 	blt	r6,r3,1001314 <char_update_isr+0x113c>
 10012d8:	50800717 	ldw	r2,28(r10)
 10012dc:	20800d16 	blt	r4,r2,1001314 <char_update_isr+0x113c>
 10012e0:	10800084 	addi	r2,r2,2
 10012e4:	20800b0e 	bge	r4,r2,1001314 <char_update_isr+0x113c>
 10012e8:	51403917 	ldw	r5,228(r10)
 10012ec:	023fffc4 	movi	r8,-1
 10012f0:	2a000826 	beq	r5,r8,1001314 <char_update_isr+0x113c>
 10012f4:	38800217 	ldw	r2,8(r7)
 10012f8:	1947883a 	add	r3,r3,r5
 10012fc:	3085c83a 	sub	r2,r6,r2
 1001300:	18800416 	blt	r3,r2,1001314 <char_update_isr+0x113c>
 1001304:	50c02f17 	ldw	r3,188(r10)
 1001308:	38800f17 	ldw	r2,60(r7)
 100130c:	10c18c26 	beq	r2,r3,1001940 <char_update_isr+0x1768>
 1001310:	1a018b26 	beq	r3,r8,1001940 <char_update_isr+0x1768>
 1001314:	50c01217 	ldw	r3,72(r10)
 1001318:	30c00f16 	blt	r6,r3,1001358 <char_update_isr+0x1180>
 100131c:	50800817 	ldw	r2,32(r10)
 1001320:	20800d16 	blt	r4,r2,1001358 <char_update_isr+0x1180>
 1001324:	10800084 	addi	r2,r2,2
 1001328:	20800b0e 	bge	r4,r2,1001358 <char_update_isr+0x1180>
 100132c:	51403a17 	ldw	r5,232(r10)
 1001330:	023fffc4 	movi	r8,-1
 1001334:	2a000826 	beq	r5,r8,1001358 <char_update_isr+0x1180>
 1001338:	38800217 	ldw	r2,8(r7)
 100133c:	1947883a 	add	r3,r3,r5
 1001340:	3085c83a 	sub	r2,r6,r2
 1001344:	18800416 	blt	r3,r2,1001358 <char_update_isr+0x1180>
 1001348:	50c03017 	ldw	r3,192(r10)
 100134c:	38800f17 	ldw	r2,60(r7)
 1001350:	10c18726 	beq	r2,r3,1001970 <char_update_isr+0x1798>
 1001354:	1a018626 	beq	r3,r8,1001970 <char_update_isr+0x1798>
 1001358:	50c01317 	ldw	r3,76(r10)
 100135c:	30c00f16 	blt	r6,r3,100139c <char_update_isr+0x11c4>
 1001360:	50800917 	ldw	r2,36(r10)
 1001364:	20800d16 	blt	r4,r2,100139c <char_update_isr+0x11c4>
 1001368:	10800084 	addi	r2,r2,2
 100136c:	20800b0e 	bge	r4,r2,100139c <char_update_isr+0x11c4>
 1001370:	51003b17 	ldw	r4,236(r10)
 1001374:	017fffc4 	movi	r5,-1
 1001378:	21400826 	beq	r4,r5,100139c <char_update_isr+0x11c4>
 100137c:	38800217 	ldw	r2,8(r7)
 1001380:	1907883a 	add	r3,r3,r4
 1001384:	3085c83a 	sub	r2,r6,r2
 1001388:	18800416 	blt	r3,r2,100139c <char_update_isr+0x11c4>
 100138c:	50c03117 	ldw	r3,196(r10)
 1001390:	38800f17 	ldw	r2,60(r7)
 1001394:	10c16826 	beq	r2,r3,1001938 <char_update_isr+0x1760>
 1001398:	19416726 	beq	r3,r5,1001938 <char_update_isr+0x1760>
				c->y = o->y[i] - 2; //if he went into a box, move him up
				break;
			}
		}
		for(i = 0; i < OBJECT_SIZE; i++) { //checks all boxes
			if( c->x >= box_1->x[i] && c->y  >= box_1->y[i] &&c->y < box_1->y[i]+2 && box_1->temp_length[i] != -1 &&
 100139c:	60c00a17 	ldw	r3,40(r12)
 10013a0:	30c0ae16 	blt	r6,r3,100165c <char_update_isr+0x1484>
 10013a4:	39000117 	ldw	r4,4(r7)
 10013a8:	60800017 	ldw	r2,0(r12)
 10013ac:	2080ab16 	blt	r4,r2,100165c <char_update_isr+0x1484>
 10013b0:	10800084 	addi	r2,r2,2
 10013b4:	2080a90e 	bge	r4,r2,100165c <char_update_isr+0x1484>
 10013b8:	61003217 	ldw	r4,200(r12)
 10013bc:	00bfffc4 	movi	r2,-1
 10013c0:	2080a626 	beq	r4,r2,100165c <char_update_isr+0x1484>
 10013c4:	38800217 	ldw	r2,8(r7)
 10013c8:	1907883a 	add	r3,r3,r4
 10013cc:	3085c83a 	sub	r2,r6,r2
 10013d0:	1880a216 	blt	r3,r2,100165c <char_update_isr+0x1484>
 10013d4:	0005883a 	mov	r2,zero
				c->x - c->width  <= box_1->x[i] + box_1->temp_length[i]) {
				c->grounded = true;
				c->y = box_1->y[i] - 2; //if he went into a box, move him up
 10013d8:	1085883a 	add	r2,r2,r2
 10013dc:	1085883a 	add	r2,r2,r2
 10013e0:	1305883a 	add	r2,r2,r12
 10013e4:	10c00017 	ldw	r3,0(r2)
			}
		}
		for(i = 0; i < OBJECT_SIZE; i++) { //checks all boxes
			if( c->x >= box_1->x[i] && c->y  >= box_1->y[i] &&c->y < box_1->y[i]+2 && box_1->temp_length[i] != -1 &&
				c->x - c->width  <= box_1->x[i] + box_1->temp_length[i]) {
				c->grounded = true;
 10013e8:	01000044 	movi	r4,1
 10013ec:	39000715 	stw	r4,28(r7)
				c->y = box_1->y[i] - 2; //if he went into a box, move him up
 10013f0:	18ffff84 	addi	r3,r3,-2
 10013f4:	38c00115 	stw	r3,4(r7)
				break;
				}
		}
	}
	IOWR_16DIRECT(TIMER_2_BASE, 4, 0x5); //restart timer
 10013f8:	00c00144 	movi	r3,5
 10013fc:	00911104 	movi	r2,17476
 1001400:	10c0002d 	sthio	r3,0(r2)
 1001404:	f800283a 	ret
		printf("points:%i\n", c->points);
		return;
	}

	//check if already jumping
	if(c->jump_pressed && !c->jumping && c->grounded){
 1001408:	38800417 	ldw	r2,16(r7)
 100140c:	1001231e 	bne	r2,zero,100189c <char_update_isr+0x16c4>
 1001410:	38800717 	ldw	r2,28(r7)
 1001414:	103f2926 	beq	r2,zero,10010bc <char_update_isr+0xee4>
		c->jumping = true;
		c->j_counter = 0;
		c->grounded = false;
		c->f_counter = 0;

		m->ab->sfx_flag = true;
 1001418:	70c00817 	ldw	r3,32(r14)

	//check if already jumping
	if(c->jump_pressed && !c->jumping && c->grounded){
		//printf("jumping: %i %i %i %i \n", c->jump_pressed, c->jumping, c->j_counter, c->grounded);
		c->jump_pressed = false;
		c->jumping = true;
 100141c:	00800044 	movi	r2,1
	}

	//check if already jumping
	if(c->jump_pressed && !c->jumping && c->grounded){
		//printf("jumping: %i %i %i %i \n", c->jump_pressed, c->jumping, c->j_counter, c->grounded);
		c->jump_pressed = false;
 1001420:	38000815 	stw	zero,32(r7)
		c->jumping = true;
 1001424:	38800415 	stw	r2,16(r7)
		c->j_counter = 0;
 1001428:	38000b15 	stw	zero,44(r7)
		c->grounded = false;
 100142c:	38000715 	stw	zero,28(r7)
		c->f_counter = 0;
 1001430:	38000c15 	stw	zero,48(r7)

		m->ab->sfx_flag = true;
 1001434:	1882fa15 	stw	r2,3048(r3)
		m->ab->sfx_count = 0;
 1001438:	1802fd15 	stw	zero,3060(r3)
 100143c:	003f1d06 	br	10010b4 <char_update_isr+0xedc>
	int i;


	//obstacle collision
	for(i = 0; i < OBJECT_SIZE; i++) {//checks all boxes
		if(c->x >= o->x[i] && c->y-2 >= o->y[i] && c->y-c->height+10 <= o->y[i]+o->height[i] &&
 1001440:	38800317 	ldw	r2,12(r7)
 1001444:	50c01f17 	ldw	r3,124(r10)
 1001448:	2885c83a 	sub	r2,r5,r2
 100144c:	20c7883a 	add	r3,r4,r3
 1001450:	10800284 	addi	r2,r2,10
 1001454:	18bb8216 	blt	r3,r2,1000260 <char_update_isr+0x88>
 1001458:	38800217 	ldw	r2,8(r7)
 100145c:	51003317 	ldw	r4,204(r10)
 1001460:	3085c83a 	sub	r2,r6,r2
 1001464:	10800284 	addi	r2,r2,10
 1001468:	4907883a 	add	r3,r9,r4
 100146c:	18bb7c16 	blt	r3,r2,1000260 <char_update_isr+0x88>
 1001470:	00bfffc4 	movi	r2,-1
 1001474:	20bb7a26 	beq	r4,r2,1000260 <char_update_isr+0x88>
 1001478:	003e5e06 	br	1000df4 <char_update_isr+0xc1c>
 100147c:	38800317 	ldw	r2,12(r7)
 1001480:	50c02017 	ldw	r3,128(r10)
 1001484:	2885c83a 	sub	r2,r5,r2
 1001488:	20c7883a 	add	r3,r4,r3
 100148c:	10800284 	addi	r2,r2,10
 1001490:	18bb7916 	blt	r3,r2,1000278 <char_update_isr+0xa0>
 1001494:	38800217 	ldw	r2,8(r7)
 1001498:	51003417 	ldw	r4,208(r10)
 100149c:	3085c83a 	sub	r2,r6,r2
 10014a0:	10800284 	addi	r2,r2,10
 10014a4:	4907883a 	add	r3,r9,r4
 10014a8:	18bb7316 	blt	r3,r2,1000278 <char_update_isr+0xa0>
 10014ac:	00bfffc4 	movi	r2,-1
 10014b0:	20bb7126 	beq	r4,r2,1000278 <char_update_isr+0xa0>
 10014b4:	003e4f06 	br	1000df4 <char_update_isr+0xc1c>
 10014b8:	38800317 	ldw	r2,12(r7)
 10014bc:	50c02117 	ldw	r3,132(r10)
 10014c0:	2885c83a 	sub	r2,r5,r2
 10014c4:	20c7883a 	add	r3,r4,r3
 10014c8:	10800284 	addi	r2,r2,10
 10014cc:	18bb7016 	blt	r3,r2,1000290 <char_update_isr+0xb8>
 10014d0:	38800217 	ldw	r2,8(r7)
 10014d4:	51003517 	ldw	r4,212(r10)
 10014d8:	3085c83a 	sub	r2,r6,r2
 10014dc:	10800284 	addi	r2,r2,10
 10014e0:	4907883a 	add	r3,r9,r4
 10014e4:	18bb6a16 	blt	r3,r2,1000290 <char_update_isr+0xb8>
 10014e8:	00bfffc4 	movi	r2,-1
 10014ec:	20bb6826 	beq	r4,r2,1000290 <char_update_isr+0xb8>
 10014f0:	003e4006 	br	1000df4 <char_update_isr+0xc1c>
 10014f4:	38800317 	ldw	r2,12(r7)
 10014f8:	50c02217 	ldw	r3,136(r10)
 10014fc:	2885c83a 	sub	r2,r5,r2
 1001500:	20c7883a 	add	r3,r4,r3
 1001504:	10800284 	addi	r2,r2,10
 1001508:	18bb6716 	blt	r3,r2,10002a8 <char_update_isr+0xd0>
 100150c:	38800217 	ldw	r2,8(r7)
 1001510:	51003617 	ldw	r4,216(r10)
 1001514:	3085c83a 	sub	r2,r6,r2
 1001518:	10800284 	addi	r2,r2,10
 100151c:	4907883a 	add	r3,r9,r4
 1001520:	18bb6116 	blt	r3,r2,10002a8 <char_update_isr+0xd0>
 1001524:	00bfffc4 	movi	r2,-1
 1001528:	20bb5f26 	beq	r4,r2,10002a8 <char_update_isr+0xd0>
 100152c:	003e3106 	br	1000df4 <char_update_isr+0xc1c>
 1001530:	38800317 	ldw	r2,12(r7)
 1001534:	50c02317 	ldw	r3,140(r10)
 1001538:	2885c83a 	sub	r2,r5,r2
 100153c:	20c7883a 	add	r3,r4,r3
 1001540:	10800284 	addi	r2,r2,10
 1001544:	18bb5e16 	blt	r3,r2,10002c0 <char_update_isr+0xe8>
 1001548:	38800217 	ldw	r2,8(r7)
 100154c:	51003717 	ldw	r4,220(r10)
 1001550:	3085c83a 	sub	r2,r6,r2
 1001554:	10800284 	addi	r2,r2,10
 1001558:	4907883a 	add	r3,r9,r4
 100155c:	18bb5816 	blt	r3,r2,10002c0 <char_update_isr+0xe8>
 1001560:	00bfffc4 	movi	r2,-1
 1001564:	20bb5626 	beq	r4,r2,10002c0 <char_update_isr+0xe8>
 1001568:	003e2206 	br	1000df4 <char_update_isr+0xc1c>
 100156c:	38800317 	ldw	r2,12(r7)
 1001570:	50c02417 	ldw	r3,144(r10)
 1001574:	2885c83a 	sub	r2,r5,r2
 1001578:	20c7883a 	add	r3,r4,r3
 100157c:	10800284 	addi	r2,r2,10
 1001580:	18bb5516 	blt	r3,r2,10002d8 <char_update_isr+0x100>
 1001584:	38800217 	ldw	r2,8(r7)
 1001588:	51003817 	ldw	r4,224(r10)
 100158c:	3085c83a 	sub	r2,r6,r2
 1001590:	10800284 	addi	r2,r2,10
 1001594:	4907883a 	add	r3,r9,r4
 1001598:	18bb4f16 	blt	r3,r2,10002d8 <char_update_isr+0x100>
 100159c:	00bfffc4 	movi	r2,-1
 10015a0:	20bb4d26 	beq	r4,r2,10002d8 <char_update_isr+0x100>
 10015a4:	003e1306 	br	1000df4 <char_update_isr+0xc1c>
 10015a8:	38800317 	ldw	r2,12(r7)
 10015ac:	50c02517 	ldw	r3,148(r10)
 10015b0:	2885c83a 	sub	r2,r5,r2
 10015b4:	20c7883a 	add	r3,r4,r3
 10015b8:	10800284 	addi	r2,r2,10
 10015bc:	18bb4c16 	blt	r3,r2,10002f0 <char_update_isr+0x118>
 10015c0:	38800217 	ldw	r2,8(r7)
 10015c4:	51003917 	ldw	r4,228(r10)
 10015c8:	3085c83a 	sub	r2,r6,r2
 10015cc:	10800284 	addi	r2,r2,10
 10015d0:	4907883a 	add	r3,r9,r4
 10015d4:	18bb4616 	blt	r3,r2,10002f0 <char_update_isr+0x118>
 10015d8:	00bfffc4 	movi	r2,-1
 10015dc:	20bb4426 	beq	r4,r2,10002f0 <char_update_isr+0x118>
 10015e0:	003e0406 	br	1000df4 <char_update_isr+0xc1c>
 10015e4:	38800317 	ldw	r2,12(r7)
 10015e8:	50c02617 	ldw	r3,152(r10)
 10015ec:	2885c83a 	sub	r2,r5,r2
 10015f0:	20c7883a 	add	r3,r4,r3
 10015f4:	10800284 	addi	r2,r2,10
 10015f8:	18bb4316 	blt	r3,r2,1000308 <char_update_isr+0x130>
 10015fc:	38800217 	ldw	r2,8(r7)
 1001600:	51003a17 	ldw	r4,232(r10)
 1001604:	3085c83a 	sub	r2,r6,r2
 1001608:	10800284 	addi	r2,r2,10
 100160c:	4907883a 	add	r3,r9,r4
 1001610:	18bb3d16 	blt	r3,r2,1000308 <char_update_isr+0x130>
 1001614:	00bfffc4 	movi	r2,-1
 1001618:	20bb3b26 	beq	r4,r2,1000308 <char_update_isr+0x130>
 100161c:	003df506 	br	1000df4 <char_update_isr+0xc1c>
 1001620:	38800317 	ldw	r2,12(r7)
 1001624:	50c02717 	ldw	r3,156(r10)
 1001628:	2885c83a 	sub	r2,r5,r2
 100162c:	20c7883a 	add	r3,r4,r3
 1001630:	10800284 	addi	r2,r2,10
 1001634:	18bb3a16 	blt	r3,r2,1000320 <char_update_isr+0x148>
 1001638:	38800217 	ldw	r2,8(r7)
 100163c:	51003b17 	ldw	r4,236(r10)
 1001640:	3085c83a 	sub	r2,r6,r2
 1001644:	10800284 	addi	r2,r2,10
 1001648:	4907883a 	add	r3,r9,r4
 100164c:	18bb3416 	blt	r3,r2,1000320 <char_update_isr+0x148>
 1001650:	00bfffc4 	movi	r2,-1
 1001654:	20bb3226 	beq	r4,r2,1000320 <char_update_isr+0x148>
 1001658:	003de606 	br	1000df4 <char_update_isr+0xc1c>
				c->y = o->y[i] - 2; //if he went into a box, move him up
				break;
			}
		}
		for(i = 0; i < OBJECT_SIZE; i++) { //checks all boxes
			if( c->x >= box_1->x[i] && c->y  >= box_1->y[i] &&c->y < box_1->y[i]+2 && box_1->temp_length[i] != -1 &&
 100165c:	60c00b17 	ldw	r3,44(r12)
 1001660:	30c00e16 	blt	r6,r3,100169c <char_update_isr+0x14c4>
 1001664:	39000117 	ldw	r4,4(r7)
 1001668:	60800117 	ldw	r2,4(r12)
 100166c:	20800b16 	blt	r4,r2,100169c <char_update_isr+0x14c4>
 1001670:	10800084 	addi	r2,r2,2
 1001674:	2080090e 	bge	r4,r2,100169c <char_update_isr+0x14c4>
 1001678:	61003317 	ldw	r4,204(r12)
 100167c:	00bfffc4 	movi	r2,-1
 1001680:	20800626 	beq	r4,r2,100169c <char_update_isr+0x14c4>
 1001684:	38800217 	ldw	r2,8(r7)
 1001688:	1907883a 	add	r3,r3,r4
 100168c:	3085c83a 	sub	r2,r6,r2
 1001690:	18800216 	blt	r3,r2,100169c <char_update_isr+0x14c4>
 1001694:	00800044 	movi	r2,1
 1001698:	003f4f06 	br	10013d8 <char_update_isr+0x1200>
 100169c:	60c00c17 	ldw	r3,48(r12)
 10016a0:	30c00e16 	blt	r6,r3,10016dc <char_update_isr+0x1504>
 10016a4:	39000117 	ldw	r4,4(r7)
 10016a8:	60800217 	ldw	r2,8(r12)
 10016ac:	20800b16 	blt	r4,r2,10016dc <char_update_isr+0x1504>
 10016b0:	10800084 	addi	r2,r2,2
 10016b4:	2080090e 	bge	r4,r2,10016dc <char_update_isr+0x1504>
 10016b8:	61003417 	ldw	r4,208(r12)
 10016bc:	00bfffc4 	movi	r2,-1
 10016c0:	20800626 	beq	r4,r2,10016dc <char_update_isr+0x1504>
 10016c4:	38800217 	ldw	r2,8(r7)
 10016c8:	1907883a 	add	r3,r3,r4
 10016cc:	3085c83a 	sub	r2,r6,r2
 10016d0:	18800216 	blt	r3,r2,10016dc <char_update_isr+0x1504>
 10016d4:	00800084 	movi	r2,2
 10016d8:	003f3f06 	br	10013d8 <char_update_isr+0x1200>
 10016dc:	60c00d17 	ldw	r3,52(r12)
 10016e0:	30c00e16 	blt	r6,r3,100171c <char_update_isr+0x1544>
 10016e4:	39000117 	ldw	r4,4(r7)
 10016e8:	60800317 	ldw	r2,12(r12)
 10016ec:	20800b16 	blt	r4,r2,100171c <char_update_isr+0x1544>
 10016f0:	10800084 	addi	r2,r2,2
 10016f4:	2080090e 	bge	r4,r2,100171c <char_update_isr+0x1544>
 10016f8:	61003517 	ldw	r4,212(r12)
 10016fc:	00bfffc4 	movi	r2,-1
 1001700:	20800626 	beq	r4,r2,100171c <char_update_isr+0x1544>
 1001704:	38800217 	ldw	r2,8(r7)
 1001708:	1907883a 	add	r3,r3,r4
 100170c:	3085c83a 	sub	r2,r6,r2
 1001710:	18800216 	blt	r3,r2,100171c <char_update_isr+0x1544>
 1001714:	008000c4 	movi	r2,3
 1001718:	003f2f06 	br	10013d8 <char_update_isr+0x1200>
 100171c:	60c00e17 	ldw	r3,56(r12)
 1001720:	30c00e16 	blt	r6,r3,100175c <char_update_isr+0x1584>
 1001724:	39000117 	ldw	r4,4(r7)
 1001728:	60800417 	ldw	r2,16(r12)
 100172c:	20800b16 	blt	r4,r2,100175c <char_update_isr+0x1584>
 1001730:	10800084 	addi	r2,r2,2
 1001734:	2080090e 	bge	r4,r2,100175c <char_update_isr+0x1584>
 1001738:	61003617 	ldw	r4,216(r12)
 100173c:	00bfffc4 	movi	r2,-1
 1001740:	20800626 	beq	r4,r2,100175c <char_update_isr+0x1584>
 1001744:	38800217 	ldw	r2,8(r7)
 1001748:	1907883a 	add	r3,r3,r4
 100174c:	3085c83a 	sub	r2,r6,r2
 1001750:	18800216 	blt	r3,r2,100175c <char_update_isr+0x1584>
 1001754:	00800104 	movi	r2,4
 1001758:	003f1f06 	br	10013d8 <char_update_isr+0x1200>
 100175c:	60c00f17 	ldw	r3,60(r12)
 1001760:	30c00e16 	blt	r6,r3,100179c <char_update_isr+0x15c4>
 1001764:	39000117 	ldw	r4,4(r7)
 1001768:	60800517 	ldw	r2,20(r12)
 100176c:	20800b16 	blt	r4,r2,100179c <char_update_isr+0x15c4>
 1001770:	10800084 	addi	r2,r2,2
 1001774:	2080090e 	bge	r4,r2,100179c <char_update_isr+0x15c4>
 1001778:	61003717 	ldw	r4,220(r12)
 100177c:	00bfffc4 	movi	r2,-1
 1001780:	20800626 	beq	r4,r2,100179c <char_update_isr+0x15c4>
 1001784:	38800217 	ldw	r2,8(r7)
 1001788:	1907883a 	add	r3,r3,r4
 100178c:	3085c83a 	sub	r2,r6,r2
 1001790:	18800216 	blt	r3,r2,100179c <char_update_isr+0x15c4>
 1001794:	00800144 	movi	r2,5
 1001798:	003f0f06 	br	10013d8 <char_update_isr+0x1200>
 100179c:	60c01017 	ldw	r3,64(r12)
 10017a0:	30c00e16 	blt	r6,r3,10017dc <char_update_isr+0x1604>
 10017a4:	39000117 	ldw	r4,4(r7)
 10017a8:	60800617 	ldw	r2,24(r12)
 10017ac:	20800b16 	blt	r4,r2,10017dc <char_update_isr+0x1604>
 10017b0:	10800084 	addi	r2,r2,2
 10017b4:	2080090e 	bge	r4,r2,10017dc <char_update_isr+0x1604>
 10017b8:	61003817 	ldw	r4,224(r12)
 10017bc:	00bfffc4 	movi	r2,-1
 10017c0:	20800626 	beq	r4,r2,10017dc <char_update_isr+0x1604>
 10017c4:	38800217 	ldw	r2,8(r7)
 10017c8:	1907883a 	add	r3,r3,r4
 10017cc:	3085c83a 	sub	r2,r6,r2
 10017d0:	18800216 	blt	r3,r2,10017dc <char_update_isr+0x1604>
 10017d4:	00800184 	movi	r2,6
 10017d8:	003eff06 	br	10013d8 <char_update_isr+0x1200>
 10017dc:	60c01117 	ldw	r3,68(r12)
 10017e0:	30c00e16 	blt	r6,r3,100181c <char_update_isr+0x1644>
 10017e4:	39000117 	ldw	r4,4(r7)
 10017e8:	60800717 	ldw	r2,28(r12)
 10017ec:	20800b16 	blt	r4,r2,100181c <char_update_isr+0x1644>
 10017f0:	10800084 	addi	r2,r2,2
 10017f4:	2080090e 	bge	r4,r2,100181c <char_update_isr+0x1644>
 10017f8:	61003917 	ldw	r4,228(r12)
 10017fc:	00bfffc4 	movi	r2,-1
 1001800:	20800626 	beq	r4,r2,100181c <char_update_isr+0x1644>
 1001804:	38800217 	ldw	r2,8(r7)
 1001808:	1907883a 	add	r3,r3,r4
 100180c:	3085c83a 	sub	r2,r6,r2
 1001810:	18800216 	blt	r3,r2,100181c <char_update_isr+0x1644>
 1001814:	008001c4 	movi	r2,7
 1001818:	003eef06 	br	10013d8 <char_update_isr+0x1200>
 100181c:	60c01217 	ldw	r3,72(r12)
 1001820:	30c00e16 	blt	r6,r3,100185c <char_update_isr+0x1684>
 1001824:	39000117 	ldw	r4,4(r7)
 1001828:	60800817 	ldw	r2,32(r12)
 100182c:	20800b16 	blt	r4,r2,100185c <char_update_isr+0x1684>
 1001830:	10800084 	addi	r2,r2,2
 1001834:	2080090e 	bge	r4,r2,100185c <char_update_isr+0x1684>
 1001838:	61003a17 	ldw	r4,232(r12)
 100183c:	00bfffc4 	movi	r2,-1
 1001840:	20800626 	beq	r4,r2,100185c <char_update_isr+0x1684>
 1001844:	38800217 	ldw	r2,8(r7)
 1001848:	1907883a 	add	r3,r3,r4
 100184c:	3085c83a 	sub	r2,r6,r2
 1001850:	18800216 	blt	r3,r2,100185c <char_update_isr+0x1684>
 1001854:	00800204 	movi	r2,8
 1001858:	003edf06 	br	10013d8 <char_update_isr+0x1200>
 100185c:	60c01317 	ldw	r3,76(r12)
 1001860:	30fee516 	blt	r6,r3,10013f8 <char_update_isr+0x1220>
 1001864:	39000117 	ldw	r4,4(r7)
 1001868:	60800917 	ldw	r2,36(r12)
 100186c:	20bee216 	blt	r4,r2,10013f8 <char_update_isr+0x1220>
 1001870:	10800084 	addi	r2,r2,2
 1001874:	20bee00e 	bge	r4,r2,10013f8 <char_update_isr+0x1220>
 1001878:	61003b17 	ldw	r4,236(r12)
 100187c:	00bfffc4 	movi	r2,-1
 1001880:	20bedd26 	beq	r4,r2,10013f8 <char_update_isr+0x1220>
 1001884:	38800217 	ldw	r2,8(r7)
 1001888:	1907883a 	add	r3,r3,r4
 100188c:	3085c83a 	sub	r2,r6,r2
 1001890:	18bed916 	blt	r3,r2,10013f8 <char_update_isr+0x1220>
 1001894:	00800244 	movi	r2,9
 1001898:	003ecf06 	br	10013d8 <char_update_isr+0x1200>
		//c->jump_released = false;
	}

	//jumping mechanics
	if(c->jumping) {
		if(c->j_counter < 25){
 100189c:	39400b17 	ldw	r5,44(r7)
 10018a0:	00800604 	movi	r2,24
 10018a4:	11400716 	blt	r2,r5,10018c4 <char_update_isr+0x16ec>
			m->c->y-=2;
 10018a8:	38c00117 	ldw	r3,4(r7)
			c->j_counter++;
 10018ac:	28800044 	addi	r2,r5,1
 10018b0:	38800b15 	stw	r2,44(r7)
	}

	//jumping mechanics
	if(c->jumping) {
		if(c->j_counter < 25){
			m->c->y-=2;
 10018b4:	193fff84 	addi	r4,r3,-2
 10018b8:	39000115 	stw	r4,4(r7)
			c->j_counter++;
			c->jump_pressed = false;
 10018bc:	38000815 	stw	zero,32(r7)
 10018c0:	003ecd06 	br	10013f8 <char_update_isr+0x1220>
		}
		else if(c->j_counter < 40){
 10018c4:	008009c4 	movi	r2,39
 10018c8:	1140080e 	bge	r2,r5,10018ec <char_update_isr+0x1714>
			c->j_counter++;
			c->jump_pressed = false;
		}
		else{
			c->jumping = false;
			c->jump_pressed = false;
 10018cc:	38000815 	stw	zero,32(r7)
			m->c->y-=1;
			c->j_counter++;
			c->jump_pressed = false;
		}
		else{
			c->jumping = false;
 10018d0:	38000415 	stw	zero,16(r7)
 10018d4:	003ec806 	br	10013f8 <char_update_isr+0x1220>
			if(c->f_counter < 25){
			c->y+=1;
			c->f_counter++;
			}
			else{
			c->y+=2;
 10018d8:	21000084 	addi	r4,r4,2
			c->f_counter++;
 10018dc:	18800044 	addi	r2,r3,1
 10018e0:	38800c15 	stw	r2,48(r7)
			if(c->f_counter < 25){
			c->y+=1;
			c->f_counter++;
			}
			else{
			c->y+=2;
 10018e4:	39000115 	stw	r4,4(r7)
 10018e8:	003dff06 	br	10010e8 <char_update_isr+0xf10>
			m->c->y-=2;
			c->j_counter++;
			c->jump_pressed = false;
		}
		else if(c->j_counter < 40){
			m->c->y-=1;
 10018ec:	38c00117 	ldw	r3,4(r7)
			c->j_counter++;
 10018f0:	28800044 	addi	r2,r5,1
 10018f4:	38800b15 	stw	r2,44(r7)
			m->c->y-=2;
			c->j_counter++;
			c->jump_pressed = false;
		}
		else if(c->j_counter < 40){
			m->c->y-=1;
 10018f8:	193fffc4 	addi	r4,r3,-1
 10018fc:	39000115 	stw	r4,4(r7)
			c->j_counter++;
			c->jump_pressed = false;
 1001900:	38000815 	stw	zero,32(r7)
 1001904:	003ebc06 	br	10013f8 <char_update_isr+0x1220>
		if(c->y+4 >= 239){
			c->collide=true;
			return;
		}
		for(i = 0; i < OBJECT_SIZE; i++) { //checks all boxes
			if( c->x >= o->x[i] && c->y  >= o->y[i] &&c->y < o->y[i]+2 && o->temp_length[i] != -1 &&
 1001908:	00800084 	movi	r2,2
				c->x - c->width  <= o->x[i] + o->temp_length[i] && (c->color == o->color[i] || o->color[i] == -1)) {
				c->grounded = true;
				c->y = o->y[i] - 2; //if he went into a box, move him up
 100190c:	1085883a 	add	r2,r2,r2
 1001910:	1085883a 	add	r2,r2,r2
 1001914:	1285883a 	add	r2,r2,r10
 1001918:	11000017 	ldw	r4,0(r2)
			return;
		}
		for(i = 0; i < OBJECT_SIZE; i++) { //checks all boxes
			if( c->x >= o->x[i] && c->y  >= o->y[i] &&c->y < o->y[i]+2 && o->temp_length[i] != -1 &&
				c->x - c->width  <= o->x[i] + o->temp_length[i] && (c->color == o->color[i] || o->color[i] == -1)) {
				c->grounded = true;
 100191c:	00c00044 	movi	r3,1
 1001920:	38c00715 	stw	r3,28(r7)
				c->y = o->y[i] - 2; //if he went into a box, move him up
 1001924:	213fff84 	addi	r4,r4,-2
 1001928:	39000115 	stw	r4,4(r7)
 100192c:	003e9b06 	br	100139c <char_update_isr+0x11c4>
		if(c->y+4 >= 239){
			c->collide=true;
			return;
		}
		for(i = 0; i < OBJECT_SIZE; i++) { //checks all boxes
			if( c->x >= o->x[i] && c->y  >= o->y[i] &&c->y < o->y[i]+2 && o->temp_length[i] != -1 &&
 1001930:	008000c4 	movi	r2,3
 1001934:	003ff506 	br	100190c <char_update_isr+0x1734>
 1001938:	00800244 	movi	r2,9
 100193c:	003ff306 	br	100190c <char_update_isr+0x1734>
 1001940:	008001c4 	movi	r2,7
 1001944:	003ff106 	br	100190c <char_update_isr+0x1734>
 1001948:	00800104 	movi	r2,4
 100194c:	003fef06 	br	100190c <char_update_isr+0x1734>
 1001950:	00800144 	movi	r2,5
 1001954:	003fed06 	br	100190c <char_update_isr+0x1734>
 1001958:	00800044 	movi	r2,1
 100195c:	003feb06 	br	100190c <char_update_isr+0x1734>
 1001960:	00800184 	movi	r2,6
 1001964:	003fe906 	br	100190c <char_update_isr+0x1734>
 1001968:	0005883a 	mov	r2,zero
 100196c:	003fe706 	br	100190c <char_update_isr+0x1734>
 1001970:	00800204 	movi	r2,8
 1001974:	003fe506 	br	100190c <char_update_isr+0x1734>

01001978 <init_char_update>:
	return c->collide;
}

void init_char_update(master* mstr) {

	mstr->c->x = 50;
 1001978:	20800717 	ldw	r2,28(r4)

bool check_collision(charac *c){
	return c->collide;
}

void init_char_update(master* mstr) {
 100197c:	200b883a 	mov	r5,r4

	mstr->c->x = 50;
 1001980:	00c00c84 	movi	r3,50
	mstr->c->y = 150;
 1001984:	01002584 	movi	r4,150
	return c->collide;
}

void init_char_update(master* mstr) {

	mstr->c->x = 50;
 1001988:	10c00015 	stw	r3,0(r2)
	mstr->c->y = 150;
 100198c:	11000115 	stw	r4,4(r2)
	mstr->c->width = 39;
 1001990:	00c009c4 	movi	r3,39
	mstr->c->height = 31;
 1001994:	010007c4 	movi	r4,31

void init_char_update(master* mstr) {

	mstr->c->x = 50;
	mstr->c->y = 150;
	mstr->c->width = 39;
 1001998:	10c00215 	stw	r3,8(r2)

bool check_collision(charac *c){
	return c->collide;
}

void init_char_update(master* mstr) {
 100199c:	defffe04 	addi	sp,sp,-8

	mstr->c->x = 50;
	mstr->c->y = 150;
	mstr->c->width = 39;
	mstr->c->height = 31;
 10019a0:	11000315 	stw	r4,12(r2)
	mstr->c->grounded = false;
	mstr->c->jump_pressed = false;
	mstr->c->points = 0;
	//mstr->c->jump_released = false;
	mstr->c->ducking = false;
	mstr->c->color = 0;
 10019a4:	10000f15 	stw	zero,60(r2)
	mstr->c->collide = false;
	mstr->c->win = false;
	mstr->c->jumping = false;
	mstr->c->grounded = false;
	mstr->c->jump_pressed = false;
	mstr->c->points = 0;
 10019a8:	10000e15 	stw	zero,56(r2)

	mstr->c->x = 50;
	mstr->c->y = 150;
	mstr->c->width = 39;
	mstr->c->height = 31;
	mstr->c->collide = false;
 10019ac:	10000615 	stw	zero,24(r2)
	mstr->c->win = false;
 10019b0:	10000a15 	stw	zero,40(r2)
	mstr->c->jumping = false;
 10019b4:	10000415 	stw	zero,16(r2)
	mstr->c->grounded = false;
 10019b8:	10000715 	stw	zero,28(r2)
	mstr->c->jump_pressed = false;
 10019bc:	10000815 	stw	zero,32(r2)
	mstr->c->points = 0;
	//mstr->c->jump_released = false;
	mstr->c->ducking = false;
 10019c0:	10000515 	stw	zero,20(r2)
	mstr->c->color = 0;

	d_counter = 0;

	IOWR_16DIRECT(TIMER_2_BASE, 8, 500000 & 0xFFFF); //writes the period to the hardware timer
 10019c4:	00e84814 	movui	r3,41248
 10019c8:	00911204 	movi	r2,17480

bool check_collision(charac *c){
	return c->collide;
}

void init_char_update(master* mstr) {
 10019cc:	dfc00115 	stw	ra,4(sp)
 10019d0:	dc000015 	stw	r16,0(sp)
	mstr->c->points = 0;
	//mstr->c->jump_released = false;
	mstr->c->ducking = false;
	mstr->c->color = 0;

	d_counter = 0;
 10019d4:	d027d815 	stw	zero,-24736(gp)

	IOWR_16DIRECT(TIMER_2_BASE, 8, 500000 & 0xFFFF); //writes the period to the hardware timer
 10019d8:	10c0002d 	sthio	r3,0(r2)
	IOWR_16DIRECT(TIMER_2_BASE, 12, 500000 >> 16);
 10019dc:	010001c4 	movi	r4,7
 10019e0:	00911304 	movi	r2,17484
 10019e4:	1100002d 	sthio	r4,0(r2)
	IOWR_16DIRECT(TIMER_2_BASE, 4, 1 << 3); //stop timer
 10019e8:	04111104 	movi	r16,17476
 10019ec:	00800204 	movi	r2,8
 10019f0:	8080002d 	sthio	r2,0(r16)

	alt_irq_register(TIMER_2_IRQ,mstr,(void*)char_update_isr);//registers function to a specific IRQ
 10019f4:	010000c4 	movi	r4,3
 10019f8:	01804034 	movhi	r6,256
 10019fc:	31807604 	addi	r6,r6,472
 1001a00:	10106740 	call	1010674 <alt_irq_register>

	IOWR_16DIRECT(TIMER_2_BASE, 4, 0x5);	//starts timer with interrupt
 1001a04:	00c00144 	movi	r3,5
 1001a08:	80c0002d 	sthio	r3,0(r16)
}
 1001a0c:	dfc00117 	ldw	ra,4(sp)
 1001a10:	dc000017 	ldw	r16,0(sp)
 1001a14:	dec00204 	addi	sp,sp,8
 1001a18:	f800283a 	ret

01001a1c <update_object>:

void update_object( object* box, int num ){

	int* draw = box->draw;

	if(box->x[num] == 340) return;
 1001a1c:	294b883a 	add	r5,r5,r5
 1001a20:	2947883a 	add	r3,r5,r5
 1001a24:	1911883a 	add	r8,r3,r4
 1001a28:	41800a17 	ldw	r6,40(r8)
 1001a2c:	01405504 	movi	r5,340
 1001a30:	31401926 	beq	r6,r5,1001a98 <update_object+0x7c>

	if(box->x[num] == 319 )
 1001a34:	01c04fc4 	movi	r7,319

void update_highlight();

void update_object( object* box, int num ){

	int* draw = box->draw;
 1001a38:	21003d04 	addi	r4,r4,244

	if(box->x[num] == 340) return;

	if(box->x[num] == 319 )
 1001a3c:	31c01f26 	beq	r6,r7,1001abc <update_object+0xa0>
			{
				draw[num] = 1;
				box->x[num] -= speed;
			}

		else if((319 - box->x[num]) <= box->length[num])
 1001a40:	40801417 	ldw	r2,80(r8)
 1001a44:	398fc83a 	sub	r7,r7,r6
 1001a48:	11c0140e 	bge	r2,r7,1001a9c <update_object+0x80>
			{
				box->temp_length[num] = 319 - box->x[num];
				draw[num] = 0;
				box->x[num] -= speed;
			}
		else if( box->x[num] <= 2)
 1001a4c:	00800084 	movi	r2,2
 1001a50:	11800b16 	blt	r2,r6,1001a80 <update_object+0x64>
		{

			if( box->temp_length[num] <= 0)
 1001a54:	41803217 	ldw	r6,200(r8)
 1001a58:	0180200e 	bge	zero,r6,1001adc <update_object+0xc0>
				draw[num] = 1;
			}
			else
			{
				box->temp_length[num] -= speed;
				draw[num] = 0;
 1001a5c:	1905883a 	add	r2,r3,r4
				box->temp_length[num] = -1;
				draw[num] = 1;
			}
			else
			{
				box->temp_length[num] -= speed;
 1001a60:	d0e00017 	ldw	r3,-32768(gp)
 1001a64:	30c7c83a 	sub	r3,r6,r3
 1001a68:	40c03215 	stw	r3,200(r8)
				draw[num] = 0;
 1001a6c:	10000015 	stw	zero,0(r2)
				box->dec[num] +=1;
 1001a70:	40c04717 	ldw	r3,284(r8)
 1001a74:	18c00044 	addi	r3,r3,1
 1001a78:	40c04715 	stw	r3,284(r8)
 1001a7c:	f800283a 	ret
		}

		else
		{
			//box.temp_length = box.length;
			box->x[num] -= speed;
 1001a80:	d0a00017 	ldw	r2,-32768(gp)
			draw[num] = 0;
 1001a84:	1907883a 	add	r3,r3,r4
		}

		else
		{
			//box.temp_length = box.length;
			box->x[num] -= speed;
 1001a88:	3085c83a 	sub	r2,r6,r2
 1001a8c:	40800a15 	stw	r2,40(r8)
			draw[num] = 0;
 1001a90:	18000015 	stw	zero,0(r3)
			box->dec[num] = 0;
 1001a94:	40004715 	stw	zero,284(r8)
 1001a98:	f800283a 	ret
			}

		else if((319 - box->x[num]) <= box->length[num])
			{
				box->temp_length[num] = 319 - box->x[num];
				draw[num] = 0;
 1001a9c:	1905883a 	add	r2,r3,r4
				box->x[num] -= speed;
			}

		else if((319 - box->x[num]) <= box->length[num])
			{
				box->temp_length[num] = 319 - box->x[num];
 1001aa0:	41c03215 	stw	r7,200(r8)
				draw[num] = 0;
 1001aa4:	10000015 	stw	zero,0(r2)
				box->x[num] -= speed;
 1001aa8:	40c00a17 	ldw	r3,40(r8)
 1001aac:	d0a00017 	ldw	r2,-32768(gp)
 1001ab0:	1887c83a 	sub	r3,r3,r2
 1001ab4:	40c00a15 	stw	r3,40(r8)
 1001ab8:	f800283a 	ret

	if(box->x[num] == 340) return;

	if(box->x[num] == 319 )
			{
				draw[num] = 1;
 1001abc:	1909883a 	add	r4,r3,r4
 1001ac0:	00c00044 	movi	r3,1
 1001ac4:	20c00015 	stw	r3,0(r4)
				box->x[num] -= speed;
 1001ac8:	40800a17 	ldw	r2,40(r8)
 1001acc:	d0e00017 	ldw	r3,-32768(gp)
 1001ad0:	10c5c83a 	sub	r2,r2,r3
 1001ad4:	40800a15 	stw	r2,40(r8)
 1001ad8:	f800283a 	ret
		{

			if( box->temp_length[num] <= 0)
			{
				box->x[num] = 340;
				box->temp_length[num] = -1;
 1001adc:	00bfffc4 	movi	r2,-1
 1001ae0:	40803215 	stw	r2,200(r8)
		else if( box->x[num] <= 2)
		{

			if( box->temp_length[num] <= 0)
			{
				box->x[num] = 340;
 1001ae4:	41400a15 	stw	r5,40(r8)
				box->temp_length[num] = -1;
				draw[num] = 1;
 1001ae8:	1907883a 	add	r3,r3,r4
 1001aec:	00800044 	movi	r2,1
 1001af0:	18800015 	stw	r2,0(r3)
 1001af4:	f800283a 	ret

01001af8 <decode>:
			}
	}
}

char decode(short int buffer){
	if (buffer == 0x1C){
 1001af8:	213fffcc 	andi	r4,r4,65535
 1001afc:	2120001c 	xori	r4,r4,32768
 1001b00:	21200004 	addi	r4,r4,-32768
 1001b04:	00800704 	movi	r2,28
 1001b08:	20803626 	beq	r4,r2,1001be4 <decode+0xec>
		return 'a';
	} else if (buffer == 0x32){
 1001b0c:	00800c84 	movi	r2,50
 1001b10:	20803626 	beq	r4,r2,1001bec <decode+0xf4>
		return 'b';
	} else if (buffer == 0x21){
 1001b14:	00800844 	movi	r2,33
 1001b18:	20803626 	beq	r4,r2,1001bf4 <decode+0xfc>
		return 'c';
	} else if (buffer == 0x23){
 1001b1c:	008008c4 	movi	r2,35
 1001b20:	20802e26 	beq	r4,r2,1001bdc <decode+0xe4>
		return 'd';
	} else if (buffer == 0x24){
 1001b24:	00800904 	movi	r2,36
 1001b28:	20803426 	beq	r4,r2,1001bfc <decode+0x104>
		return 'e';
	} else if (buffer == 0x2B){
 1001b2c:	00800ac4 	movi	r2,43
 1001b30:	20803426 	beq	r4,r2,1001c04 <decode+0x10c>
		return 'f';
	} else if (buffer == 0x34){
 1001b34:	00800d04 	movi	r2,52
 1001b38:	20803426 	beq	r4,r2,1001c0c <decode+0x114>
		return 'g';
	} else if (buffer == 0x33){
 1001b3c:	00800cc4 	movi	r2,51
 1001b40:	20803826 	beq	r4,r2,1001c24 <decode+0x12c>
		return 'h';
	} else if (buffer == 0x43){
 1001b44:	008010c4 	movi	r2,67
 1001b48:	20803226 	beq	r4,r2,1001c14 <decode+0x11c>
		return 'i';
	} else if (buffer == 0x3B){
 1001b4c:	00800ec4 	movi	r2,59
 1001b50:	20803626 	beq	r4,r2,1001c2c <decode+0x134>
		return 'j';
	} else if (buffer == 0x42){
 1001b54:	00801084 	movi	r2,66
 1001b58:	20803626 	beq	r4,r2,1001c34 <decode+0x13c>
		return 'k';
	} else if (buffer == 0x4B){
 1001b5c:	008012c4 	movi	r2,75
 1001b60:	20803626 	beq	r4,r2,1001c3c <decode+0x144>
		return 'l';
	} else if (buffer == 0x3A){
 1001b64:	00800e84 	movi	r2,58
 1001b68:	20803626 	beq	r4,r2,1001c44 <decode+0x14c>
		return 'm';
	} else if (buffer == 0x31){
 1001b6c:	00800c44 	movi	r2,49
 1001b70:	20803626 	beq	r4,r2,1001c4c <decode+0x154>
		return 'n';
	} else if (buffer == 0x44){
 1001b74:	00801104 	movi	r2,68
 1001b78:	20803626 	beq	r4,r2,1001c54 <decode+0x15c>
		return 'o';
	} else if (buffer == 0x4D){
 1001b7c:	00801344 	movi	r2,77
 1001b80:	20803626 	beq	r4,r2,1001c5c <decode+0x164>
		return 'p';
	} else if (buffer == 0x15){
 1001b84:	00800544 	movi	r2,21
 1001b88:	20802426 	beq	r4,r2,1001c1c <decode+0x124>
		return 'q';
	} else if (buffer == 0x2D){
 1001b8c:	00800b44 	movi	r2,45
 1001b90:	20803426 	beq	r4,r2,1001c64 <decode+0x16c>
		return 'r';
	} else if (buffer == 0x1B){
 1001b94:	008006c4 	movi	r2,27
 1001b98:	20803426 	beq	r4,r2,1001c6c <decode+0x174>
		return 's';
	} else if (buffer == 0x2C){
 1001b9c:	00800b04 	movi	r2,44
 1001ba0:	20803426 	beq	r4,r2,1001c74 <decode+0x17c>
		return 't';
	} else if (buffer == 0x3C){
 1001ba4:	00800f04 	movi	r2,60
 1001ba8:	20803626 	beq	r4,r2,1001c84 <decode+0x18c>
		return 'u';
	} else if (buffer == 0x2A){
 1001bac:	00800a84 	movi	r2,42
 1001bb0:	20803626 	beq	r4,r2,1001c8c <decode+0x194>
		return 'v';
	} else if (buffer == 0x1D){
 1001bb4:	00800744 	movi	r2,29
 1001bb8:	20803626 	beq	r4,r2,1001c94 <decode+0x19c>
		return 'w';
	} else if (buffer == 0x22){
 1001bbc:	00800884 	movi	r2,34
 1001bc0:	20803626 	beq	r4,r2,1001c9c <decode+0x1a4>
		return 'x';
	} else if (buffer == 0x35){
 1001bc4:	00800d44 	movi	r2,53
 1001bc8:	20803626 	beq	r4,r2,1001ca4 <decode+0x1ac>
		return 'y';
	} else if (buffer == 0x1A){
 1001bcc:	00800684 	movi	r2,26
 1001bd0:	20802a26 	beq	r4,r2,1001c7c <decode+0x184>
 1001bd4:	00800804 	movi	r2,32
		return 'z';
	}
	return ' ';
}
 1001bd8:	f800283a 	ret
		return 'a';
	} else if (buffer == 0x32){
		return 'b';
	} else if (buffer == 0x21){
		return 'c';
	} else if (buffer == 0x23){
 1001bdc:	00801904 	movi	r2,100
 1001be0:	f800283a 	ret
			}
	}
}

char decode(short int buffer){
	if (buffer == 0x1C){
 1001be4:	00801844 	movi	r2,97
 1001be8:	f800283a 	ret
		return 'a';
	} else if (buffer == 0x32){
 1001bec:	00801884 	movi	r2,98
 1001bf0:	f800283a 	ret
		return 'b';
	} else if (buffer == 0x21){
 1001bf4:	008018c4 	movi	r2,99
 1001bf8:	f800283a 	ret
		return 'c';
	} else if (buffer == 0x23){
		return 'd';
	} else if (buffer == 0x24){
 1001bfc:	00801944 	movi	r2,101
 1001c00:	f800283a 	ret
		return 'e';
	} else if (buffer == 0x2B){
 1001c04:	00801984 	movi	r2,102
 1001c08:	f800283a 	ret
		return 'f';
	} else if (buffer == 0x34){
 1001c0c:	008019c4 	movi	r2,103
 1001c10:	f800283a 	ret
		return 'g';
	} else if (buffer == 0x33){
		return 'h';
	} else if (buffer == 0x43){
 1001c14:	00801a44 	movi	r2,105
 1001c18:	f800283a 	ret
		return 'n';
	} else if (buffer == 0x44){
		return 'o';
	} else if (buffer == 0x4D){
		return 'p';
	} else if (buffer == 0x15){
 1001c1c:	00801c44 	movi	r2,113
 1001c20:	f800283a 	ret
		return 'e';
	} else if (buffer == 0x2B){
		return 'f';
	} else if (buffer == 0x34){
		return 'g';
	} else if (buffer == 0x33){
 1001c24:	00801a04 	movi	r2,104
 1001c28:	f800283a 	ret
		return 'h';
	} else if (buffer == 0x43){
		return 'i';
	} else if (buffer == 0x3B){
 1001c2c:	00801a84 	movi	r2,106
 1001c30:	f800283a 	ret
		return 'j';
	} else if (buffer == 0x42){
 1001c34:	00801ac4 	movi	r2,107
 1001c38:	f800283a 	ret
		return 'k';
	} else if (buffer == 0x4B){
 1001c3c:	00801b04 	movi	r2,108
 1001c40:	f800283a 	ret
		return 'l';
	} else if (buffer == 0x3A){
 1001c44:	00801b44 	movi	r2,109
 1001c48:	f800283a 	ret
		return 'm';
	} else if (buffer == 0x31){
 1001c4c:	00801b84 	movi	r2,110
 1001c50:	f800283a 	ret
		return 'n';
	} else if (buffer == 0x44){
 1001c54:	00801bc4 	movi	r2,111
 1001c58:	f800283a 	ret
		return 'o';
	} else if (buffer == 0x4D){
 1001c5c:	00801c04 	movi	r2,112
 1001c60:	f800283a 	ret
		return 'p';
	} else if (buffer == 0x15){
		return 'q';
	} else if (buffer == 0x2D){
 1001c64:	00801c84 	movi	r2,114
 1001c68:	f800283a 	ret
		return 'r';
	} else if (buffer == 0x1B){
 1001c6c:	00801cc4 	movi	r2,115
 1001c70:	f800283a 	ret
		return 's';
	} else if (buffer == 0x2C){
 1001c74:	00801d04 	movi	r2,116
 1001c78:	f800283a 	ret
		return 'w';
	} else if (buffer == 0x22){
		return 'x';
	} else if (buffer == 0x35){
		return 'y';
	} else if (buffer == 0x1A){
 1001c7c:	00801e84 	movi	r2,122
 1001c80:	f800283a 	ret
		return 'r';
	} else if (buffer == 0x1B){
		return 's';
	} else if (buffer == 0x2C){
		return 't';
	} else if (buffer == 0x3C){
 1001c84:	00801d44 	movi	r2,117
 1001c88:	f800283a 	ret
		return 'u';
	} else if (buffer == 0x2A){
 1001c8c:	00801d84 	movi	r2,118
 1001c90:	f800283a 	ret
		return 'v';
	} else if (buffer == 0x1D){
 1001c94:	00801dc4 	movi	r2,119
 1001c98:	f800283a 	ret
		return 'w';
	} else if (buffer == 0x22){
 1001c9c:	00801e04 	movi	r2,120
 1001ca0:	f800283a 	ret
		return 'x';
	} else if (buffer == 0x35){
 1001ca4:	00801e44 	movi	r2,121
 1001ca8:	f800283a 	ret

01001cac <draw_object>:
			draw[num] = 0;
			box->dec[num] = 0;
		}
}

void draw_object(alt_up_pixel_buffer_dma_dev *pixel_buffer, object object, bmp* b, int num) {
 1001cac:	defffc04 	addi	sp,sp,-16
 1001cb0:	d8805317 	ldw	r2,332(sp)
	unsigned int addr = pixel_buffer->back_buffer_start_address;
	unsigned int limit_x = pixel_buffer->x_resolution;
	short int** pic = b->pic;
	short int temp;

	if( object.draw[num] == 1) return;
 1001cb4:	d8c00104 	addi	r3,sp,4
			draw[num] = 0;
			box->dec[num] = 0;
		}
}

void draw_object(alt_up_pixel_buffer_dma_dev *pixel_buffer, object object, bmp* b, int num) {
 1001cb8:	d9400115 	stw	r5,4(sp)
	unsigned int addr = pixel_buffer->back_buffer_start_address;
	unsigned int limit_x = pixel_buffer->x_resolution;
	short int** pic = b->pic;
	short int temp;

	if( object.draw[num] == 1) return;
 1001cbc:	1085883a 	add	r2,r2,r2
 1001cc0:	1085883a 	add	r2,r2,r2
			draw[num] = 0;
			box->dec[num] = 0;
		}
}

void draw_object(alt_up_pixel_buffer_dma_dev *pixel_buffer, object object, bmp* b, int num) {
 1001cc4:	d9800215 	stw	r6,8(sp)
 1001cc8:	d9c00315 	stw	r7,12(sp)
	unsigned int addr = pixel_buffer->back_buffer_start_address;
	unsigned int limit_x = pixel_buffer->x_resolution;
	short int** pic = b->pic;
	short int temp;

	if( object.draw[num] == 1) return;
 1001ccc:	10cb883a 	add	r5,r2,r3
			draw[num] = 0;
			box->dec[num] = 0;
		}
}

void draw_object(alt_up_pixel_buffer_dma_dev *pixel_buffer, object object, bmp* b, int num) {
 1001cd0:	dc000015 	stw	r16,0(sp)
	unsigned int addr = pixel_buffer->back_buffer_start_address;
	unsigned int limit_x = pixel_buffer->x_resolution;
	short int** pic = b->pic;
	short int temp;

	if( object.draw[num] == 1) return;
 1001cd4:	28c03d17 	ldw	r3,244(r5)
			draw[num] = 0;
			box->dec[num] = 0;
		}
}

void draw_object(alt_up_pixel_buffer_dma_dev *pixel_buffer, object object, bmp* b, int num) {
 1001cd8:	dc005217 	ldw	r16,328(sp)
	unsigned int addr = pixel_buffer->back_buffer_start_address;
	unsigned int limit_x = pixel_buffer->x_resolution;
	short int** pic = b->pic;
	short int temp;

	if( object.draw[num] == 1) return;
 1001cdc:	00800044 	movi	r2,1
}

void draw_object(alt_up_pixel_buffer_dma_dev *pixel_buffer, object object, bmp* b, int num) {
	unsigned int i,j,k,l;
	unsigned int addr = pixel_buffer->back_buffer_start_address;
	unsigned int limit_x = pixel_buffer->x_resolution;
 1001ce0:	21800f17 	ldw	r6,60(r4)
		}
}

void draw_object(alt_up_pixel_buffer_dma_dev *pixel_buffer, object object, bmp* b, int num) {
	unsigned int i,j,k,l;
	unsigned int addr = pixel_buffer->back_buffer_start_address;
 1001ce4:	21c00c17 	ldw	r7,48(r4)
	unsigned int limit_x = pixel_buffer->x_resolution;
	short int** pic = b->pic;
 1001ce8:	82400217 	ldw	r9,8(r16)
	short int temp;

	if( object.draw[num] == 1) return;
 1001cec:	18802326 	beq	r3,r2,1001d7c <draw_object+0xd0>

	limit_x = limit_x << 1;
	addr += object.y[num] * (limit_x);
 1001cf0:	2a800017 	ldw	r10,0(r5)

	for(i = object.y[num], k = 0; i < object.y[num] + b->y; i++, k++) {
 1001cf4:	81000117 	ldw	r4,4(r16)
	short int temp;

	if( object.draw[num] == 1) return;

	limit_x = limit_x << 1;
	addr += object.y[num] * (limit_x);
 1001cf8:	501f883a 	mov	r15,r10

	for(i = object.y[num], k = 0; i < object.y[num] + b->y; i++, k++) {
 1001cfc:	5105883a 	add	r2,r10,r4
 1001d00:	50801e2e 	bgeu	r10,r2,1001d7c <draw_object+0xd0>
	short int** pic = b->pic;
	short int temp;

	if( object.draw[num] == 1) return;

	limit_x = limit_x << 1;
 1001d04:	319d883a 	add	r14,r6,r6
	addr += object.y[num] * (limit_x);
 1001d08:	7287383a 	mul	r3,r14,r10

	for(i = object.y[num], k = 0; i < object.y[num] + b->y; i++, k++) {
		for (j = object.x[num], l = object.dec[num]; j < object.temp_length[num]+ object.x[num]; j++, l++)
 1001d0c:	2ac00a17 	ldw	r11,40(r5)
 1001d10:	28803217 	ldw	r2,200(r5)
 1001d14:	2b404717 	ldw	r13,284(r5)
	short int temp;

	if( object.draw[num] == 1) return;

	limit_x = limit_x << 1;
	addr += object.y[num] * (limit_x);
 1001d18:	38d1883a 	add	r8,r7,r3

	for(i = object.y[num], k = 0; i < object.y[num] + b->y; i++, k++) {
		for (j = object.x[num], l = object.dec[num]; j < object.temp_length[num]+ object.x[num]; j++, l++)
 1001d1c:	5899883a 	add	r12,r11,r2
 1001d20:	480d883a 	mov	r6,r9
 1001d24:	5b000f2e 	bgeu	r11,r12,1001d64 <draw_object+0xb8>
 1001d28:	6b4b883a 	add	r5,r13,r13
 1001d2c:	5809883a 	mov	r4,r11
 1001d30:	0241e244 	movi	r9,1929
 1001d34:	600f883a 	mov	r7,r12
		{
			//alternative pixel drawing function
			//alt_up_pixel_buffer_dma_draw(pixel_buffer, pic[k][l], l, k);

			//draw pixel
			temp = pic[k][l];
 1001d38:	30800017 	ldw	r2,0(r6)
			if(pic[k][l] != 0x789) //if pure white, don't draw
				IOWR_16DIRECT(addr, j << 1, temp);
 1001d3c:	2107883a 	add	r3,r4,r4
 1001d40:	40c7883a 	add	r3,r8,r3
		{
			//alternative pixel drawing function
			//alt_up_pixel_buffer_dma_draw(pixel_buffer, pic[k][l], l, k);

			//draw pixel
			temp = pic[k][l];
 1001d44:	1145883a 	add	r2,r2,r5
			if(pic[k][l] != 0x789) //if pure white, don't draw
 1001d48:	1080000f 	ldh	r2,0(r2)
 1001d4c:	12400126 	beq	r2,r9,1001d54 <draw_object+0xa8>
				IOWR_16DIRECT(addr, j << 1, temp);
 1001d50:	1880002d 	sthio	r2,0(r3)

	limit_x = limit_x << 1;
	addr += object.y[num] * (limit_x);

	for(i = object.y[num], k = 0; i < object.y[num] + b->y; i++, k++) {
		for (j = object.x[num], l = object.dec[num]; j < object.temp_length[num]+ object.x[num]; j++, l++)
 1001d54:	21000044 	addi	r4,r4,1
 1001d58:	29400084 	addi	r5,r5,2
 1001d5c:	393ff61e 	bne	r7,r4,1001d38 <draw_object+0x8c>
 1001d60:	81000117 	ldw	r4,4(r16)
	if( object.draw[num] == 1) return;

	limit_x = limit_x << 1;
	addr += object.y[num] * (limit_x);

	for(i = object.y[num], k = 0; i < object.y[num] + b->y; i++, k++) {
 1001d64:	52800044 	addi	r10,r10,1
 1001d68:	7905883a 	add	r2,r15,r4
 1001d6c:	31800104 	addi	r6,r6,4
 1001d70:	5080022e 	bgeu	r10,r2,1001d7c <draw_object+0xd0>
			//draw pixel
			temp = pic[k][l];
			if(pic[k][l] != 0x789) //if pure white, don't draw
				IOWR_16DIRECT(addr, j << 1, temp);
		}
		addr += limit_x;
 1001d74:	4391883a 	add	r8,r8,r14
 1001d78:	003fea06 	br	1001d24 <draw_object+0x78>
		//if(V_VERBOSE) printf("finished line %i\n", k);
	}
	//if(V_VERBOSE) printf("ended bmp draw\n");


}
 1001d7c:	dc000017 	ldw	r16,0(sp)
 1001d80:	dec00404 	addi	sp,sp,16
 1001d84:	f800283a 	ret

01001d88 <update_highlight>:
	short int clr1, clr2, clr3;
	clr1 = clr2 = clr3 = 0x0000;

	//printf("Update Highlight\n\n");

	if (game_state == 1) {
 1001d88:	d0a7d917 	ldw	r2,-24732(gp)
	}

	return;
}

void update_highlight(){
 1001d8c:	defff804 	addi	sp,sp,-32
 1001d90:	dc400415 	stw	r17,16(sp)
	short int clr1, clr2, clr3;
	clr1 = clr2 = clr3 = 0x0000;

	//printf("Update Highlight\n\n");

	if (game_state == 1) {
 1001d94:	04400044 	movi	r17,1
	}

	return;
}

void update_highlight(){
 1001d98:	dfc00715 	stw	ra,28(sp)
 1001d9c:	dcc00615 	stw	r19,24(sp)
 1001da0:	dc800515 	stw	r18,20(sp)
 1001da4:	dc000315 	stw	r16,12(sp)
	short int clr1, clr2, clr3;
	clr1 = clr2 = clr3 = 0x0000;

	//printf("Update Highlight\n\n");

	if (game_state == 1) {
 1001da8:	14400f26 	beq	r2,r17,1001de8 <update_highlight+0x60>
					// Draw the three underlined selections in black, highlight middle
					alt_up_pixel_buffer_dma_draw_box(pixel_buffer, 6, 180, 154, 183, 0x0000, 1);
					alt_up_pixel_buffer_dma_draw_box(pixel_buffer, 83, 135, 230, 138, 0x0000, 1);
					alt_up_pixel_buffer_dma_draw_box(pixel_buffer, 166, 180, 313, 183, 0xA000, 1);
			}
	} else if (game_state == 3) {
 1001dac:	d0e7d917 	ldw	r3,-24732(gp)
 1001db0:	008000c4 	movi	r2,3
 1001db4:	18803126 	beq	r3,r2,1001e7c <update_highlight+0xf4>
					alt_up_pixel_buffer_dma_draw_box(pixel_buffer, 125, 197, 195, 200, clr2, 1);
					alt_up_pixel_buffer_dma_draw_box(pixel_buffer, 221, 197, 293, 200, clr3, 1);
			}
	}

	alt_up_pixel_buffer_dma_swap_buffers(pixel_buffer);
 1001db8:	d127e717 	ldw	r4,-24676(gp)
 1001dbc:	1012a100 	call	1012a10 <alt_up_pixel_buffer_dma_swap_buffers>
	while (alt_up_pixel_buffer_dma_check_swap_buffers_status(pixel_buffer));
 1001dc0:	d127e717 	ldw	r4,-24676(gp)
 1001dc4:	1012af40 	call	1012af4 <alt_up_pixel_buffer_dma_check_swap_buffers_status>
 1001dc8:	103ffd1e 	bne	r2,zero,1001dc0 <update_highlight+0x38>

	return;
}
 1001dcc:	dfc00717 	ldw	ra,28(sp)
 1001dd0:	dcc00617 	ldw	r19,24(sp)
 1001dd4:	dc800517 	ldw	r18,20(sp)
 1001dd8:	dc400417 	ldw	r17,16(sp)
 1001ddc:	dc000317 	ldw	r16,12(sp)
 1001de0:	dec00804 	addi	sp,sp,32
 1001de4:	f800283a 	ret
	clr1 = clr2 = clr3 = 0x0000;

	//printf("Update Highlight\n\n");

	if (game_state == 1) {
			if (highlighted_item == 2) {
 1001de8:	d0e00417 	ldw	r3,-32752(gp)
 1001dec:	00800084 	movi	r2,2
 1001df0:	18807426 	beq	r3,r2,1001fc4 <update_highlight+0x23c>
					//printf("1\n\n");
					// Draw the three underlined selections in black, highlight middle
					alt_up_pixel_buffer_dma_draw_box(pixel_buffer, 6, 180, 154, 183, 0xA000, 1);
					alt_up_pixel_buffer_dma_draw_box(pixel_buffer, 83, 135, 230, 138, 0x0000, 1);
					alt_up_pixel_buffer_dma_draw_box(pixel_buffer, 166, 180, 313, 183, 0x0000, 1);
			} else if (highlighted_item == 3) {
 1001df4:	d0e00417 	ldw	r3,-32752(gp)
 1001df8:	008000c4 	movi	r2,3
 1001dfc:	18808d26 	beq	r3,r2,1002034 <update_highlight+0x2ac>
					// Draw the three underlined selections in black, highlight middle
					alt_up_pixel_buffer_dma_draw_box(pixel_buffer, 6, 180, 154, 183, 0x0000, 1);
					alt_up_pixel_buffer_dma_draw_box(pixel_buffer, 83, 135, 230, 138, 0xA000, 1);
					alt_up_pixel_buffer_dma_draw_box(pixel_buffer, 166, 180, 313, 183, 0x0000, 1);

			} else if (highlighted_item == 4) {
 1001e00:	d0e00417 	ldw	r3,-32752(gp)
 1001e04:	00800104 	movi	r2,4
 1001e08:	18bfeb1e 	bne	r3,r2,1001db8 <update_highlight+0x30>
					//printf("3\n\n");
					// Draw the three underlined selections in black, highlight middle
					alt_up_pixel_buffer_dma_draw_box(pixel_buffer, 6, 180, 154, 183, 0x0000, 1);
 1001e0c:	d127e717 	ldw	r4,-24676(gp)
 1001e10:	04002dc4 	movi	r16,183
 1001e14:	01400184 	movi	r5,6
 1001e18:	01802d04 	movi	r6,180
 1001e1c:	01c02684 	movi	r7,154
 1001e20:	dc000015 	stw	r16,0(sp)
 1001e24:	d8000115 	stw	zero,4(sp)
 1001e28:	dc400215 	stw	r17,8(sp)
 1001e2c:	101275c0 	call	101275c <alt_up_pixel_buffer_dma_draw_box>
					alt_up_pixel_buffer_dma_draw_box(pixel_buffer, 83, 135, 230, 138, 0x0000, 1);
 1001e30:	d127e717 	ldw	r4,-24676(gp)
 1001e34:	00802284 	movi	r2,138
 1001e38:	014014c4 	movi	r5,83
 1001e3c:	018021c4 	movi	r6,135
 1001e40:	01c03984 	movi	r7,230
 1001e44:	d8800015 	stw	r2,0(sp)
 1001e48:	d8000115 	stw	zero,4(sp)
 1001e4c:	dc400215 	stw	r17,8(sp)
 1001e50:	101275c0 	call	101275c <alt_up_pixel_buffer_dma_draw_box>
					alt_up_pixel_buffer_dma_draw_box(pixel_buffer, 166, 180, 313, 183, 0xA000, 1);
 1001e54:	d127e717 	ldw	r4,-24676(gp)
 1001e58:	00a80014 	movui	r2,40960
 1001e5c:	01402984 	movi	r5,166
 1001e60:	01802d04 	movi	r6,180
 1001e64:	01c04e44 	movi	r7,313
 1001e68:	dc000015 	stw	r16,0(sp)
 1001e6c:	d8800115 	stw	r2,4(sp)
 1001e70:	dc400215 	stw	r17,8(sp)
 1001e74:	101275c0 	call	101275c <alt_up_pixel_buffer_dma_draw_box>
 1001e78:	003fcf06 	br	1001db8 <update_highlight+0x30>
			}
	} else if (game_state == 3) {

			if (priviledge == 1){
 1001e7c:	d0a00317 	ldw	r2,-32756(gp)
 1001e80:	14404226 	beq	r2,r17,1001f8c <update_highlight+0x204>
					alt_up_pixel_buffer_dma_draw_box(pixel_buffer, 28, 197, 99, 200, 0xA000, 1);

			} else if (priviledge == 2) {
 1001e84:	d0a00317 	ldw	r2,-32756(gp)
 1001e88:	01000084 	movi	r4,2
 1001e8c:	11002626 	beq	r2,r4,1001f28 <update_highlight+0x1a0>

					alt_up_pixel_buffer_dma_draw_box(pixel_buffer, 28, 197, 99, 200, clr1, 1);
					alt_up_pixel_buffer_dma_draw_box(pixel_buffer, 125, 197, 195, 200, clr2, 1);


			} else if (priviledge == 3){
 1001e90:	d1600317 	ldw	r5,-32756(gp)
 1001e94:	28ffc81e 	bne	r5,r3,1001db8 <update_highlight+0x30>

					if (highlighted_level == 1) {
 1001e98:	d0a00517 	ldw	r2,-32748(gp)
 1001e9c:	14407a26 	beq	r2,r17,1002088 <update_highlight+0x300>
							clr1 = 0xA000;
							clr2 = 0x0000;
							clr3 = 0x0000;
					} else if (highlighted_level == 2) {
 1001ea0:	d0a00517 	ldw	r2,-32748(gp)
 1001ea4:	11007c26 	beq	r2,r4,1002098 <update_highlight+0x310>
							clr1 = 0x0000;
							clr2 = 0xA000;
							clr3 = 0x0000;
					} else if (highlighted_level == 3) {
 1001ea8:	d0a00517 	ldw	r2,-32748(gp)
 1001eac:	11407e26 	beq	r2,r5,10020a8 <update_highlight+0x320>
 1001eb0:	0005883a 	mov	r2,zero
 1001eb4:	0025883a 	mov	r18,zero
 1001eb8:	0027883a 	mov	r19,zero
							clr1 = 0x0000;
							clr2 = 0x0000;
							clr3 = 0xA000;
					}

					alt_up_pixel_buffer_dma_draw_box(pixel_buffer, 28, 197, 99, 200, clr1, 1);
 1001ebc:	d127e717 	ldw	r4,-24676(gp)
 1001ec0:	04003204 	movi	r16,200
 1001ec4:	04400044 	movi	r17,1
 1001ec8:	01400704 	movi	r5,28
 1001ecc:	01803144 	movi	r6,197
 1001ed0:	01c018c4 	movi	r7,99
 1001ed4:	d8800115 	stw	r2,4(sp)
 1001ed8:	dc000015 	stw	r16,0(sp)
 1001edc:	dc400215 	stw	r17,8(sp)
 1001ee0:	101275c0 	call	101275c <alt_up_pixel_buffer_dma_draw_box>
					alt_up_pixel_buffer_dma_draw_box(pixel_buffer, 125, 197, 195, 200, clr2, 1);
 1001ee4:	d127e717 	ldw	r4,-24676(gp)
 1001ee8:	01401f44 	movi	r5,125
 1001eec:	01803144 	movi	r6,197
 1001ef0:	01c030c4 	movi	r7,195
 1001ef4:	dc800115 	stw	r18,4(sp)
 1001ef8:	dc000015 	stw	r16,0(sp)
 1001efc:	dc400215 	stw	r17,8(sp)
 1001f00:	101275c0 	call	101275c <alt_up_pixel_buffer_dma_draw_box>
					alt_up_pixel_buffer_dma_draw_box(pixel_buffer, 221, 197, 293, 200, clr3, 1);
 1001f04:	d127e717 	ldw	r4,-24676(gp)
 1001f08:	01403744 	movi	r5,221
 1001f0c:	01803144 	movi	r6,197
 1001f10:	01c04944 	movi	r7,293
 1001f14:	dc000015 	stw	r16,0(sp)
 1001f18:	dcc00115 	stw	r19,4(sp)
 1001f1c:	dc400215 	stw	r17,8(sp)
 1001f20:	101275c0 	call	101275c <alt_up_pixel_buffer_dma_draw_box>
 1001f24:	003fa406 	br	1001db8 <update_highlight+0x30>
			if (priviledge == 1){
					alt_up_pixel_buffer_dma_draw_box(pixel_buffer, 28, 197, 99, 200, 0xA000, 1);

			} else if (priviledge == 2) {

					if (highlighted_level == 1) {
 1001f28:	d0a00517 	ldw	r2,-32748(gp)
 1001f2c:	14402226 	beq	r2,r17,1001fb8 <update_highlight+0x230>
							clr1 = 0xA000;
							clr2 = 0x0000;
					} else if (highlighted_level == 2) {
 1001f30:	d0a00517 	ldw	r2,-32748(gp)
 1001f34:	11005126 	beq	r2,r4,100207c <update_highlight+0x2f4>
 1001f38:	0005883a 	mov	r2,zero
 1001f3c:	0025883a 	mov	r18,zero
							clr1 = 0x0000;
							clr2 = 0xA000;
					}

					alt_up_pixel_buffer_dma_draw_box(pixel_buffer, 28, 197, 99, 200, clr1, 1);
 1001f40:	d127e717 	ldw	r4,-24676(gp)
 1001f44:	04003204 	movi	r16,200
 1001f48:	04400044 	movi	r17,1
 1001f4c:	01400704 	movi	r5,28
 1001f50:	01803144 	movi	r6,197
 1001f54:	01c018c4 	movi	r7,99
 1001f58:	d8800115 	stw	r2,4(sp)
 1001f5c:	dc000015 	stw	r16,0(sp)
 1001f60:	dc400215 	stw	r17,8(sp)
 1001f64:	101275c0 	call	101275c <alt_up_pixel_buffer_dma_draw_box>
					alt_up_pixel_buffer_dma_draw_box(pixel_buffer, 125, 197, 195, 200, clr2, 1);
 1001f68:	d127e717 	ldw	r4,-24676(gp)
 1001f6c:	01401f44 	movi	r5,125
 1001f70:	01803144 	movi	r6,197
 1001f74:	01c030c4 	movi	r7,195
 1001f78:	dc000015 	stw	r16,0(sp)
 1001f7c:	dc800115 	stw	r18,4(sp)
 1001f80:	dc400215 	stw	r17,8(sp)
 1001f84:	101275c0 	call	101275c <alt_up_pixel_buffer_dma_draw_box>
 1001f88:	003f8b06 	br	1001db8 <update_highlight+0x30>
					alt_up_pixel_buffer_dma_draw_box(pixel_buffer, 166, 180, 313, 183, 0xA000, 1);
			}
	} else if (game_state == 3) {

			if (priviledge == 1){
					alt_up_pixel_buffer_dma_draw_box(pixel_buffer, 28, 197, 99, 200, 0xA000, 1);
 1001f8c:	d127e717 	ldw	r4,-24676(gp)
 1001f90:	00803204 	movi	r2,200
 1001f94:	00e80014 	movui	r3,40960
 1001f98:	01400704 	movi	r5,28
 1001f9c:	01803144 	movi	r6,197
 1001fa0:	01c018c4 	movi	r7,99
 1001fa4:	d8800015 	stw	r2,0(sp)
 1001fa8:	d8c00115 	stw	r3,4(sp)
 1001fac:	dc400215 	stw	r17,8(sp)
 1001fb0:	101275c0 	call	101275c <alt_up_pixel_buffer_dma_draw_box>
 1001fb4:	003f8006 	br	1001db8 <update_highlight+0x30>

			} else if (priviledge == 2) {

					if (highlighted_level == 1) {
 1001fb8:	00a80004 	movi	r2,-24576
 1001fbc:	0025883a 	mov	r18,zero
 1001fc0:	003fdf06 	br	1001f40 <update_highlight+0x1b8>

	if (game_state == 1) {
			if (highlighted_item == 2) {
					//printf("1\n\n");
					// Draw the three underlined selections in black, highlight middle
					alt_up_pixel_buffer_dma_draw_box(pixel_buffer, 6, 180, 154, 183, 0xA000, 1);
 1001fc4:	d127e717 	ldw	r4,-24676(gp)
 1001fc8:	00a80014 	movui	r2,40960
 1001fcc:	01400184 	movi	r5,6
 1001fd0:	01802d04 	movi	r6,180
 1001fd4:	01c02684 	movi	r7,154
 1001fd8:	04002dc4 	movi	r16,183
 1001fdc:	d8800115 	stw	r2,4(sp)
 1001fe0:	dc000015 	stw	r16,0(sp)
 1001fe4:	dc400215 	stw	r17,8(sp)
 1001fe8:	101275c0 	call	101275c <alt_up_pixel_buffer_dma_draw_box>
					alt_up_pixel_buffer_dma_draw_box(pixel_buffer, 83, 135, 230, 138, 0x0000, 1);
 1001fec:	d127e717 	ldw	r4,-24676(gp)
 1001ff0:	00802284 	movi	r2,138
 1001ff4:	014014c4 	movi	r5,83
 1001ff8:	018021c4 	movi	r6,135
 1001ffc:	01c03984 	movi	r7,230
 1002000:	d8800015 	stw	r2,0(sp)
 1002004:	d8000115 	stw	zero,4(sp)
					alt_up_pixel_buffer_dma_draw_box(pixel_buffer, 166, 180, 313, 183, 0x0000, 1);
			} else if (highlighted_item == 3) {
					//printf("2\n\n");
					// Draw the three underlined selections in black, highlight middle
					alt_up_pixel_buffer_dma_draw_box(pixel_buffer, 6, 180, 154, 183, 0x0000, 1);
					alt_up_pixel_buffer_dma_draw_box(pixel_buffer, 83, 135, 230, 138, 0xA000, 1);
 1002008:	dc400215 	stw	r17,8(sp)
 100200c:	101275c0 	call	101275c <alt_up_pixel_buffer_dma_draw_box>
					alt_up_pixel_buffer_dma_draw_box(pixel_buffer, 166, 180, 313, 183, 0x0000, 1);
 1002010:	d127e717 	ldw	r4,-24676(gp)
 1002014:	01402984 	movi	r5,166
 1002018:	01802d04 	movi	r6,180
 100201c:	01c04e44 	movi	r7,313
 1002020:	dc000015 	stw	r16,0(sp)
 1002024:	dc400215 	stw	r17,8(sp)
 1002028:	d8000115 	stw	zero,4(sp)
 100202c:	101275c0 	call	101275c <alt_up_pixel_buffer_dma_draw_box>
 1002030:	003f6106 	br	1001db8 <update_highlight+0x30>
					alt_up_pixel_buffer_dma_draw_box(pixel_buffer, 83, 135, 230, 138, 0x0000, 1);
					alt_up_pixel_buffer_dma_draw_box(pixel_buffer, 166, 180, 313, 183, 0x0000, 1);
			} else if (highlighted_item == 3) {
					//printf("2\n\n");
					// Draw the three underlined selections in black, highlight middle
					alt_up_pixel_buffer_dma_draw_box(pixel_buffer, 6, 180, 154, 183, 0x0000, 1);
 1002034:	d127e717 	ldw	r4,-24676(gp)
 1002038:	01400184 	movi	r5,6
 100203c:	01802d04 	movi	r6,180
 1002040:	01c02684 	movi	r7,154
 1002044:	04002dc4 	movi	r16,183
 1002048:	dc000015 	stw	r16,0(sp)
 100204c:	d8000115 	stw	zero,4(sp)
 1002050:	dc400215 	stw	r17,8(sp)
 1002054:	101275c0 	call	101275c <alt_up_pixel_buffer_dma_draw_box>
					alt_up_pixel_buffer_dma_draw_box(pixel_buffer, 83, 135, 230, 138, 0xA000, 1);
 1002058:	d127e717 	ldw	r4,-24676(gp)
 100205c:	00802284 	movi	r2,138
 1002060:	00e80014 	movui	r3,40960
 1002064:	014014c4 	movi	r5,83
 1002068:	018021c4 	movi	r6,135
 100206c:	01c03984 	movi	r7,230
 1002070:	d8800015 	stw	r2,0(sp)
 1002074:	d8c00115 	stw	r3,4(sp)
 1002078:	003fe306 	br	1002008 <update_highlight+0x280>
			} else if (priviledge == 2) {

					if (highlighted_level == 1) {
							clr1 = 0xA000;
							clr2 = 0x0000;
					} else if (highlighted_level == 2) {
 100207c:	0005883a 	mov	r2,zero
 1002080:	04a80004 	movi	r18,-24576
 1002084:	003fae06 	br	1001f40 <update_highlight+0x1b8>
					alt_up_pixel_buffer_dma_draw_box(pixel_buffer, 125, 197, 195, 200, clr2, 1);


			} else if (priviledge == 3){

					if (highlighted_level == 1) {
 1002088:	00a80004 	movi	r2,-24576
 100208c:	0025883a 	mov	r18,zero
 1002090:	0027883a 	mov	r19,zero
 1002094:	003f8906 	br	1001ebc <update_highlight+0x134>
							clr1 = 0xA000;
							clr2 = 0x0000;
							clr3 = 0x0000;
					} else if (highlighted_level == 2) {
 1002098:	0005883a 	mov	r2,zero
 100209c:	04a80004 	movi	r18,-24576
 10020a0:	0027883a 	mov	r19,zero
 10020a4:	003f8506 	br	1001ebc <update_highlight+0x134>
							clr1 = 0x0000;
							clr2 = 0xA000;
							clr3 = 0x0000;
					} else if (highlighted_level == 3) {
 10020a8:	0005883a 	mov	r2,zero
 10020ac:	0025883a 	mov	r18,zero
 10020b0:	04e80004 	movi	r19,-24576
 10020b4:	003f8106 	br	1001ebc <update_highlight+0x134>

010020b8 <draw_menu>:
	y1 = y + 40 + 7 > 239 ? 239 : y + 40 + 7;

	clear_loc(pixel_buffer, x,y-30, x+60, y1 ,b);
}

void draw_menu(int state){
 10020b8:	deffff04 	addi	sp,sp,-4
 10020bc:	dfc00015 	stw	ra,0(sp)
	if (state == 0) {
 10020c0:	20001326 	beq	r4,zero,1002110 <draw_menu+0x58>
			alt_up_pixel_buffer_dma_swap_buffers(pixel_buffer);
			while (alt_up_pixel_buffer_dma_check_swap_buffers_status(pixel_buffer));

			free_bmp(title);

	}else if (state == 1){
 10020c4:	00c00044 	movi	r3,1
 10020c8:	20c03226 	beq	r4,r3,1002194 <draw_menu+0xdc>
			alt_up_pixel_buffer_dma_swap_buffers(pixel_buffer);
			while (alt_up_pixel_buffer_dma_check_swap_buffers_status(pixel_buffer));

			update_highlight();

	} else if (state == 2){
 10020cc:	01400084 	movi	r5,2
 10020d0:	21404726 	beq	r4,r5,10021f0 <draw_menu+0x138>
			while (alt_up_pixel_buffer_dma_check_swap_buffers_status(pixel_buffer));
			draw_bmp(pixel_buffer,0,0,instr);
			alt_up_pixel_buffer_dma_swap_buffers(pixel_buffer);
			while (alt_up_pixel_buffer_dma_check_swap_buffers_status(pixel_buffer));

	} else if (state == 3){
 10020d4:	008000c4 	movi	r2,3
 10020d8:	20802526 	beq	r4,r2,1002170 <draw_menu+0xb8>
					while (alt_up_pixel_buffer_dma_check_swap_buffers_status(pixel_buffer));
			}

			update_highlight();

	} else if (state == 4){
 10020dc:	00800104 	movi	r2,4
 10020e0:	20805826 	beq	r4,r2,1002244 <draw_menu+0x18c>
			while (alt_up_pixel_buffer_dma_check_swap_buffers_status(pixel_buffer));
			draw_bmp(pixel_buffer,0,0,dcol);
			alt_up_pixel_buffer_dma_swap_buffers(pixel_buffer);
			while (alt_up_pixel_buffer_dma_check_swap_buffers_status(pixel_buffer));

	} else if (state == 5){
 10020e4:	00800144 	movi	r2,5
 10020e8:	20800626 	beq	r4,r2,1002104 <draw_menu+0x4c>
			//game_state == 5 is PLAY GAME

	} else if (state == 6){
 10020ec:	00800184 	movi	r2,6
 10020f0:	20809a26 	beq	r4,r2,100235c <draw_menu+0x2a4>
			while (alt_up_pixel_buffer_dma_check_swap_buffers_status(pixel_buffer));

			if (priviledge == 2) priviledge = 3;
			else priviledge = 2;

	} else if (state == 7){
 10020f4:	008001c4 	movi	r2,7
 10020f8:	20807f26 	beq	r4,r2,10022f8 <draw_menu+0x240>
			while (alt_up_pixel_buffer_dma_check_swap_buffers_status(pixel_buffer));

			if (priviledge == 2) priviledge = 3;
			else priviledge = 2;

	} else if (state == 9){
 10020fc:	00800244 	movi	r2,9
 1002100:	20806526 	beq	r4,r2,1002298 <draw_menu+0x1e0>

		free_bmp(name);
	}

	return;
}
 1002104:	dfc00017 	ldw	ra,0(sp)
 1002108:	dec00104 	addi	sp,sp,4
 100210c:	f800283a 	ret
}

void draw_menu(int state){
	if (state == 0) {
			//game_state == 0 is TITLE SCREEN
			draw_bmp(pixel_buffer,0,0,title);
 1002110:	d127e717 	ldw	r4,-24676(gp)
 1002114:	d1e7df17 	ldw	r7,-24708(gp)
 1002118:	000b883a 	mov	r5,zero
 100211c:	000d883a 	mov	r6,zero
 1002120:	10056280 	call	1005628 <draw_bmp>
			alt_up_pixel_buffer_dma_swap_buffers(pixel_buffer);
 1002124:	d127e717 	ldw	r4,-24676(gp)
 1002128:	1012a100 	call	1012a10 <alt_up_pixel_buffer_dma_swap_buffers>
			while (alt_up_pixel_buffer_dma_check_swap_buffers_status(pixel_buffer));
 100212c:	d127e717 	ldw	r4,-24676(gp)
 1002130:	1012af40 	call	1012af4 <alt_up_pixel_buffer_dma_check_swap_buffers_status>
 1002134:	103ffd1e 	bne	r2,zero,100212c <draw_menu+0x74>
			draw_bmp(pixel_buffer,0,0,title);
 1002138:	d127e717 	ldw	r4,-24676(gp)
 100213c:	d1e7df17 	ldw	r7,-24708(gp)
 1002140:	000b883a 	mov	r5,zero
 1002144:	000d883a 	mov	r6,zero
 1002148:	10056280 	call	1005628 <draw_bmp>
			alt_up_pixel_buffer_dma_swap_buffers(pixel_buffer);
 100214c:	d127e717 	ldw	r4,-24676(gp)
 1002150:	1012a100 	call	1012a10 <alt_up_pixel_buffer_dma_swap_buffers>
			while (alt_up_pixel_buffer_dma_check_swap_buffers_status(pixel_buffer));
 1002154:	d127e717 	ldw	r4,-24676(gp)
 1002158:	1012af40 	call	1012af4 <alt_up_pixel_buffer_dma_check_swap_buffers_status>
 100215c:	103ffd1e 	bne	r2,zero,1002154 <draw_menu+0x9c>

			free_bmp(title);
 1002160:	d127df17 	ldw	r4,-24708(gp)

		free_bmp(name);
	}

	return;
}
 1002164:	dfc00017 	ldw	ra,0(sp)
 1002168:	dec00104 	addi	sp,sp,4
			while (alt_up_pixel_buffer_dma_check_swap_buffers_status(pixel_buffer));
			draw_bmp(pixel_buffer,0,0,title);
			alt_up_pixel_buffer_dma_swap_buffers(pixel_buffer);
			while (alt_up_pixel_buffer_dma_check_swap_buffers_status(pixel_buffer));

			free_bmp(title);
 100216c:	10056bc1 	jmpi	10056bc <free_bmp>
			alt_up_pixel_buffer_dma_swap_buffers(pixel_buffer);
			while (alt_up_pixel_buffer_dma_check_swap_buffers_status(pixel_buffer));

	} else if (state == 3){
			//game_state == 3 is LEVEL SCREEN
			if (priviledge == 1){
 1002170:	d0a00317 	ldw	r2,-32756(gp)
 1002174:	10c08e26 	beq	r2,r3,10023b0 <draw_menu+0x2f8>
					while (alt_up_pixel_buffer_dma_check_swap_buffers_status(pixel_buffer));
					draw_bmp(pixel_buffer,0,0,selA);
					alt_up_pixel_buffer_dma_swap_buffers(pixel_buffer);
					while (alt_up_pixel_buffer_dma_check_swap_buffers_status(pixel_buffer));

			} else if (priviledge == 2) {
 1002178:	d0a00317 	ldw	r2,-32756(gp)
 100217c:	1140a426 	beq	r2,r5,1002410 <draw_menu+0x358>
					while (alt_up_pixel_buffer_dma_check_swap_buffers_status(pixel_buffer));
					draw_bmp(pixel_buffer,0,0,selB);
					alt_up_pixel_buffer_dma_swap_buffers(pixel_buffer);
					while (alt_up_pixel_buffer_dma_check_swap_buffers_status(pixel_buffer));

			} else if (priviledge == 3) {
 1002180:	d0a00317 	ldw	r2,-32756(gp)
 1002184:	1100b726 	beq	r2,r4,1002464 <draw_menu+0x3ac>

		free_bmp(name);
	}

	return;
}
 1002188:	dfc00017 	ldw	ra,0(sp)
 100218c:	dec00104 	addi	sp,sp,4
					draw_bmp(pixel_buffer,0,0,selC);
					alt_up_pixel_buffer_dma_swap_buffers(pixel_buffer);
					while (alt_up_pixel_buffer_dma_check_swap_buffers_status(pixel_buffer));
			}

			update_highlight();
 1002190:	1001d881 	jmpi	1001d88 <update_highlight>

			free_bmp(title);

	}else if (state == 1){
			//game_state == 1 is MAIN MENU
			draw_bmp(pixel_buffer,0,0,menu);
 1002194:	d127e717 	ldw	r4,-24676(gp)
 1002198:	d1e7dc17 	ldw	r7,-24720(gp)
 100219c:	000b883a 	mov	r5,zero
 10021a0:	000d883a 	mov	r6,zero
 10021a4:	10056280 	call	1005628 <draw_bmp>
			alt_up_pixel_buffer_dma_swap_buffers(pixel_buffer);
 10021a8:	d127e717 	ldw	r4,-24676(gp)
 10021ac:	1012a100 	call	1012a10 <alt_up_pixel_buffer_dma_swap_buffers>
			while (alt_up_pixel_buffer_dma_check_swap_buffers_status(pixel_buffer));
 10021b0:	d127e717 	ldw	r4,-24676(gp)
 10021b4:	1012af40 	call	1012af4 <alt_up_pixel_buffer_dma_check_swap_buffers_status>
 10021b8:	103ffd1e 	bne	r2,zero,10021b0 <draw_menu+0xf8>
			draw_bmp(pixel_buffer,0,0,menu);
 10021bc:	d127e717 	ldw	r4,-24676(gp)
 10021c0:	d1e7dc17 	ldw	r7,-24720(gp)
 10021c4:	000b883a 	mov	r5,zero
 10021c8:	000d883a 	mov	r6,zero
 10021cc:	10056280 	call	1005628 <draw_bmp>
			alt_up_pixel_buffer_dma_swap_buffers(pixel_buffer);
 10021d0:	d127e717 	ldw	r4,-24676(gp)
 10021d4:	1012a100 	call	1012a10 <alt_up_pixel_buffer_dma_swap_buffers>
			while (alt_up_pixel_buffer_dma_check_swap_buffers_status(pixel_buffer));
 10021d8:	d127e717 	ldw	r4,-24676(gp)
 10021dc:	1012af40 	call	1012af4 <alt_up_pixel_buffer_dma_check_swap_buffers_status>
 10021e0:	103ffd1e 	bne	r2,zero,10021d8 <draw_menu+0x120>

		free_bmp(name);
	}

	return;
}
 10021e4:	dfc00017 	ldw	ra,0(sp)
 10021e8:	dec00104 	addi	sp,sp,4
					draw_bmp(pixel_buffer,0,0,selC);
					alt_up_pixel_buffer_dma_swap_buffers(pixel_buffer);
					while (alt_up_pixel_buffer_dma_check_swap_buffers_status(pixel_buffer));
			}

			update_highlight();
 10021ec:	1001d881 	jmpi	1001d88 <update_highlight>

			update_highlight();

	} else if (state == 2){
			//game_state == 2 is INSTRUCTIONS
			draw_bmp(pixel_buffer,0,0,instr);
 10021f0:	d127e717 	ldw	r4,-24676(gp)
 10021f4:	d1e7ec17 	ldw	r7,-24656(gp)
 10021f8:	000b883a 	mov	r5,zero
 10021fc:	000d883a 	mov	r6,zero
 1002200:	10056280 	call	1005628 <draw_bmp>
			alt_up_pixel_buffer_dma_swap_buffers(pixel_buffer);
 1002204:	d127e717 	ldw	r4,-24676(gp)
 1002208:	1012a100 	call	1012a10 <alt_up_pixel_buffer_dma_swap_buffers>
			while (alt_up_pixel_buffer_dma_check_swap_buffers_status(pixel_buffer));
 100220c:	d127e717 	ldw	r4,-24676(gp)
 1002210:	1012af40 	call	1012af4 <alt_up_pixel_buffer_dma_check_swap_buffers_status>
 1002214:	103ffd1e 	bne	r2,zero,100220c <draw_menu+0x154>
			draw_bmp(pixel_buffer,0,0,instr);
 1002218:	d127e717 	ldw	r4,-24676(gp)
 100221c:	d1e7ec17 	ldw	r7,-24656(gp)
 1002220:	000b883a 	mov	r5,zero
 1002224:	000d883a 	mov	r6,zero
 1002228:	10056280 	call	1005628 <draw_bmp>
			alt_up_pixel_buffer_dma_swap_buffers(pixel_buffer);
 100222c:	d127e717 	ldw	r4,-24676(gp)
 1002230:	1012a100 	call	1012a10 <alt_up_pixel_buffer_dma_swap_buffers>
			while (alt_up_pixel_buffer_dma_check_swap_buffers_status(pixel_buffer));
 1002234:	d127e717 	ldw	r4,-24676(gp)
 1002238:	1012af40 	call	1012af4 <alt_up_pixel_buffer_dma_check_swap_buffers_status>
 100223c:	103ffd1e 	bne	r2,zero,1002234 <draw_menu+0x17c>
 1002240:	003fb006 	br	1002104 <draw_menu+0x4c>

			update_highlight();

	} else if (state == 4){
			//game_state == 4 is DOGE COLOUR
			draw_bmp(pixel_buffer,0,0,dcol);
 1002244:	d127e717 	ldw	r4,-24676(gp)
 1002248:	d1e7e117 	ldw	r7,-24700(gp)
 100224c:	000b883a 	mov	r5,zero
 1002250:	000d883a 	mov	r6,zero
 1002254:	10056280 	call	1005628 <draw_bmp>
			alt_up_pixel_buffer_dma_swap_buffers(pixel_buffer);
 1002258:	d127e717 	ldw	r4,-24676(gp)
 100225c:	1012a100 	call	1012a10 <alt_up_pixel_buffer_dma_swap_buffers>
			while (alt_up_pixel_buffer_dma_check_swap_buffers_status(pixel_buffer));
 1002260:	d127e717 	ldw	r4,-24676(gp)
 1002264:	1012af40 	call	1012af4 <alt_up_pixel_buffer_dma_check_swap_buffers_status>
 1002268:	103ffd1e 	bne	r2,zero,1002260 <draw_menu+0x1a8>
			draw_bmp(pixel_buffer,0,0,dcol);
 100226c:	d127e717 	ldw	r4,-24676(gp)
 1002270:	d1e7e117 	ldw	r7,-24700(gp)
 1002274:	000b883a 	mov	r5,zero
 1002278:	000d883a 	mov	r6,zero
 100227c:	10056280 	call	1005628 <draw_bmp>
			alt_up_pixel_buffer_dma_swap_buffers(pixel_buffer);
 1002280:	d127e717 	ldw	r4,-24676(gp)
 1002284:	1012a100 	call	1012a10 <alt_up_pixel_buffer_dma_swap_buffers>
			while (alt_up_pixel_buffer_dma_check_swap_buffers_status(pixel_buffer));
 1002288:	d127e717 	ldw	r4,-24676(gp)
 100228c:	1012af40 	call	1012af4 <alt_up_pixel_buffer_dma_check_swap_buffers_status>
 1002290:	103ffd1e 	bne	r2,zero,1002288 <draw_menu+0x1d0>
 1002294:	003f9b06 	br	1002104 <draw_menu+0x4c>
			if (priviledge == 2) priviledge = 3;
			else priviledge = 2;

	} else if (state == 9){
		//game_state == 9 is NAME
		draw_bmp(pixel_buffer,0,0,name);
 1002298:	d127e717 	ldw	r4,-24676(gp)
 100229c:	d1e7eb17 	ldw	r7,-24660(gp)
 10022a0:	000b883a 	mov	r5,zero
 10022a4:	000d883a 	mov	r6,zero
 10022a8:	10056280 	call	1005628 <draw_bmp>
		alt_up_pixel_buffer_dma_swap_buffers(pixel_buffer);
 10022ac:	d127e717 	ldw	r4,-24676(gp)
 10022b0:	1012a100 	call	1012a10 <alt_up_pixel_buffer_dma_swap_buffers>
		while (alt_up_pixel_buffer_dma_check_swap_buffers_status(pixel_buffer));
 10022b4:	d127e717 	ldw	r4,-24676(gp)
 10022b8:	1012af40 	call	1012af4 <alt_up_pixel_buffer_dma_check_swap_buffers_status>
 10022bc:	103ffd1e 	bne	r2,zero,10022b4 <draw_menu+0x1fc>
		draw_bmp(pixel_buffer,0,0,name);
 10022c0:	d127e717 	ldw	r4,-24676(gp)
 10022c4:	d1e7eb17 	ldw	r7,-24660(gp)
 10022c8:	000b883a 	mov	r5,zero
 10022cc:	000d883a 	mov	r6,zero
 10022d0:	10056280 	call	1005628 <draw_bmp>
		alt_up_pixel_buffer_dma_swap_buffers(pixel_buffer);
 10022d4:	d127e717 	ldw	r4,-24676(gp)
 10022d8:	1012a100 	call	1012a10 <alt_up_pixel_buffer_dma_swap_buffers>
		while (alt_up_pixel_buffer_dma_check_swap_buffers_status(pixel_buffer));
 10022dc:	d127e717 	ldw	r4,-24676(gp)
 10022e0:	1012af40 	call	1012af4 <alt_up_pixel_buffer_dma_check_swap_buffers_status>
 10022e4:	103ffd1e 	bne	r2,zero,10022dc <draw_menu+0x224>

		free_bmp(name);
 10022e8:	d127eb17 	ldw	r4,-24660(gp)
	}

	return;
}
 10022ec:	dfc00017 	ldw	ra,0(sp)
 10022f0:	dec00104 	addi	sp,sp,4
		while (alt_up_pixel_buffer_dma_check_swap_buffers_status(pixel_buffer));
		draw_bmp(pixel_buffer,0,0,name);
		alt_up_pixel_buffer_dma_swap_buffers(pixel_buffer);
		while (alt_up_pixel_buffer_dma_check_swap_buffers_status(pixel_buffer));

		free_bmp(name);
 10022f4:	10056bc1 	jmpi	10056bc <free_bmp>
			if (priviledge == 2) priviledge = 3;
			else priviledge = 2;

	} else if (state == 7){
			//game_state == 7 is WIN
			draw_bmp(pixel_buffer,80,60,win);
 10022f8:	d127e717 	ldw	r4,-24676(gp)
 10022fc:	d1e7e317 	ldw	r7,-24692(gp)
 1002300:	01401404 	movi	r5,80
 1002304:	01800f04 	movi	r6,60
 1002308:	10056280 	call	1005628 <draw_bmp>
			alt_up_pixel_buffer_dma_swap_buffers(pixel_buffer);
 100230c:	d127e717 	ldw	r4,-24676(gp)
 1002310:	1012a100 	call	1012a10 <alt_up_pixel_buffer_dma_swap_buffers>
			while (alt_up_pixel_buffer_dma_check_swap_buffers_status(pixel_buffer));
 1002314:	d127e717 	ldw	r4,-24676(gp)
 1002318:	1012af40 	call	1012af4 <alt_up_pixel_buffer_dma_check_swap_buffers_status>
 100231c:	103ffd1e 	bne	r2,zero,1002314 <draw_menu+0x25c>
			draw_bmp(pixel_buffer,80,60,win);
 1002320:	d127e717 	ldw	r4,-24676(gp)
 1002324:	d1e7e317 	ldw	r7,-24692(gp)
 1002328:	01401404 	movi	r5,80
 100232c:	01800f04 	movi	r6,60
 1002330:	10056280 	call	1005628 <draw_bmp>
			alt_up_pixel_buffer_dma_swap_buffers(pixel_buffer);
 1002334:	d127e717 	ldw	r4,-24676(gp)
 1002338:	1012a100 	call	1012a10 <alt_up_pixel_buffer_dma_swap_buffers>
			while (alt_up_pixel_buffer_dma_check_swap_buffers_status(pixel_buffer));
 100233c:	d127e717 	ldw	r4,-24676(gp)
 1002340:	1012af40 	call	1012af4 <alt_up_pixel_buffer_dma_check_swap_buffers_status>
 1002344:	103ffd1e 	bne	r2,zero,100233c <draw_menu+0x284>

			if (priviledge == 2) priviledge = 3;
 1002348:	d0a00317 	ldw	r2,-32756(gp)
 100234c:	00c00084 	movi	r3,2
 1002350:	10c02c26 	beq	r2,r3,1002404 <draw_menu+0x34c>
			else priviledge = 2;
 1002354:	d0e00315 	stw	r3,-32756(gp)
 1002358:	003f6a06 	br	1002104 <draw_menu+0x4c>
	} else if (state == 5){
			//game_state == 5 is PLAY GAME

	} else if (state == 6){
			//game_state == 6 is LOSE
			draw_bmp(pixel_buffer,80,60,dead);
 100235c:	d127e717 	ldw	r4,-24676(gp)
 1002360:	d1e7e217 	ldw	r7,-24696(gp)
 1002364:	01401404 	movi	r5,80
 1002368:	01800f04 	movi	r6,60
 100236c:	10056280 	call	1005628 <draw_bmp>
			alt_up_pixel_buffer_dma_swap_buffers(pixel_buffer);
 1002370:	d127e717 	ldw	r4,-24676(gp)
 1002374:	1012a100 	call	1012a10 <alt_up_pixel_buffer_dma_swap_buffers>
			while (alt_up_pixel_buffer_dma_check_swap_buffers_status(pixel_buffer));
 1002378:	d127e717 	ldw	r4,-24676(gp)
 100237c:	1012af40 	call	1012af4 <alt_up_pixel_buffer_dma_check_swap_buffers_status>
 1002380:	103ffd1e 	bne	r2,zero,1002378 <draw_menu+0x2c0>
			draw_bmp(pixel_buffer,80,60,dead);
 1002384:	d127e717 	ldw	r4,-24676(gp)
 1002388:	d1e7e217 	ldw	r7,-24696(gp)
 100238c:	01401404 	movi	r5,80
 1002390:	01800f04 	movi	r6,60
 1002394:	10056280 	call	1005628 <draw_bmp>
			alt_up_pixel_buffer_dma_swap_buffers(pixel_buffer);
 1002398:	d127e717 	ldw	r4,-24676(gp)
 100239c:	1012a100 	call	1012a10 <alt_up_pixel_buffer_dma_swap_buffers>
			while (alt_up_pixel_buffer_dma_check_swap_buffers_status(pixel_buffer));
 10023a0:	d127e717 	ldw	r4,-24676(gp)
 10023a4:	1012af40 	call	1012af4 <alt_up_pixel_buffer_dma_check_swap_buffers_status>
 10023a8:	103ffd1e 	bne	r2,zero,10023a0 <draw_menu+0x2e8>
 10023ac:	003fe606 	br	1002348 <draw_menu+0x290>
			while (alt_up_pixel_buffer_dma_check_swap_buffers_status(pixel_buffer));

	} else if (state == 3){
			//game_state == 3 is LEVEL SCREEN
			if (priviledge == 1){
					draw_bmp(pixel_buffer,0,0,selA);
 10023b0:	d127e717 	ldw	r4,-24676(gp)
 10023b4:	d1e7ea17 	ldw	r7,-24664(gp)
 10023b8:	000b883a 	mov	r5,zero
 10023bc:	000d883a 	mov	r6,zero
 10023c0:	10056280 	call	1005628 <draw_bmp>
					alt_up_pixel_buffer_dma_swap_buffers(pixel_buffer);
 10023c4:	d127e717 	ldw	r4,-24676(gp)
 10023c8:	1012a100 	call	1012a10 <alt_up_pixel_buffer_dma_swap_buffers>
					while (alt_up_pixel_buffer_dma_check_swap_buffers_status(pixel_buffer));
 10023cc:	d127e717 	ldw	r4,-24676(gp)
 10023d0:	1012af40 	call	1012af4 <alt_up_pixel_buffer_dma_check_swap_buffers_status>
 10023d4:	103ffd1e 	bne	r2,zero,10023cc <draw_menu+0x314>
					draw_bmp(pixel_buffer,0,0,selA);
 10023d8:	d127e717 	ldw	r4,-24676(gp)
 10023dc:	d1e7ea17 	ldw	r7,-24664(gp)
 10023e0:	000b883a 	mov	r5,zero
 10023e4:	000d883a 	mov	r6,zero
 10023e8:	10056280 	call	1005628 <draw_bmp>
					alt_up_pixel_buffer_dma_swap_buffers(pixel_buffer);
 10023ec:	d127e717 	ldw	r4,-24676(gp)
 10023f0:	1012a100 	call	1012a10 <alt_up_pixel_buffer_dma_swap_buffers>
					while (alt_up_pixel_buffer_dma_check_swap_buffers_status(pixel_buffer));
 10023f4:	d127e717 	ldw	r4,-24676(gp)
 10023f8:	1012af40 	call	1012af4 <alt_up_pixel_buffer_dma_check_swap_buffers_status>
 10023fc:	103ffd1e 	bne	r2,zero,10023f4 <draw_menu+0x33c>
 1002400:	003f6106 	br	1002188 <draw_menu+0xd0>
			while (alt_up_pixel_buffer_dma_check_swap_buffers_status(pixel_buffer));
			draw_bmp(pixel_buffer,80,60,win);
			alt_up_pixel_buffer_dma_swap_buffers(pixel_buffer);
			while (alt_up_pixel_buffer_dma_check_swap_buffers_status(pixel_buffer));

			if (priviledge == 2) priviledge = 3;
 1002404:	008000c4 	movi	r2,3
 1002408:	d0a00315 	stw	r2,-32756(gp)
 100240c:	003f3d06 	br	1002104 <draw_menu+0x4c>
					draw_bmp(pixel_buffer,0,0,selA);
					alt_up_pixel_buffer_dma_swap_buffers(pixel_buffer);
					while (alt_up_pixel_buffer_dma_check_swap_buffers_status(pixel_buffer));

			} else if (priviledge == 2) {
					draw_bmp(pixel_buffer,0,0,selB);
 1002410:	d127e717 	ldw	r4,-24676(gp)
 1002414:	d1e7e517 	ldw	r7,-24684(gp)
 1002418:	000b883a 	mov	r5,zero
 100241c:	000d883a 	mov	r6,zero
 1002420:	10056280 	call	1005628 <draw_bmp>
					alt_up_pixel_buffer_dma_swap_buffers(pixel_buffer);
 1002424:	d127e717 	ldw	r4,-24676(gp)
 1002428:	1012a100 	call	1012a10 <alt_up_pixel_buffer_dma_swap_buffers>
					while (alt_up_pixel_buffer_dma_check_swap_buffers_status(pixel_buffer));
 100242c:	d127e717 	ldw	r4,-24676(gp)
 1002430:	1012af40 	call	1012af4 <alt_up_pixel_buffer_dma_check_swap_buffers_status>
 1002434:	103ffd1e 	bne	r2,zero,100242c <draw_menu+0x374>
					draw_bmp(pixel_buffer,0,0,selB);
 1002438:	d127e717 	ldw	r4,-24676(gp)
 100243c:	d1e7e517 	ldw	r7,-24684(gp)
 1002440:	000b883a 	mov	r5,zero
 1002444:	000d883a 	mov	r6,zero
 1002448:	10056280 	call	1005628 <draw_bmp>
					alt_up_pixel_buffer_dma_swap_buffers(pixel_buffer);
 100244c:	d127e717 	ldw	r4,-24676(gp)
 1002450:	1012a100 	call	1012a10 <alt_up_pixel_buffer_dma_swap_buffers>
					while (alt_up_pixel_buffer_dma_check_swap_buffers_status(pixel_buffer));
 1002454:	d127e717 	ldw	r4,-24676(gp)
 1002458:	1012af40 	call	1012af4 <alt_up_pixel_buffer_dma_check_swap_buffers_status>
 100245c:	103ffd1e 	bne	r2,zero,1002454 <draw_menu+0x39c>
 1002460:	003f4906 	br	1002188 <draw_menu+0xd0>

			} else if (priviledge == 3) {
					draw_bmp(pixel_buffer,0,0,selC);
 1002464:	d127e717 	ldw	r4,-24676(gp)
 1002468:	d1e7de17 	ldw	r7,-24712(gp)
 100246c:	000b883a 	mov	r5,zero
 1002470:	000d883a 	mov	r6,zero
 1002474:	10056280 	call	1005628 <draw_bmp>
					alt_up_pixel_buffer_dma_swap_buffers(pixel_buffer);
 1002478:	d127e717 	ldw	r4,-24676(gp)
 100247c:	1012a100 	call	1012a10 <alt_up_pixel_buffer_dma_swap_buffers>
					while (alt_up_pixel_buffer_dma_check_swap_buffers_status(pixel_buffer));
 1002480:	d127e717 	ldw	r4,-24676(gp)
 1002484:	1012af40 	call	1012af4 <alt_up_pixel_buffer_dma_check_swap_buffers_status>
 1002488:	103ffd1e 	bne	r2,zero,1002480 <draw_menu+0x3c8>
					draw_bmp(pixel_buffer,0,0,selC);
 100248c:	d127e717 	ldw	r4,-24676(gp)
 1002490:	d1e7de17 	ldw	r7,-24712(gp)
 1002494:	000b883a 	mov	r5,zero
 1002498:	000d883a 	mov	r6,zero
 100249c:	10056280 	call	1005628 <draw_bmp>
					alt_up_pixel_buffer_dma_swap_buffers(pixel_buffer);
 10024a0:	d127e717 	ldw	r4,-24676(gp)
 10024a4:	1012a100 	call	1012a10 <alt_up_pixel_buffer_dma_swap_buffers>
					while (alt_up_pixel_buffer_dma_check_swap_buffers_status(pixel_buffer));
 10024a8:	d127e717 	ldw	r4,-24676(gp)
 10024ac:	1012af40 	call	1012af4 <alt_up_pixel_buffer_dma_check_swap_buffers_status>
 10024b0:	103ffd1e 	bne	r2,zero,10024a8 <draw_menu+0x3f0>
 10024b4:	003f3406 	br	1002188 <draw_menu+0xd0>

010024b8 <clear_doge>:

	clear_loc(pixel_buffer, x0, box.y[num], x1, box.y[num]+box.height[num],b);

}
void clear_doge(alt_up_pixel_buffer_dma_dev *pixel_buffer,int x ,int y, bmp* b)
{
 10024b8:	defffd04 	addi	sp,sp,-12
	int y1;

	y1 = y + 40 + 7 > 239 ? 239 : y + 40 + 7;
 10024bc:	00803004 	movi	r2,192

	clear_loc(pixel_buffer, x0, box.y[num], x1, box.y[num]+box.height[num],b);

}
void clear_doge(alt_up_pixel_buffer_dma_dev *pixel_buffer,int x ,int y, bmp* b)
{
 10024c0:	dfc00215 	stw	ra,8(sp)
	int y1;

	y1 = y + 40 + 7 > 239 ? 239 : y + 40 + 7;
 10024c4:	02003bc4 	movi	r8,239

	clear_loc(pixel_buffer, x0, box.y[num], x1, box.y[num]+box.height[num],b);

}
void clear_doge(alt_up_pixel_buffer_dma_dev *pixel_buffer,int x ,int y, bmp* b)
{
 10024c8:	3807883a 	mov	r3,r7
	int y1;

	y1 = y + 40 + 7 > 239 ? 239 : y + 40 + 7;
 10024cc:	11800116 	blt	r2,r6,10024d4 <clear_doge+0x1c>
 10024d0:	32000bc4 	addi	r8,r6,47

	clear_loc(pixel_buffer, x,y-30, x+60, y1 ,b);
 10024d4:	31bff884 	addi	r6,r6,-30
 10024d8:	29c00f04 	addi	r7,r5,60
 10024dc:	da000015 	stw	r8,0(sp)
 10024e0:	d8c00115 	stw	r3,4(sp)
 10024e4:	100559c0 	call	100559c <clear_loc>
}
 10024e8:	dfc00217 	ldw	ra,8(sp)
 10024ec:	dec00304 	addi	sp,sp,12
 10024f0:	f800283a 	ret

010024f4 <clear_object>:


}

void clear_object(alt_up_pixel_buffer_dma_dev *pixel_buffer, object box, bmp* b, int num)
{
 10024f4:	defffd04 	addi	sp,sp,-12
 10024f8:	d8805217 	ldw	r2,328(sp)
 10024fc:	d9800115 	stw	r6,4(sp)
 1002500:	d9400015 	stw	r5,0(sp)
	int x0, x1;

	x0 = box.x[num] - 7 < 0 ? 0 :  box.x[num] - 7;
 1002504:	108d883a 	add	r6,r2,r2
 1002508:	3187883a 	add	r3,r6,r6


}

void clear_object(alt_up_pixel_buffer_dma_dev *pixel_buffer, object box, bmp* b, int num)
{
 100250c:	d9c00215 	stw	r7,8(sp)
	int x0, x1;

	x0 = box.x[num] - 7 < 0 ? 0 :  box.x[num] - 7;
 1002510:	1ec7883a 	add	r3,r3,sp
 1002514:	1a000a17 	ldw	r8,40(r3)
 1002518:	00800184 	movi	r2,6
 100251c:	000b883a 	mov	r5,zero


}

void clear_object(alt_up_pixel_buffer_dma_dev *pixel_buffer, object box, bmp* b, int num)
{
 1002520:	da405117 	ldw	r9,324(sp)
	int x0, x1;

	x0 = box.x[num] - 7 < 0 ? 0 :  box.x[num] - 7;
 1002524:	1200010e 	bge	r2,r8,100252c <clear_object+0x38>
 1002528:	417ffe44 	addi	r5,r8,-7
	x1 = box.x[num] + box.temp_length[num] + 7 > 319 ? 319 : box.x[num] + box.temp_length[num] + 7;
 100252c:	3185883a 	add	r2,r6,r6
 1002530:	16c5883a 	add	r2,r2,sp
 1002534:	10c03217 	ldw	r3,200(r2)
 1002538:	00804e04 	movi	r2,312
 100253c:	01c04fc4 	movi	r7,319
 1002540:	40c7883a 	add	r3,r8,r3
 1002544:	10c00116 	blt	r2,r3,100254c <clear_object+0x58>
 1002548:	19c001c4 	addi	r7,r3,7
	//y0 = box.y[num] - 1 <
	//y1 =
//	clear_loc(pixel_buffer, box.x[num] , box.y[num] - 5, box.x[num]+box.temp_length[num], box.y[num]+box.height[num] + 5,b);

	clear_loc(pixel_buffer, x0, box.y[num], x1, box.y[num]+box.height[num],b);
 100254c:	3185883a 	add	r2,r6,r6
 1002550:	16c5883a 	add	r2,r2,sp
 1002554:	10c01e17 	ldw	r3,120(r2)
 1002558:	11800017 	ldw	r6,0(r2)
 100255c:	da400415 	stw	r9,16(sp)
 1002560:	30c7883a 	add	r3,r6,r3
 1002564:	d8c00315 	stw	r3,12(sp)

}
 1002568:	dec00304 	addi	sp,sp,12
	x1 = box.x[num] + box.temp_length[num] + 7 > 319 ? 319 : box.x[num] + box.temp_length[num] + 7;
	//y0 = box.y[num] - 1 <
	//y1 =
//	clear_loc(pixel_buffer, box.x[num] , box.y[num] - 5, box.x[num]+box.temp_length[num], box.y[num]+box.height[num] + 5,b);

	clear_loc(pixel_buffer, x0, box.y[num], x1, box.y[num]+box.height[num],b);
 100256c:	100559c1 	jmpi	100559c <clear_loc>

01002570 <keyboard_ISR>:
volatile int ind;

char playername[12];
char decode(short int buffer);

static void keyboard_ISR( void *mstr, alt_u32 id ){
 1002570:	defffc04 	addi	sp,sp,-16
 1002574:	dc400115 	stw	r17,4(sp)
 1002578:	2023883a 	mov	r17,r4
	master* m = (master*)mstr;
	charac* c = m->c;

	//keyboard interrupt handler
	decode_scancode(ps2,&decode_mode, buf, &ascii);
 100257c:	d127e617 	ldw	r4,-24680(gp)
 1002580:	d167e404 	addi	r5,gp,-24688
 1002584:	d1a7e844 	addi	r6,gp,-24671
 1002588:	d1e7e804 	addi	r7,gp,-24672
volatile int ind;

char playername[12];
char decode(short int buffer);

static void keyboard_ISR( void *mstr, alt_u32 id ){
 100258c:	dc000015 	stw	r16,0(sp)
 1002590:	dfc00315 	stw	ra,12(sp)
 1002594:	dc800215 	stw	r18,8(sp)
	master* m = (master*)mstr;
	charac* c = m->c;
 1002598:	8c000717 	ldw	r16,28(r17)

	//keyboard interrupt handler
	decode_scancode(ps2,&decode_mode, buf, &ascii);
 100259c:	10131e40 	call	10131e4 <decode_scancode>

	if (game_state == 0){
 10025a0:	d0e7d917 	ldw	r3,-24732(gp)
 10025a4:	1800091e 	bne	r3,zero,10025cc <keyboard_ISR+0x5c>
			//game_state == 0 is TITLE SCREEN
			if (decode_mode == KB_BINARY_MAKE_CODE){
 10025a8:	d0e7e417 	ldw	r3,-24688(gp)
 10025ac:	00800084 	movi	r2,2
 10025b0:	18806f26 	beq	r3,r2,1002770 <keyboard_ISR+0x200>
							alt_up_char_buffer_clear(char_buffer);
							game_state = 1;
					}
			}
	}
}
 10025b4:	dfc00317 	ldw	ra,12(sp)
 10025b8:	dc800217 	ldw	r18,8(sp)
 10025bc:	dc400117 	ldw	r17,4(sp)
 10025c0:	dc000017 	ldw	r16,0(sp)
 10025c4:	dec00404 	addi	sp,sp,16
 10025c8:	f800283a 	ret
				if (buf[0]==0x29){ //SPACE BAR
						game_state =  9;
						highlighted_item = 3;
				}
			}
	} else if (game_state == 1){
 10025cc:	d0a7d917 	ldw	r2,-24732(gp)
 10025d0:	04800044 	movi	r18,1
 10025d4:	14807326 	beq	r2,r18,10027a4 <keyboard_ISR+0x234>
								highlighted_item--;
								update_highlight();
							}
					}
			}
	} else if (game_state == 2){
 10025d8:	d0a7d917 	ldw	r2,-24732(gp)
 10025dc:	01000084 	movi	r4,2
 10025e0:	11009326 	beq	r2,r4,1002830 <keyboard_ISR+0x2c0>
			//game_state == 2 is INSTRUCTIONS
			if (decode_mode == KB_BINARY_MAKE_CODE){
					if (buf[0]==0x29) game_state =  1;
			}

	} else if (game_state == 3){
 10025e4:	d0e7d917 	ldw	r3,-24732(gp)
 10025e8:	008000c4 	movi	r2,3
 10025ec:	18807d26 	beq	r3,r2,10027e4 <keyboard_ISR+0x274>
									update_highlight();
							}
					}
			}

	} else if (game_state == 4){
 10025f0:	d0a7d917 	ldw	r2,-24732(gp)
 10025f4:	01400104 	movi	r5,4
 10025f8:	11409426 	beq	r2,r5,100284c <keyboard_ISR+0x2dc>
	 			bmp * dog23 = read_bmp("dog23.bmp");
	 			alt_up_char_buffer_string(char_buffer, "dog23.bmp", 0, 31);

	 		}

	} else if (game_state == 5){
 10025fc:	d0e7d917 	ldw	r3,-24732(gp)
 1002600:	00800144 	movi	r2,5
 1002604:	1880c626 	beq	r3,r2,1002920 <keyboard_ISR+0x3b0>
						c->jumping = false;
						if(buf[0] == 0x23 ){
							c->ducking = false;
						}
					}
 } else if (game_state == 6){
 1002608:	d0e7d917 	ldw	r3,-24732(gp)
 100260c:	00800184 	movi	r2,6
 1002610:	18808726 	beq	r3,r2,1002830 <keyboard_ISR+0x2c0>
				//game_state == 6 is WIN
				if (decode_mode == KB_BINARY_MAKE_CODE){
						if (buf[0]==0x29) game_state =  1;
				}
	} else if (game_state == 7){
 1002614:	d0e7d917 	ldw	r3,-24732(gp)
 1002618:	008001c4 	movi	r2,7
 100261c:	18808426 	beq	r3,r2,1002830 <keyboard_ISR+0x2c0>
				//game_state == 7 is LOSE
				if (decode_mode == KB_BINARY_MAKE_CODE){
						if (buf[0]==0x29) game_state =  1;
				}

	} else if (game_state == 9){
 1002620:	d0e7d917 	ldw	r3,-24732(gp)
 1002624:	00800244 	movi	r2,9
 1002628:	18bfe21e 	bne	r3,r2,10025b4 <keyboard_ISR+0x44>
			//game_state == 9 is NAME
			if (decode_mode == KB_BINARY_MAKE_CODE){
 100262c:	d0a7e417 	ldw	r2,-24688(gp)
 1002630:	11011926 	beq	r2,r4,1002a98 <keyboard_ISR+0x528>
						playername[ind] = '\0';
						alt_up_char_buffer_clear(char_buffer);
						game_state = 1;
					}

			} else if (decode_mode == KB_ASCII_MAKE_CODE){
 1002634:	14bfdf1e 	bne	r2,r18,10025b4 <keyboard_ISR+0x44>
			}
	}
}

char decode(short int buffer){
	if (buffer == 0x1C){
 1002638:	d0e7e843 	ldbu	r3,-24671(gp)
 100263c:	00800704 	movi	r2,28
						alt_up_char_buffer_clear(char_buffer);
						game_state = 1;
					}

			} else if (decode_mode == KB_ASCII_MAKE_CODE){
					playername[ind] = decode(buf[0]);
 1002640:	d1a7e017 	ldw	r6,-24704(gp)
			}
	}
}

char decode(short int buffer){
	if (buffer == 0x1C){
 1002644:	18812926 	beq	r3,r2,1002aec <keyboard_ISR+0x57c>
		return 'a';
	} else if (buffer == 0x32){
 1002648:	00800c84 	movi	r2,50
 100264c:	18812d26 	beq	r3,r2,1002b04 <keyboard_ISR+0x594>
		return 'b';
	} else if (buffer == 0x21){
 1002650:	00800844 	movi	r2,33
 1002654:	18812d26 	beq	r3,r2,1002b0c <keyboard_ISR+0x59c>
		return 'c';
	} else if (buffer == 0x23){
 1002658:	008008c4 	movi	r2,35
 100265c:	18812d26 	beq	r3,r2,1002b14 <keyboard_ISR+0x5a4>
		return 'd';
	} else if (buffer == 0x24){
 1002660:	00800904 	movi	r2,36
 1002664:	18812d26 	beq	r3,r2,1002b1c <keyboard_ISR+0x5ac>
		return 'e';
	} else if (buffer == 0x2B){
 1002668:	00800ac4 	movi	r2,43
 100266c:	18812d26 	beq	r3,r2,1002b24 <keyboard_ISR+0x5b4>
		return 'f';
	} else if (buffer == 0x34){
 1002670:	00800d04 	movi	r2,52
 1002674:	18812d26 	beq	r3,r2,1002b2c <keyboard_ISR+0x5bc>
		return 'g';
	} else if (buffer == 0x33){
 1002678:	00800cc4 	movi	r2,51
 100267c:	18812d26 	beq	r3,r2,1002b34 <keyboard_ISR+0x5c4>
		return 'h';
	} else if (buffer == 0x43){
 1002680:	008010c4 	movi	r2,67
 1002684:	18812d26 	beq	r3,r2,1002b3c <keyboard_ISR+0x5cc>
		return 'i';
	} else if (buffer == 0x3B){
 1002688:	00800ec4 	movi	r2,59
 100268c:	18812f26 	beq	r3,r2,1002b4c <keyboard_ISR+0x5dc>
		return 'j';
	} else if (buffer == 0x42){
 1002690:	00801084 	movi	r2,66
 1002694:	18812b26 	beq	r3,r2,1002b44 <keyboard_ISR+0x5d4>
		return 'k';
	} else if (buffer == 0x4B){
 1002698:	008012c4 	movi	r2,75
 100269c:	18813926 	beq	r3,r2,1002b84 <keyboard_ISR+0x614>
		return 'l';
	} else if (buffer == 0x3A){
 10026a0:	00800e84 	movi	r2,58
 10026a4:	18813526 	beq	r3,r2,1002b7c <keyboard_ISR+0x60c>
		return 'm';
	} else if (buffer == 0x31){
 10026a8:	00800c44 	movi	r2,49
 10026ac:	18813126 	beq	r3,r2,1002b74 <keyboard_ISR+0x604>
		return 'n';
	} else if (buffer == 0x44){
 10026b0:	00801104 	movi	r2,68
 10026b4:	18812d26 	beq	r3,r2,1002b6c <keyboard_ISR+0x5fc>
		return 'o';
	} else if (buffer == 0x4D){
 10026b8:	00801344 	movi	r2,77
 10026bc:	18814126 	beq	r3,r2,1002bc4 <keyboard_ISR+0x654>
		return 'p';
	} else if (buffer == 0x15){
 10026c0:	00800544 	movi	r2,21
 10026c4:	18813d26 	beq	r3,r2,1002bbc <keyboard_ISR+0x64c>
		return 'q';
	} else if (buffer == 0x2D){
 10026c8:	00800b44 	movi	r2,45
 10026cc:	18813926 	beq	r3,r2,1002bb4 <keyboard_ISR+0x644>
		return 'r';
	} else if (buffer == 0x1B){
 10026d0:	008006c4 	movi	r2,27
 10026d4:	18813526 	beq	r3,r2,1002bac <keyboard_ISR+0x63c>
		return 's';
	} else if (buffer == 0x2C){
 10026d8:	00800b04 	movi	r2,44
 10026dc:	18813126 	beq	r3,r2,1002ba4 <keyboard_ISR+0x634>
		return 't';
	} else if (buffer == 0x3C){
 10026e0:	00800f04 	movi	r2,60
 10026e4:	18812d26 	beq	r3,r2,1002b9c <keyboard_ISR+0x62c>
		return 'u';
	} else if (buffer == 0x2A){
 10026e8:	00800a84 	movi	r2,42
 10026ec:	18812926 	beq	r3,r2,1002b94 <keyboard_ISR+0x624>
		return 'v';
	} else if (buffer == 0x1D){
 10026f0:	00800744 	movi	r2,29
 10026f4:	18812526 	beq	r3,r2,1002b8c <keyboard_ISR+0x61c>
		return 'w';
	} else if (buffer == 0x22){
 10026f8:	00800884 	movi	r2,34
 10026fc:	18811926 	beq	r3,r2,1002b64 <keyboard_ISR+0x5f4>
		return 'x';
	} else if (buffer == 0x35){
 1002700:	00800d44 	movi	r2,53
 1002704:	18811526 	beq	r3,r2,1002b5c <keyboard_ISR+0x5ec>
		return 'y';
	} else if (buffer == 0x1A){
 1002708:	00800684 	movi	r2,26
 100270c:	18811126 	beq	r3,r2,1002b54 <keyboard_ISR+0x5e4>
 1002710:	01400804 	movi	r5,32
						game_state = 1;
					}

			} else if (decode_mode == KB_ASCII_MAKE_CODE){
					playername[ind] = decode(buf[0]);
					alt_up_char_buffer_draw(char_buffer, playername[ind], 35+ind, 32);
 1002714:	d0e7e017 	ldw	r3,-24704(gp)
						alt_up_char_buffer_clear(char_buffer);
						game_state = 1;
					}

			} else if (decode_mode == KB_ASCII_MAKE_CODE){
					playername[ind] = decode(buf[0]);
 1002718:	010040b4 	movhi	r4,258
 100271c:	21379804 	addi	r4,r4,-8608
 1002720:	3105883a 	add	r2,r6,r4
					alt_up_char_buffer_draw(char_buffer, playername[ind], 35+ind, 32);
 1002724:	1907883a 	add	r3,r3,r4
						alt_up_char_buffer_clear(char_buffer);
						game_state = 1;
					}

			} else if (decode_mode == KB_ASCII_MAKE_CODE){
					playername[ind] = decode(buf[0]);
 1002728:	11400005 	stb	r5,0(r2)
					alt_up_char_buffer_draw(char_buffer, playername[ind], 35+ind, 32);
 100272c:	d1a7e017 	ldw	r6,-24704(gp)
 1002730:	19400003 	ldbu	r5,0(r3)
 1002734:	d127dd17 	ldw	r4,-24716(gp)
 1002738:	318008c4 	addi	r6,r6,35
 100273c:	01c00804 	movi	r7,32
 1002740:	10122800 	call	1012280 <alt_up_char_buffer_draw>
					ind++;
 1002744:	d0e7e017 	ldw	r3,-24704(gp)
					if (ind == 12){
 1002748:	00800304 	movi	r2,12
					}

			} else if (decode_mode == KB_ASCII_MAKE_CODE){
					playername[ind] = decode(buf[0]);
					alt_up_char_buffer_draw(char_buffer, playername[ind], 35+ind, 32);
					ind++;
 100274c:	18c00044 	addi	r3,r3,1
 1002750:	d0e7e015 	stw	r3,-24704(gp)
					if (ind == 12){
 1002754:	d127e017 	ldw	r4,-24704(gp)
 1002758:	20bf961e 	bne	r4,r2,10025b4 <keyboard_ISR+0x44>
							alt_up_char_buffer_clear(char_buffer);
 100275c:	d127dd17 	ldw	r4,-24716(gp)
 1002760:	10122d80 	call	10122d8 <alt_up_char_buffer_clear>
							game_state = 1;
 1002764:	00c00044 	movi	r3,1
 1002768:	d0e7d915 	stw	r3,-24732(gp)
 100276c:	003f9106 	br	10025b4 <keyboard_ISR+0x44>
	decode_scancode(ps2,&decode_mode, buf, &ascii);

	if (game_state == 0){
			//game_state == 0 is TITLE SCREEN
			if (decode_mode == KB_BINARY_MAKE_CODE){
				if (buf[0]==0x29){ //SPACE BAR
 1002770:	d0e7e843 	ldbu	r3,-24671(gp)
 1002774:	00800a44 	movi	r2,41
 1002778:	18bf8e1e 	bne	r3,r2,10025b4 <keyboard_ISR+0x44>
						game_state =  9;
 100277c:	00800244 	movi	r2,9
 1002780:	d0a7d915 	stw	r2,-24732(gp)
						highlighted_item = 3;
 1002784:	00c000c4 	movi	r3,3
 1002788:	d0e00415 	stw	r3,-32752(gp)
							alt_up_char_buffer_clear(char_buffer);
							game_state = 1;
					}
			}
	}
}
 100278c:	dfc00317 	ldw	ra,12(sp)
 1002790:	dc800217 	ldw	r18,8(sp)
 1002794:	dc400117 	ldw	r17,4(sp)
 1002798:	dc000017 	ldw	r16,0(sp)
 100279c:	dec00404 	addi	sp,sp,16
 10027a0:	f800283a 	ret
						highlighted_item = 3;
				}
			}
	} else if (game_state == 1){
			//game_state == 1 is MAIN MENU
			if (decode_mode == KB_BINARY_MAKE_CODE){
 10027a4:	d0e7e417 	ldw	r3,-24688(gp)
 10027a8:	01400084 	movi	r5,2
 10027ac:	19405626 	beq	r3,r5,1002908 <keyboard_ISR+0x398>
					if (buf[0]==0x29) game_state =  highlighted_item;

			} else if (decode_mode == KB_LONG_BINARY_MAKE_CODE) {
 10027b0:	008000c4 	movi	r2,3
 10027b4:	18bf7f1e 	bne	r3,r2,10025b4 <keyboard_ISR+0x44>
					if (buf[0]==0x74){ //RIGHT ARROW
 10027b8:	d127e843 	ldbu	r4,-24671(gp)
 10027bc:	00801d04 	movi	r2,116
 10027c0:	20807126 	beq	r4,r2,1002988 <keyboard_ISR+0x418>
							if (highlighted_item < 4){
								highlighted_item++;
								update_highlight();
							}

					} else if (buf[0]==0x6B){ //LEFT ARROW
 10027c4:	00801ac4 	movi	r2,107
 10027c8:	20bf7a1e 	bne	r4,r2,10025b4 <keyboard_ISR+0x44>
							if (highlighted_item > 2){
 10027cc:	d0a00417 	ldw	r2,-32752(gp)
 10027d0:	28bf780e 	bge	r5,r2,10025b4 <keyboard_ISR+0x44>
								highlighted_item--;
 10027d4:	d0a00417 	ldw	r2,-32752(gp)
 10027d8:	1485c83a 	sub	r2,r2,r18
 10027dc:	d0a00415 	stw	r2,-32752(gp)
 10027e0:	00000d06 	br	1002818 <keyboard_ISR+0x2a8>
					if (buf[0]==0x29) game_state =  1;
			}

	} else if (game_state == 3){
			//game_state == 3 is LEVEL SELECT
			if (decode_mode == KB_BINARY_MAKE_CODE){
 10027e4:	d0a7e417 	ldw	r2,-24688(gp)
 10027e8:	11005826 	beq	r2,r4,100294c <keyboard_ISR+0x3dc>
					if (buf[0]==0x29){ //SPACE BAR
							game_state = 5;
							printf("Next Screen: %i\n Entering level: %i\n", game_state, highlighted_level);
					}

			} else if (decode_mode == KB_LONG_BINARY_MAKE_CODE) {
 10027ec:	10ff711e 	bne	r2,r3,10025b4 <keyboard_ISR+0x44>
					if (buf[0]==0x74){ //RIGHT ARROW
 10027f0:	d0e7e843 	ldbu	r3,-24671(gp)
 10027f4:	00801d04 	movi	r2,116
 10027f8:	1880a026 	beq	r3,r2,1002a7c <keyboard_ISR+0x50c>
							if (highlighted_level < priviledge){
									highlighted_level++;
									update_highlight();
							}

					} else if (buf[0]==0x6B){ //LEFT ARROW
 10027fc:	00801ac4 	movi	r2,107
 1002800:	18bf6c1e 	bne	r3,r2,10025b4 <keyboard_ISR+0x44>
							if (highlighted_level > 1){
 1002804:	d0a00517 	ldw	r2,-32748(gp)
 1002808:	90bf6a0e 	bge	r18,r2,10025b4 <keyboard_ISR+0x44>
									highlighted_level--;
 100280c:	d0a00517 	ldw	r2,-32748(gp)
 1002810:	10bfffc4 	addi	r2,r2,-1
 1002814:	d0a00515 	stw	r2,-32748(gp)
							alt_up_char_buffer_clear(char_buffer);
							game_state = 1;
					}
			}
	}
}
 1002818:	dfc00317 	ldw	ra,12(sp)
 100281c:	dc800217 	ldw	r18,8(sp)
 1002820:	dc400117 	ldw	r17,4(sp)
 1002824:	dc000017 	ldw	r16,0(sp)
 1002828:	dec00404 	addi	sp,sp,16
							}

					} else if (buf[0]==0x6B){ //LEFT ARROW
							if (highlighted_item > 2){
								highlighted_item--;
								update_highlight();
 100282c:	1001d881 	jmpi	1001d88 <update_highlight>
				if (decode_mode == KB_BINARY_MAKE_CODE){
						if (buf[0]==0x29) game_state =  1;
				}
	} else if (game_state == 7){
				//game_state == 7 is LOSE
				if (decode_mode == KB_BINARY_MAKE_CODE){
 1002830:	d0a7e417 	ldw	r2,-24688(gp)
 1002834:	113f5f1e 	bne	r2,r4,10025b4 <keyboard_ISR+0x44>
						if (buf[0]==0x29) game_state =  1;
 1002838:	d0e7e843 	ldbu	r3,-24671(gp)
 100283c:	00800a44 	movi	r2,41
 1002840:	18bf5c1e 	bne	r3,r2,10025b4 <keyboard_ISR+0x44>
			//game_state == 9 is NAME
			if (decode_mode == KB_BINARY_MAKE_CODE){
					if (buf[0]==0x29) {
						playername[ind] = '\0';
						alt_up_char_buffer_clear(char_buffer);
						game_state = 1;
 1002844:	d4a7d915 	stw	r18,-24732(gp)
 1002848:	003f5a06 	br	10025b4 <keyboard_ISR+0x44>
					}
			}

	} else if (game_state == 4){
		//game_state == 4 is DOGE COLOUR
		if (decode_mode == KB_BINARY_MAKE_CODE){
 100284c:	d0a7e417 	ldw	r2,-24688(gp)
 1002850:	113ff926 	beq	r2,r4,1002838 <keyboard_ISR+0x2c8>
				if (buf[0]==0x29) game_state =  1;
		} else if(decode_mode == KB_ASCII_MAKE_CODE){
 1002854:	14805226 	beq	r2,r18,10029a0 <keyboard_ISR+0x430>
	 			bmp * dog13 = read_bmp("dog13.bmp");
	 			alt_up_char_buffer_string(char_buffer, "dog13.bmp", 0, 31);

	 		}
	 			//A skey
	 		} else if (buf[0]==0x23){ //D key
 1002858:	d0e7e843 	ldbu	r3,-24671(gp)
 100285c:	008008c4 	movi	r2,35
 1002860:	18bf541e 	bne	r3,r2,10025b4 <keyboard_ISR+0x44>


	 			bmp * dog20 = read_bmp("dog20.bmp");
 1002864:	010040b4 	movhi	r4,258
 1002868:	21241604 	addi	r4,r4,-28584
 100286c:	1005f980 	call	1005f98 <read_bmp>
	 			alt_up_char_buffer_string(char_buffer, "dog20.bmp", 0, 28);
 1002870:	d127dd17 	ldw	r4,-24716(gp)
 1002874:	014040b4 	movhi	r5,258
 1002878:	29641604 	addi	r5,r5,-28584
 100287c:	000d883a 	mov	r6,zero
 1002880:	01c00704 	movi	r7,28
 1002884:	10122240 	call	1012224 <alt_up_char_buffer_string>

	 			bmp * dog21 = read_bmp("dog21.bmp");
 1002888:	010040b4 	movhi	r4,258
 100288c:	21241904 	addi	r4,r4,-28572
 1002890:	1005f980 	call	1005f98 <read_bmp>
	 			alt_up_char_buffer_string(char_buffer, "dog21.bmp", 0, 29);
 1002894:	d127dd17 	ldw	r4,-24716(gp)
 1002898:	014040b4 	movhi	r5,258
 100289c:	29641904 	addi	r5,r5,-28572
 10028a0:	000d883a 	mov	r6,zero
 10028a4:	01c00744 	movi	r7,29
 10028a8:	10122240 	call	1012224 <alt_up_char_buffer_string>

	 			bmp * dog22 = read_bmp("dog22.bmp");
 10028ac:	010040b4 	movhi	r4,258
 10028b0:	21241c04 	addi	r4,r4,-28560
 10028b4:	1005f980 	call	1005f98 <read_bmp>
	 			alt_up_char_buffer_string(char_buffer, "dog22.bmp", 0, 30);
 10028b8:	d127dd17 	ldw	r4,-24716(gp)
 10028bc:	014040b4 	movhi	r5,258
 10028c0:	29641c04 	addi	r5,r5,-28560
 10028c4:	000d883a 	mov	r6,zero
 10028c8:	01c00784 	movi	r7,30
 10028cc:	10122240 	call	1012224 <alt_up_char_buffer_string>

	 			bmp * dog23 = read_bmp("dog23.bmp");
 10028d0:	010040b4 	movhi	r4,258
 10028d4:	21241f04 	addi	r4,r4,-28548
 10028d8:	1005f980 	call	1005f98 <read_bmp>
	 			alt_up_char_buffer_string(char_buffer, "dog23.bmp", 0, 31);
 10028dc:	d127dd17 	ldw	r4,-24716(gp)
 10028e0:	014040b4 	movhi	r5,258
 10028e4:	29641f04 	addi	r5,r5,-28548
 10028e8:	000d883a 	mov	r6,zero
 10028ec:	01c007c4 	movi	r7,31
							alt_up_char_buffer_clear(char_buffer);
							game_state = 1;
					}
			}
	}
}
 10028f0:	dfc00317 	ldw	ra,12(sp)
 10028f4:	dc800217 	ldw	r18,8(sp)
 10028f8:	dc400117 	ldw	r17,4(sp)
 10028fc:	dc000017 	ldw	r16,0(sp)
 1002900:	dec00404 	addi	sp,sp,16

	 			bmp * dog22 = read_bmp("dog22.bmp");
	 			alt_up_char_buffer_string(char_buffer, "dog22.bmp", 0, 30);

	 			bmp * dog23 = read_bmp("dog23.bmp");
	 			alt_up_char_buffer_string(char_buffer, "dog23.bmp", 0, 31);
 1002904:	10122241 	jmpi	1012224 <alt_up_char_buffer_string>
				}
			}
	} else if (game_state == 1){
			//game_state == 1 is MAIN MENU
			if (decode_mode == KB_BINARY_MAKE_CODE){
					if (buf[0]==0x29) game_state =  highlighted_item;
 1002908:	d0e7e843 	ldbu	r3,-24671(gp)
 100290c:	00800a44 	movi	r2,41
 1002910:	18bf281e 	bne	r3,r2,10025b4 <keyboard_ISR+0x44>
 1002914:	d0a00417 	ldw	r2,-32752(gp)
 1002918:	d0a7d915 	stw	r2,-24732(gp)
 100291c:	003f2506 	br	10025b4 <keyboard_ISR+0x44>
	 		}

	} else if (game_state == 5){
	 	//printf("ENTER GAME!\n\n");

	 	if (decode_mode == KB_BINARY_MAKE_CODE){
 1002920:	d0a7e417 	ldw	r2,-24688(gp)
 1002924:	11004326 	beq	r2,r4,1002a34 <keyboard_ISR+0x4c4>

				c->jump_pressed = true;
				//TODO: jumpinh
			}
	 	}
		else if(decode_mode == KB_ASCII_MAKE_CODE){
 1002928:	14804726 	beq	r2,r18,1002a48 <keyboard_ISR+0x4d8>
				}else if (buf[0]==0x4B){	//L Key
					printf("ESC\n");
					m->c->collide = 1;
				}
	 	}
		else if(decode_mode == KB_BREAK_CODE){
 100292c:	117f211e 	bne	r2,r5,10025b4 <keyboard_ISR+0x44>
						if (buf[0]==0x29)
 1002930:	d0e7e843 	ldbu	r3,-24671(gp)
 1002934:	00800a44 	movi	r2,41
 1002938:	18806326 	beq	r3,r2,1002ac8 <keyboard_ISR+0x558>
						//c->jump_released = true;
						c->jumping = false;
						if(buf[0] == 0x23 ){
 100293c:	008008c4 	movi	r2,35
 1002940:	18bf1c1e 	bne	r3,r2,10025b4 <keyboard_ISR+0x44>
							c->ducking = false;
 1002944:	80000515 	stw	zero,20(r16)
 1002948:	003f1a06 	br	10025b4 <keyboard_ISR+0x44>
			}

	} else if (game_state == 3){
			//game_state == 3 is LEVEL SELECT
			if (decode_mode == KB_BINARY_MAKE_CODE){
					if (buf[0]==0x29){ //SPACE BAR
 100294c:	d0e7e843 	ldbu	r3,-24671(gp)
 1002950:	00800a44 	movi	r2,41
 1002954:	18bf171e 	bne	r3,r2,10025b4 <keyboard_ISR+0x44>
							game_state = 5;
 1002958:	00800144 	movi	r2,5
 100295c:	d0a7d915 	stw	r2,-24732(gp)
							printf("Next Screen: %i\n Entering level: %i\n", game_state, highlighted_level);
 1002960:	d167d917 	ldw	r5,-24732(gp)
 1002964:	d1a00517 	ldw	r6,-32748(gp)
 1002968:	010040b4 	movhi	r4,258
 100296c:	21240004 	addi	r4,r4,-28672
							alt_up_char_buffer_clear(char_buffer);
							game_state = 1;
					}
			}
	}
}
 1002970:	dfc00317 	ldw	ra,12(sp)
 1002974:	dc800217 	ldw	r18,8(sp)
 1002978:	dc400117 	ldw	r17,4(sp)
 100297c:	dc000017 	ldw	r16,0(sp)
 1002980:	dec00404 	addi	sp,sp,16
	} else if (game_state == 3){
			//game_state == 3 is LEVEL SELECT
			if (decode_mode == KB_BINARY_MAKE_CODE){
					if (buf[0]==0x29){ //SPACE BAR
							game_state = 5;
							printf("Next Screen: %i\n Entering level: %i\n", game_state, highlighted_level);
 1002984:	1006f641 	jmpi	1006f64 <printf>
			if (decode_mode == KB_BINARY_MAKE_CODE){
					if (buf[0]==0x29) game_state =  highlighted_item;

			} else if (decode_mode == KB_LONG_BINARY_MAKE_CODE) {
					if (buf[0]==0x74){ //RIGHT ARROW
							if (highlighted_item < 4){
 1002988:	d0a00417 	ldw	r2,-32752(gp)
 100298c:	18bf0916 	blt	r3,r2,10025b4 <keyboard_ISR+0x44>
								highlighted_item++;
 1002990:	d0a00417 	ldw	r2,-32752(gp)
 1002994:	1485883a 	add	r2,r2,r18
								update_highlight();
							}

					} else if (buf[0]==0x6B){ //LEFT ARROW
							if (highlighted_item > 2){
								highlighted_item--;
 1002998:	d0a00415 	stw	r2,-32752(gp)
 100299c:	003f9e06 	br	1002818 <keyboard_ISR+0x2a8>
	} else if (game_state == 4){
		//game_state == 4 is DOGE COLOUR
		if (decode_mode == KB_BINARY_MAKE_CODE){
				if (buf[0]==0x29) game_state =  1;
		} else if(decode_mode == KB_ASCII_MAKE_CODE){
	 		if(buf[0]==0x1C){
 10029a0:	d427e843 	ldbu	r16,-24671(gp)
 10029a4:	00800704 	movi	r2,28
 10029a8:	80bf021e 	bne	r16,r2,10025b4 <keyboard_ISR+0x44>

	 			bmp * dog10 = read_bmp("dog10.bmp");
 10029ac:	010040b4 	movhi	r4,258
 10029b0:	21240a04 	addi	r4,r4,-28632
 10029b4:	1005f980 	call	1005f98 <read_bmp>
	 			alt_up_char_buffer_string(char_buffer, "dog10.bmp", 0, 28);
 10029b8:	d127dd17 	ldw	r4,-24716(gp)
 10029bc:	800f883a 	mov	r7,r16
 10029c0:	014040b4 	movhi	r5,258
 10029c4:	29640a04 	addi	r5,r5,-28632
 10029c8:	000d883a 	mov	r6,zero
 10029cc:	10122240 	call	1012224 <alt_up_char_buffer_string>

	 			bmp * dog11 = read_bmp("dog11.bmp");
 10029d0:	010040b4 	movhi	r4,258
 10029d4:	21240d04 	addi	r4,r4,-28620
 10029d8:	1005f980 	call	1005f98 <read_bmp>
	 			alt_up_char_buffer_string(char_buffer, "dog11.bmp", 0, 29);
 10029dc:	d127dd17 	ldw	r4,-24716(gp)
 10029e0:	014040b4 	movhi	r5,258
 10029e4:	29640d04 	addi	r5,r5,-28620
 10029e8:	000d883a 	mov	r6,zero
 10029ec:	01c00744 	movi	r7,29
 10029f0:	10122240 	call	1012224 <alt_up_char_buffer_string>

	 			bmp * dog12 = read_bmp("dog12.bmp");
 10029f4:	010040b4 	movhi	r4,258
 10029f8:	21241004 	addi	r4,r4,-28608
 10029fc:	1005f980 	call	1005f98 <read_bmp>
	 			alt_up_char_buffer_string(char_buffer, "dog12.bmp", 0, 30);
 1002a00:	d127dd17 	ldw	r4,-24716(gp)
 1002a04:	014040b4 	movhi	r5,258
 1002a08:	29641004 	addi	r5,r5,-28608
 1002a0c:	000d883a 	mov	r6,zero
 1002a10:	01c00784 	movi	r7,30
 1002a14:	10122240 	call	1012224 <alt_up_char_buffer_string>

	 			bmp * dog13 = read_bmp("dog13.bmp");
 1002a18:	010040b4 	movhi	r4,258
 1002a1c:	21241304 	addi	r4,r4,-28596
 1002a20:	1005f980 	call	1005f98 <read_bmp>
	 			alt_up_char_buffer_string(char_buffer, "dog13.bmp", 0, 31);
 1002a24:	d127dd17 	ldw	r4,-24716(gp)
 1002a28:	014040b4 	movhi	r5,258
 1002a2c:	29641304 	addi	r5,r5,-28596
 1002a30:	003fad06 	br	10028e8 <keyboard_ISR+0x378>

	} else if (game_state == 5){
	 	//printf("ENTER GAME!\n\n");

	 	if (decode_mode == KB_BINARY_MAKE_CODE){
			if (buf[0]==0x29) { //spacebar
 1002a34:	d0e7e843 	ldbu	r3,-24671(gp)
 1002a38:	00800a44 	movi	r2,41
 1002a3c:	18bedd1e 	bne	r3,r2,10025b4 <keyboard_ISR+0x44>

				c->jump_pressed = true;
 1002a40:	84800815 	stw	r18,32(r16)
 1002a44:	003edb06 	br	10025b4 <keyboard_ISR+0x44>
				//TODO: jumpinh
			}
	 	}
		else if(decode_mode == KB_ASCII_MAKE_CODE){
	 		if(buf[0]==0x1C){ //A skey
 1002a48:	d0e7e843 	ldbu	r3,-24671(gp)
 1002a4c:	00800704 	movi	r2,28
 1002a50:	18802026 	beq	r3,r2,1002ad4 <keyboard_ISR+0x564>
				//printf("RSHIFT\n");
				c->color++;
				if(c->color == 2)
					c->color = 0;
				}else if (buf[0]==0x23){ //D key
 1002a54:	008008c4 	movi	r2,35
 1002a58:	18802626 	beq	r3,r2,1002af4 <keyboard_ISR+0x584>
					c->height = 21;
					c->ducking = true;
				}else if (buf[0]==0x4B){	//L Key
 1002a5c:	008012c4 	movi	r2,75
 1002a60:	18bed41e 	bne	r3,r2,10025b4 <keyboard_ISR+0x44>
					printf("ESC\n");
 1002a64:	010040b4 	movhi	r4,258
 1002a68:	21242204 	addi	r4,r4,-28536
 1002a6c:	100707c0 	call	100707c <puts>
					m->c->collide = 1;
 1002a70:	88c00717 	ldw	r3,28(r17)
 1002a74:	1c800615 	stw	r18,24(r3)
 1002a78:	003ece06 	br	10025b4 <keyboard_ISR+0x44>
							printf("Next Screen: %i\n Entering level: %i\n", game_state, highlighted_level);
					}

			} else if (decode_mode == KB_LONG_BINARY_MAKE_CODE) {
					if (buf[0]==0x74){ //RIGHT ARROW
							if (highlighted_level < priviledge){
 1002a7c:	d0e00517 	ldw	r3,-32748(gp)
 1002a80:	d0a00317 	ldw	r2,-32756(gp)
 1002a84:	18becb0e 	bge	r3,r2,10025b4 <keyboard_ISR+0x44>
									highlighted_level++;
 1002a88:	d0a00517 	ldw	r2,-32748(gp)
 1002a8c:	10800044 	addi	r2,r2,1
 1002a90:	d0a00515 	stw	r2,-32748(gp)
 1002a94:	003f6006 	br	1002818 <keyboard_ISR+0x2a8>
				}

	} else if (game_state == 9){
			//game_state == 9 is NAME
			if (decode_mode == KB_BINARY_MAKE_CODE){
					if (buf[0]==0x29) {
 1002a98:	d0e7e843 	ldbu	r3,-24671(gp)
 1002a9c:	00800a44 	movi	r2,41
 1002aa0:	18bec41e 	bne	r3,r2,10025b4 <keyboard_ISR+0x44>
						playername[ind] = '\0';
 1002aa4:	d0a7e017 	ldw	r2,-24704(gp)
 1002aa8:	00c040b4 	movhi	r3,258
 1002aac:	18f79804 	addi	r3,r3,-8608
						alt_up_char_buffer_clear(char_buffer);
 1002ab0:	d127dd17 	ldw	r4,-24716(gp)

	} else if (game_state == 9){
			//game_state == 9 is NAME
			if (decode_mode == KB_BINARY_MAKE_CODE){
					if (buf[0]==0x29) {
						playername[ind] = '\0';
 1002ab4:	10c5883a 	add	r2,r2,r3
 1002ab8:	10000005 	stb	zero,0(r2)
						alt_up_char_buffer_clear(char_buffer);
 1002abc:	10122d80 	call	10122d8 <alt_up_char_buffer_clear>
						game_state = 1;
 1002ac0:	d4a7d915 	stw	r18,-24732(gp)
 1002ac4:	003ebb06 	br	10025b4 <keyboard_ISR+0x44>
				}
	 	}
		else if(decode_mode == KB_BREAK_CODE){
						if (buf[0]==0x29)
						//c->jump_released = true;
						c->jumping = false;
 1002ac8:	80000415 	stw	zero,16(r16)
 1002acc:	d0e7e843 	ldbu	r3,-24671(gp)
 1002ad0:	003f9a06 	br	100293c <keyboard_ISR+0x3cc>
			}
	 	}
		else if(decode_mode == KB_ASCII_MAKE_CODE){
	 		if(buf[0]==0x1C){ //A skey
				//printf("RSHIFT\n");
				c->color++;
 1002ad4:	80800f17 	ldw	r2,60(r16)
 1002ad8:	10800044 	addi	r2,r2,1
 1002adc:	80800f15 	stw	r2,60(r16)
				if(c->color == 2)
 1002ae0:	113eb41e 	bne	r2,r4,10025b4 <keyboard_ISR+0x44>
					c->color = 0;
 1002ae4:	80000f15 	stw	zero,60(r16)
 1002ae8:	003eb206 	br	10025b4 <keyboard_ISR+0x44>
			}
	}
}

char decode(short int buffer){
	if (buffer == 0x1C){
 1002aec:	01401844 	movi	r5,97
 1002af0:	003f0806 	br	1002714 <keyboard_ISR+0x1a4>
				//printf("RSHIFT\n");
				c->color++;
				if(c->color == 2)
					c->color = 0;
				}else if (buf[0]==0x23){ //D key
					c->height = 21;
 1002af4:	00800544 	movi	r2,21
					c->ducking = true;
 1002af8:	84800515 	stw	r18,20(r16)
				//printf("RSHIFT\n");
				c->color++;
				if(c->color == 2)
					c->color = 0;
				}else if (buf[0]==0x23){ //D key
					c->height = 21;
 1002afc:	80800315 	stw	r2,12(r16)
 1002b00:	003eac06 	br	10025b4 <keyboard_ISR+0x44>
}

char decode(short int buffer){
	if (buffer == 0x1C){
		return 'a';
	} else if (buffer == 0x32){
 1002b04:	01401884 	movi	r5,98
 1002b08:	003f0206 	br	1002714 <keyboard_ISR+0x1a4>
		return 'b';
	} else if (buffer == 0x21){
 1002b0c:	014018c4 	movi	r5,99
 1002b10:	003f0006 	br	1002714 <keyboard_ISR+0x1a4>
		return 'c';
	} else if (buffer == 0x23){
 1002b14:	01401904 	movi	r5,100
 1002b18:	003efe06 	br	1002714 <keyboard_ISR+0x1a4>
		return 'd';
	} else if (buffer == 0x24){
 1002b1c:	01401944 	movi	r5,101
 1002b20:	003efc06 	br	1002714 <keyboard_ISR+0x1a4>
		return 'e';
	} else if (buffer == 0x2B){
 1002b24:	01401984 	movi	r5,102
 1002b28:	003efa06 	br	1002714 <keyboard_ISR+0x1a4>
		return 'f';
	} else if (buffer == 0x34){
 1002b2c:	014019c4 	movi	r5,103
 1002b30:	003ef806 	br	1002714 <keyboard_ISR+0x1a4>
		return 'g';
	} else if (buffer == 0x33){
 1002b34:	01401a04 	movi	r5,104
 1002b38:	003ef606 	br	1002714 <keyboard_ISR+0x1a4>
		return 'h';
	} else if (buffer == 0x43){
 1002b3c:	01401a44 	movi	r5,105
 1002b40:	003ef406 	br	1002714 <keyboard_ISR+0x1a4>
		return 'i';
	} else if (buffer == 0x3B){
		return 'j';
	} else if (buffer == 0x42){
 1002b44:	01401ac4 	movi	r5,107
 1002b48:	003ef206 	br	1002714 <keyboard_ISR+0x1a4>
		return 'g';
	} else if (buffer == 0x33){
		return 'h';
	} else if (buffer == 0x43){
		return 'i';
	} else if (buffer == 0x3B){
 1002b4c:	01401a84 	movi	r5,106
 1002b50:	003ef006 	br	1002714 <keyboard_ISR+0x1a4>
		return 'w';
	} else if (buffer == 0x22){
		return 'x';
	} else if (buffer == 0x35){
		return 'y';
	} else if (buffer == 0x1A){
 1002b54:	01401e84 	movi	r5,122
 1002b58:	003eee06 	br	1002714 <keyboard_ISR+0x1a4>
		return 'v';
	} else if (buffer == 0x1D){
		return 'w';
	} else if (buffer == 0x22){
		return 'x';
	} else if (buffer == 0x35){
 1002b5c:	01401e44 	movi	r5,121
 1002b60:	003eec06 	br	1002714 <keyboard_ISR+0x1a4>
		return 'u';
	} else if (buffer == 0x2A){
		return 'v';
	} else if (buffer == 0x1D){
		return 'w';
	} else if (buffer == 0x22){
 1002b64:	01401e04 	movi	r5,120
 1002b68:	003eea06 	br	1002714 <keyboard_ISR+0x1a4>
		return 'l';
	} else if (buffer == 0x3A){
		return 'm';
	} else if (buffer == 0x31){
		return 'n';
	} else if (buffer == 0x44){
 1002b6c:	01401bc4 	movi	r5,111
 1002b70:	003ee806 	br	1002714 <keyboard_ISR+0x1a4>
		return 'k';
	} else if (buffer == 0x4B){
		return 'l';
	} else if (buffer == 0x3A){
		return 'm';
	} else if (buffer == 0x31){
 1002b74:	01401b84 	movi	r5,110
 1002b78:	003ee606 	br	1002714 <keyboard_ISR+0x1a4>
		return 'j';
	} else if (buffer == 0x42){
		return 'k';
	} else if (buffer == 0x4B){
		return 'l';
	} else if (buffer == 0x3A){
 1002b7c:	01401b44 	movi	r5,109
 1002b80:	003ee406 	br	1002714 <keyboard_ISR+0x1a4>
		return 'i';
	} else if (buffer == 0x3B){
		return 'j';
	} else if (buffer == 0x42){
		return 'k';
	} else if (buffer == 0x4B){
 1002b84:	01401b04 	movi	r5,108
 1002b88:	003ee206 	br	1002714 <keyboard_ISR+0x1a4>
		return 't';
	} else if (buffer == 0x3C){
		return 'u';
	} else if (buffer == 0x2A){
		return 'v';
	} else if (buffer == 0x1D){
 1002b8c:	01401dc4 	movi	r5,119
 1002b90:	003ee006 	br	1002714 <keyboard_ISR+0x1a4>
		return 's';
	} else if (buffer == 0x2C){
		return 't';
	} else if (buffer == 0x3C){
		return 'u';
	} else if (buffer == 0x2A){
 1002b94:	01401d84 	movi	r5,118
 1002b98:	003ede06 	br	1002714 <keyboard_ISR+0x1a4>
		return 'r';
	} else if (buffer == 0x1B){
		return 's';
	} else if (buffer == 0x2C){
		return 't';
	} else if (buffer == 0x3C){
 1002b9c:	01401d44 	movi	r5,117
 1002ba0:	003edc06 	br	1002714 <keyboard_ISR+0x1a4>
		return 'q';
	} else if (buffer == 0x2D){
		return 'r';
	} else if (buffer == 0x1B){
		return 's';
	} else if (buffer == 0x2C){
 1002ba4:	01401d04 	movi	r5,116
 1002ba8:	003eda06 	br	1002714 <keyboard_ISR+0x1a4>
		return 'p';
	} else if (buffer == 0x15){
		return 'q';
	} else if (buffer == 0x2D){
		return 'r';
	} else if (buffer == 0x1B){
 1002bac:	01401cc4 	movi	r5,115
 1002bb0:	003ed806 	br	1002714 <keyboard_ISR+0x1a4>
		return 'o';
	} else if (buffer == 0x4D){
		return 'p';
	} else if (buffer == 0x15){
		return 'q';
	} else if (buffer == 0x2D){
 1002bb4:	01401c84 	movi	r5,114
 1002bb8:	003ed606 	br	1002714 <keyboard_ISR+0x1a4>
		return 'n';
	} else if (buffer == 0x44){
		return 'o';
	} else if (buffer == 0x4D){
		return 'p';
	} else if (buffer == 0x15){
 1002bbc:	01401c44 	movi	r5,113
 1002bc0:	003ed406 	br	1002714 <keyboard_ISR+0x1a4>
		return 'm';
	} else if (buffer == 0x31){
		return 'n';
	} else if (buffer == 0x44){
		return 'o';
	} else if (buffer == 0x4D){
 1002bc4:	01401c04 	movi	r5,112
 1002bc8:	003ed206 	br	1002714 <keyboard_ISR+0x1a4>

01002bcc <handle_timer_interrupts>:
	}

	return 0;
}

void handle_timer_interrupts(){ //Interrupt for when hardware timer counts to zero
 1002bcc:	d1a00017 	ldw	r6,-32768(gp)
 1002bd0:	deffff04 	addi	sp,sp,-4
 1002bd4:	dc000015 	stw	r16,0(sp)
 1002bd8:	02c040b4 	movhi	r11,258
 1002bdc:	5af79b04 	addi	r11,r11,-8596
 1002be0:	028040b4 	movhi	r10,258
 1002be4:	52b83d04 	addi	r10,r10,-7948
 1002be8:	024040b4 	movhi	r9,258
 1002bec:	4a77ec04 	addi	r9,r9,-8272
 1002bf0:	020040b4 	movhi	r8,258
 1002bf4:	4236a504 	addi	r8,r8,-9580
 1002bf8:	01c040b4 	movhi	r7,258
 1002bfc:	39f6f604 	addi	r7,r7,-9256
 1002c00:	0019883a 	mov	r12,zero
 1002c04:	03c05504 	movi	r15,340
 1002c08:	03400044 	movi	r13,1
 1002c0c:	03800084 	movi	r14,2
 1002c10:	043fffc4 	movi	r16,-1
 1002c14:	00003d06 	br	1002d0c <handle_timer_interrupts+0x140>

		else if((319 - box->x[num]) <= box->length[num])
			{
				box->temp_length[num] = 319 - box->x[num];
				draw[num] = 0;
				box->x[num] -= speed;
 1002c18:	1985c83a 	sub	r2,r3,r6
				box->x[num] -= speed;
			}

		else if((319 - box->x[num]) <= box->length[num])
			{
				box->temp_length[num] = 319 - box->x[num];
 1002c1c:	59003215 	stw	r4,200(r11)
				draw[num] = 0;
				box->x[num] -= speed;
 1002c20:	58800a15 	stw	r2,40(r11)
			}

		else if((319 - box->x[num]) <= box->length[num])
			{
				box->temp_length[num] = 319 - box->x[num];
				draw[num] = 0;
 1002c24:	58003d15 	stw	zero,244(r11)

void update_object( object* box, int num ){

	int* draw = box->draw;

	if(box->x[num] == 340) return;
 1002c28:	38c00a17 	ldw	r3,40(r7)
 1002c2c:	01405504 	movi	r5,340
 1002c30:	19400926 	beq	r3,r5,1002c58 <handle_timer_interrupts+0x8c>

	if(box->x[num] == 319 )
 1002c34:	01004fc4 	movi	r4,319
 1002c38:	19007526 	beq	r3,r4,1002e10 <handle_timer_interrupts+0x244>
			{
				draw[num] = 1;
				box->x[num] -= speed;
			}

		else if((319 - box->x[num]) <= box->length[num])
 1002c3c:	38801417 	ldw	r2,80(r7)
 1002c40:	20c9c83a 	sub	r4,r4,r3
 1002c44:	11005616 	blt	r2,r4,1002da0 <handle_timer_interrupts+0x1d4>
			{
				box->temp_length[num] = 319 - box->x[num];
				draw[num] = 0;
				box->x[num] -= speed;
 1002c48:	1985c83a 	sub	r2,r3,r6
				box->x[num] -= speed;
			}

		else if((319 - box->x[num]) <= box->length[num])
			{
				box->temp_length[num] = 319 - box->x[num];
 1002c4c:	39003215 	stw	r4,200(r7)
				draw[num] = 0;
				box->x[num] -= speed;
 1002c50:	38800a15 	stw	r2,40(r7)
			}

		else if((319 - box->x[num]) <= box->length[num])
			{
				box->temp_length[num] = 319 - box->x[num];
				draw[num] = 0;
 1002c54:	38003d15 	stw	zero,244(r7)

void update_object( object* box, int num ){

	int* draw = box->draw;

	if(box->x[num] == 340) return;
 1002c58:	40c00a17 	ldw	r3,40(r8)
 1002c5c:	01405504 	movi	r5,340
 1002c60:	19400926 	beq	r3,r5,1002c88 <handle_timer_interrupts+0xbc>

	if(box->x[num] == 319 )
 1002c64:	01004fc4 	movi	r4,319
 1002c68:	19006d26 	beq	r3,r4,1002e20 <handle_timer_interrupts+0x254>
			{
				draw[num] = 1;
				box->x[num] -= speed;
			}

		else if((319 - box->x[num]) <= box->length[num])
 1002c6c:	40801417 	ldw	r2,80(r8)
 1002c70:	20c9c83a 	sub	r4,r4,r3
 1002c74:	11004016 	blt	r2,r4,1002d78 <handle_timer_interrupts+0x1ac>
			{
				box->temp_length[num] = 319 - box->x[num];
				draw[num] = 0;
				box->x[num] -= speed;
 1002c78:	1985c83a 	sub	r2,r3,r6
				box->x[num] -= speed;
			}

		else if((319 - box->x[num]) <= box->length[num])
			{
				box->temp_length[num] = 319 - box->x[num];
 1002c7c:	41003215 	stw	r4,200(r8)
				draw[num] = 0;
				box->x[num] -= speed;
 1002c80:	40800a15 	stw	r2,40(r8)
			}

		else if((319 - box->x[num]) <= box->length[num])
			{
				box->temp_length[num] = 319 - box->x[num];
				draw[num] = 0;
 1002c84:	40003d15 	stw	zero,244(r8)

void update_object( object* box, int num ){

	int* draw = box->draw;

	if(box->x[num] == 340) return;
 1002c88:	48c00a17 	ldw	r3,40(r9)
 1002c8c:	01405504 	movi	r5,340
 1002c90:	19400926 	beq	r3,r5,1002cb8 <handle_timer_interrupts+0xec>

	if(box->x[num] == 319 )
 1002c94:	01004fc4 	movi	r4,319
 1002c98:	19006526 	beq	r3,r4,1002e30 <handle_timer_interrupts+0x264>
			{
				draw[num] = 1;
				box->x[num] -= speed;
			}

		else if((319 - box->x[num]) <= box->length[num])
 1002c9c:	48801417 	ldw	r2,80(r9)
 1002ca0:	20c9c83a 	sub	r4,r4,r3
 1002ca4:	11004816 	blt	r2,r4,1002dc8 <handle_timer_interrupts+0x1fc>
			{
				box->temp_length[num] = 319 - box->x[num];
				draw[num] = 0;
				box->x[num] -= speed;
 1002ca8:	1985c83a 	sub	r2,r3,r6
				box->x[num] -= speed;
			}

		else if((319 - box->x[num]) <= box->length[num])
			{
				box->temp_length[num] = 319 - box->x[num];
 1002cac:	49003215 	stw	r4,200(r9)
				draw[num] = 0;
				box->x[num] -= speed;
 1002cb0:	48800a15 	stw	r2,40(r9)
			}

		else if((319 - box->x[num]) <= box->length[num])
			{
				box->temp_length[num] = 319 - box->x[num];
				draw[num] = 0;
 1002cb4:	48003d15 	stw	zero,244(r9)

void update_object( object* box, int num ){

	int* draw = box->draw;

	if(box->x[num] == 340) return;
 1002cb8:	50c00a17 	ldw	r3,40(r10)
 1002cbc:	01405504 	movi	r5,340
 1002cc0:	19400926 	beq	r3,r5,1002ce8 <handle_timer_interrupts+0x11c>

	if(box->x[num] == 319 )
 1002cc4:	01004fc4 	movi	r4,319
 1002cc8:	19004926 	beq	r3,r4,1002df0 <handle_timer_interrupts+0x224>
			{
				draw[num] = 1;
				box->x[num] -= speed;
			}

		else if((319 - box->x[num]) <= box->length[num])
 1002ccc:	50801417 	ldw	r2,80(r10)
 1002cd0:	20c9c83a 	sub	r4,r4,r3
 1002cd4:	11001e16 	blt	r2,r4,1002d50 <handle_timer_interrupts+0x184>
			{
				box->temp_length[num] = 319 - box->x[num];
				draw[num] = 0;
				box->x[num] -= speed;
 1002cd8:	1985c83a 	sub	r2,r3,r6
				box->x[num] -= speed;
			}

		else if((319 - box->x[num]) <= box->length[num])
			{
				box->temp_length[num] = 319 - box->x[num];
 1002cdc:	51003215 	stw	r4,200(r10)
				draw[num] = 0;
				box->x[num] -= speed;
 1002ce0:	50800a15 	stw	r2,40(r10)
			}

		else if((319 - box->x[num]) <= box->length[num])
			{
				box->temp_length[num] = 319 - box->x[num];
				draw[num] = 0;
 1002ce4:	50003d15 	stw	zero,244(r10)
	int i; for( i = 0 ;  i < OBJECT_SIZE ;i++ ) {
 1002ce8:	63000044 	addi	r12,r12,1
 1002cec:	00800284 	movi	r2,10
 1002cf0:	5ac00104 	addi	r11,r11,4
 1002cf4:	52800104 	addi	r10,r10,4
 1002cf8:	4a400104 	addi	r9,r9,4
 1002cfc:	42000104 	addi	r8,r8,4
 1002d00:	39c00104 	addi	r7,r7,4
 1002d04:	01400044 	movi	r5,1
 1002d08:	60806626 	beq	r12,r2,1002ea4 <handle_timer_interrupts+0x2d8>

void update_object( object* box, int num ){

	int* draw = box->draw;

	if(box->x[num] == 340) return;
 1002d0c:	58c00a17 	ldw	r3,40(r11)
 1002d10:	1bffc526 	beq	r3,r15,1002c28 <handle_timer_interrupts+0x5c>

	if(box->x[num] == 319 )
 1002d14:	01004fc4 	movi	r4,319
 1002d18:	19003926 	beq	r3,r4,1002e00 <handle_timer_interrupts+0x234>
			{
				draw[num] = 1;
				box->x[num] -= speed;
			}

		else if((319 - box->x[num]) <= box->length[num])
 1002d1c:	58801417 	ldw	r2,80(r11)
 1002d20:	20c9c83a 	sub	r4,r4,r3
 1002d24:	113fbc0e 	bge	r2,r4,1002c18 <handle_timer_interrupts+0x4c>
			{
				box->temp_length[num] = 319 - box->x[num];
				draw[num] = 0;
				box->x[num] -= speed;
			}
		else if( box->x[num] <= 2)
 1002d28:	70c05416 	blt	r14,r3,1002e7c <handle_timer_interrupts+0x2b0>
		{

			if( box->temp_length[num] <= 0)
 1002d2c:	58c03217 	ldw	r3,200(r11)
 1002d30:	00c0960e 	bge	zero,r3,1002f8c <handle_timer_interrupts+0x3c0>
			}
			else
			{
				box->temp_length[num] -= speed;
				draw[num] = 0;
				box->dec[num] +=1;
 1002d34:	58804717 	ldw	r2,284(r11)
				box->temp_length[num] = -1;
				draw[num] = 1;
			}
			else
			{
				box->temp_length[num] -= speed;
 1002d38:	1987c83a 	sub	r3,r3,r6
 1002d3c:	58c03215 	stw	r3,200(r11)
				draw[num] = 0;
				box->dec[num] +=1;
 1002d40:	10800044 	addi	r2,r2,1
 1002d44:	58804715 	stw	r2,284(r11)
				draw[num] = 1;
			}
			else
			{
				box->temp_length[num] -= speed;
				draw[num] = 0;
 1002d48:	58003d15 	stw	zero,244(r11)
 1002d4c:	003fb606 	br	1002c28 <handle_timer_interrupts+0x5c>
			{
				box->temp_length[num] = 319 - box->x[num];
				draw[num] = 0;
				box->x[num] -= speed;
			}
		else if( box->x[num] <= 2)
 1002d50:	70c03b16 	blt	r14,r3,1002e40 <handle_timer_interrupts+0x274>
		{

			if( box->temp_length[num] <= 0)
 1002d54:	50c03217 	ldw	r3,200(r10)
 1002d58:	00c0880e 	bge	zero,r3,1002f7c <handle_timer_interrupts+0x3b0>
			}
			else
			{
				box->temp_length[num] -= speed;
				draw[num] = 0;
				box->dec[num] +=1;
 1002d5c:	50804717 	ldw	r2,284(r10)
				box->temp_length[num] = -1;
				draw[num] = 1;
			}
			else
			{
				box->temp_length[num] -= speed;
 1002d60:	1987c83a 	sub	r3,r3,r6
 1002d64:	50c03215 	stw	r3,200(r10)
				draw[num] = 0;
				box->dec[num] +=1;
 1002d68:	10800044 	addi	r2,r2,1
 1002d6c:	50804715 	stw	r2,284(r10)
				draw[num] = 1;
			}
			else
			{
				box->temp_length[num] -= speed;
				draw[num] = 0;
 1002d70:	50003d15 	stw	zero,244(r10)
 1002d74:	003fdc06 	br	1002ce8 <handle_timer_interrupts+0x11c>
			{
				box->temp_length[num] = 319 - box->x[num];
				draw[num] = 0;
				box->x[num] -= speed;
			}
		else if( box->x[num] <= 2)
 1002d78:	70c03b16 	blt	r14,r3,1002e68 <handle_timer_interrupts+0x29c>
		{

			if( box->temp_length[num] <= 0)
 1002d7c:	40c03217 	ldw	r3,200(r8)
 1002d80:	00c07a0e 	bge	zero,r3,1002f6c <handle_timer_interrupts+0x3a0>
			}
			else
			{
				box->temp_length[num] -= speed;
				draw[num] = 0;
				box->dec[num] +=1;
 1002d84:	40804717 	ldw	r2,284(r8)
				box->temp_length[num] = -1;
				draw[num] = 1;
			}
			else
			{
				box->temp_length[num] -= speed;
 1002d88:	1987c83a 	sub	r3,r3,r6
 1002d8c:	40c03215 	stw	r3,200(r8)
				draw[num] = 0;
				box->dec[num] +=1;
 1002d90:	10800044 	addi	r2,r2,1
 1002d94:	40804715 	stw	r2,284(r8)
				draw[num] = 1;
			}
			else
			{
				box->temp_length[num] -= speed;
				draw[num] = 0;
 1002d98:	40003d15 	stw	zero,244(r8)
 1002d9c:	003fba06 	br	1002c88 <handle_timer_interrupts+0xbc>
			{
				box->temp_length[num] = 319 - box->x[num];
				draw[num] = 0;
				box->x[num] -= speed;
			}
		else if( box->x[num] <= 2)
 1002da0:	70c02c16 	blt	r14,r3,1002e54 <handle_timer_interrupts+0x288>
		{

			if( box->temp_length[num] <= 0)
 1002da4:	38c03217 	ldw	r3,200(r7)
 1002da8:	00c06c0e 	bge	zero,r3,1002f5c <handle_timer_interrupts+0x390>
			}
			else
			{
				box->temp_length[num] -= speed;
				draw[num] = 0;
				box->dec[num] +=1;
 1002dac:	38804717 	ldw	r2,284(r7)
				box->temp_length[num] = -1;
				draw[num] = 1;
			}
			else
			{
				box->temp_length[num] -= speed;
 1002db0:	1987c83a 	sub	r3,r3,r6
 1002db4:	38c03215 	stw	r3,200(r7)
				draw[num] = 0;
				box->dec[num] +=1;
 1002db8:	10800044 	addi	r2,r2,1
 1002dbc:	38804715 	stw	r2,284(r7)
				draw[num] = 1;
			}
			else
			{
				box->temp_length[num] -= speed;
				draw[num] = 0;
 1002dc0:	38003d15 	stw	zero,244(r7)
 1002dc4:	003fa406 	br	1002c58 <handle_timer_interrupts+0x8c>
			{
				box->temp_length[num] = 319 - box->x[num];
				draw[num] = 0;
				box->x[num] -= speed;
			}
		else if( box->x[num] <= 2)
 1002dc8:	70c03116 	blt	r14,r3,1002e90 <handle_timer_interrupts+0x2c4>
		{

			if( box->temp_length[num] <= 0)
 1002dcc:	48c03217 	ldw	r3,200(r9)
 1002dd0:	00c05e0e 	bge	zero,r3,1002f4c <handle_timer_interrupts+0x380>
			}
			else
			{
				box->temp_length[num] -= speed;
				draw[num] = 0;
				box->dec[num] +=1;
 1002dd4:	48804717 	ldw	r2,284(r9)
				box->temp_length[num] = -1;
				draw[num] = 1;
			}
			else
			{
				box->temp_length[num] -= speed;
 1002dd8:	1987c83a 	sub	r3,r3,r6
 1002ddc:	48c03215 	stw	r3,200(r9)
				draw[num] = 0;
				box->dec[num] +=1;
 1002de0:	10800044 	addi	r2,r2,1
 1002de4:	48804715 	stw	r2,284(r9)
				draw[num] = 1;
			}
			else
			{
				box->temp_length[num] -= speed;
				draw[num] = 0;
 1002de8:	48003d15 	stw	zero,244(r9)
 1002dec:	003fb206 	br	1002cb8 <handle_timer_interrupts+0xec>
	if(box->x[num] == 340) return;

	if(box->x[num] == 319 )
			{
				draw[num] = 1;
				box->x[num] -= speed;
 1002df0:	1985c83a 	sub	r2,r3,r6
 1002df4:	50800a15 	stw	r2,40(r10)

	if(box->x[num] == 340) return;

	if(box->x[num] == 319 )
			{
				draw[num] = 1;
 1002df8:	53403d15 	stw	r13,244(r10)
 1002dfc:	003fba06 	br	1002ce8 <handle_timer_interrupts+0x11c>
				box->x[num] -= speed;
 1002e00:	1985c83a 	sub	r2,r3,r6
 1002e04:	58800a15 	stw	r2,40(r11)

	if(box->x[num] == 340) return;

	if(box->x[num] == 319 )
			{
				draw[num] = 1;
 1002e08:	5b403d15 	stw	r13,244(r11)
 1002e0c:	003f8606 	br	1002c28 <handle_timer_interrupts+0x5c>
				box->x[num] -= speed;
 1002e10:	1985c83a 	sub	r2,r3,r6
 1002e14:	38800a15 	stw	r2,40(r7)

	if(box->x[num] == 340) return;

	if(box->x[num] == 319 )
			{
				draw[num] = 1;
 1002e18:	3b403d15 	stw	r13,244(r7)
 1002e1c:	003f8e06 	br	1002c58 <handle_timer_interrupts+0x8c>
				box->x[num] -= speed;
 1002e20:	1985c83a 	sub	r2,r3,r6
 1002e24:	40800a15 	stw	r2,40(r8)

	if(box->x[num] == 340) return;

	if(box->x[num] == 319 )
			{
				draw[num] = 1;
 1002e28:	43403d15 	stw	r13,244(r8)
 1002e2c:	003f9606 	br	1002c88 <handle_timer_interrupts+0xbc>
				box->x[num] -= speed;
 1002e30:	1985c83a 	sub	r2,r3,r6
 1002e34:	48800a15 	stw	r2,40(r9)

	if(box->x[num] == 340) return;

	if(box->x[num] == 319 )
			{
				draw[num] = 1;
 1002e38:	4b403d15 	stw	r13,244(r9)
 1002e3c:	003f9e06 	br	1002cb8 <handle_timer_interrupts+0xec>
		}

		else
		{
			//box.temp_length = box.length;
			box->x[num] -= speed;
 1002e40:	1985c83a 	sub	r2,r3,r6
 1002e44:	50800a15 	stw	r2,40(r10)
			draw[num] = 0;
 1002e48:	50003d15 	stw	zero,244(r10)
			box->dec[num] = 0;
 1002e4c:	50004715 	stw	zero,284(r10)
 1002e50:	003fa506 	br	1002ce8 <handle_timer_interrupts+0x11c>
		}

		else
		{
			//box.temp_length = box.length;
			box->x[num] -= speed;
 1002e54:	1985c83a 	sub	r2,r3,r6
 1002e58:	38800a15 	stw	r2,40(r7)
			draw[num] = 0;
 1002e5c:	38003d15 	stw	zero,244(r7)
			box->dec[num] = 0;
 1002e60:	38004715 	stw	zero,284(r7)
 1002e64:	003f7c06 	br	1002c58 <handle_timer_interrupts+0x8c>
		}

		else
		{
			//box.temp_length = box.length;
			box->x[num] -= speed;
 1002e68:	1985c83a 	sub	r2,r3,r6
 1002e6c:	40800a15 	stw	r2,40(r8)
			draw[num] = 0;
 1002e70:	40003d15 	stw	zero,244(r8)
			box->dec[num] = 0;
 1002e74:	40004715 	stw	zero,284(r8)
 1002e78:	003f8306 	br	1002c88 <handle_timer_interrupts+0xbc>
		}

		else
		{
			//box.temp_length = box.length;
			box->x[num] -= speed;
 1002e7c:	1985c83a 	sub	r2,r3,r6
 1002e80:	58800a15 	stw	r2,40(r11)
			draw[num] = 0;
 1002e84:	58003d15 	stw	zero,244(r11)
			box->dec[num] = 0;
 1002e88:	58004715 	stw	zero,284(r11)
 1002e8c:	003f6606 	br	1002c28 <handle_timer_interrupts+0x5c>
		}

		else
		{
			//box.temp_length = box.length;
			box->x[num] -= speed;
 1002e90:	1985c83a 	sub	r2,r3,r6
 1002e94:	48800a15 	stw	r2,40(r9)
			draw[num] = 0;
 1002e98:	48003d15 	stw	zero,244(r9)
			box->dec[num] = 0;
 1002e9c:	48004715 	stw	zero,284(r9)
 1002ea0:	003f8506 	br	1002cb8 <handle_timer_interrupts+0xec>

void update_object( object* box, int num ){

	int* draw = box->draw;

	if(box->x[num] == 340) return;
 1002ea4:	018040b4 	movhi	r6,258
 1002ea8:	31b74704 	addi	r6,r6,-8932
 1002eac:	30c00a17 	ldw	r3,40(r6)
 1002eb0:	01c05504 	movi	r7,340
 1002eb4:	19c01026 	beq	r3,r7,1002ef8 <handle_timer_interrupts+0x32c>

	if(box->x[num] == 319 )
 1002eb8:	01004fc4 	movi	r4,319
 1002ebc:	19003726 	beq	r3,r4,1002f9c <handle_timer_interrupts+0x3d0>
			{
				draw[num] = 1;
				box->x[num] -= speed;
			}

		else if((319 - box->x[num]) <= box->length[num])
 1002ec0:	30801417 	ldw	r2,80(r6)
 1002ec4:	20c9c83a 	sub	r4,r4,r3
 1002ec8:	1100130e 	bge	r2,r4,1002f18 <handle_timer_interrupts+0x34c>
			{
				box->temp_length[num] = 319 - box->x[num];
				draw[num] = 0;
				box->x[num] -= speed;
			}
		else if( box->x[num] <= 2)
 1002ecc:	00800084 	movi	r2,2
 1002ed0:	10c03e16 	blt	r2,r3,1002fcc <handle_timer_interrupts+0x400>
		{

			if( box->temp_length[num] <= 0)
 1002ed4:	31003217 	ldw	r4,200(r6)
 1002ed8:	0100490e 	bge	zero,r4,1003000 <handle_timer_interrupts+0x434>
			}
			else
			{
				box->temp_length[num] -= speed;
				draw[num] = 0;
				box->dec[num] +=1;
 1002edc:	30c04717 	ldw	r3,284(r6)
				box->temp_length[num] = -1;
				draw[num] = 1;
			}
			else
			{
				box->temp_length[num] -= speed;
 1002ee0:	d0a00017 	ldw	r2,-32768(gp)
				draw[num] = 0;
 1002ee4:	30003d15 	stw	zero,244(r6)
				box->dec[num] +=1;
 1002ee8:	18c00044 	addi	r3,r3,1
				box->temp_length[num] = -1;
				draw[num] = 1;
			}
			else
			{
				box->temp_length[num] -= speed;
 1002eec:	2085c83a 	sub	r2,r4,r2
				draw[num] = 0;
				box->dec[num] +=1;
 1002ef0:	30c04715 	stw	r3,284(r6)
				box->temp_length[num] = -1;
				draw[num] = 1;
			}
			else
			{
				box->temp_length[num] -= speed;
 1002ef4:	30803215 	stw	r2,200(r6)
		update_object(&box_3 , i);
		update_object(&box_1, i );
	}
	update_object(&flag,0);//update winning flag

	IOWR_16DIRECT(TIMER_0_BASE,0,0); //needed to show that interrupt finished executing
 1002ef8:	00910804 	movi	r2,17440
 1002efc:	1000002d 	sthio	zero,0(r2)
	IOWR_16DIRECT(TIMER_0_BASE,4,0x5); //restarts the hardware timer before exiting the isr
 1002f00:	00c00144 	movi	r3,5
 1002f04:	00910904 	movi	r2,17444
 1002f08:	10c0002d 	sthio	r3,0(r2)
	return;
}
 1002f0c:	dc000017 	ldw	r16,0(sp)
 1002f10:	dec00104 	addi	sp,sp,4
 1002f14:	f800283a 	ret

		else if((319 - box->x[num]) <= box->length[num])
			{
				box->temp_length[num] = 319 - box->x[num];
				draw[num] = 0;
				box->x[num] -= speed;
 1002f18:	d0a00017 	ldw	r2,-32768(gp)
				box->x[num] -= speed;
			}

		else if((319 - box->x[num]) <= box->length[num])
			{
				box->temp_length[num] = 319 - box->x[num];
 1002f1c:	31003215 	stw	r4,200(r6)
				draw[num] = 0;
 1002f20:	30003d15 	stw	zero,244(r6)
				box->x[num] -= speed;
 1002f24:	1885c83a 	sub	r2,r3,r2
 1002f28:	30800a15 	stw	r2,40(r6)
		update_object(&box_3 , i);
		update_object(&box_1, i );
	}
	update_object(&flag,0);//update winning flag

	IOWR_16DIRECT(TIMER_0_BASE,0,0); //needed to show that interrupt finished executing
 1002f2c:	00910804 	movi	r2,17440
 1002f30:	1000002d 	sthio	zero,0(r2)
	IOWR_16DIRECT(TIMER_0_BASE,4,0x5); //restarts the hardware timer before exiting the isr
 1002f34:	00c00144 	movi	r3,5
 1002f38:	00910904 	movi	r2,17444
 1002f3c:	10c0002d 	sthio	r3,0(r2)
	return;
}
 1002f40:	dc000017 	ldw	r16,0(sp)
 1002f44:	dec00104 	addi	sp,sp,4
 1002f48:	f800283a 	ret
		else if( box->x[num] <= 2)
		{

			if( box->temp_length[num] <= 0)
			{
				box->x[num] = 340;
 1002f4c:	49400a15 	stw	r5,40(r9)
				box->temp_length[num] = -1;
 1002f50:	4c003215 	stw	r16,200(r9)
				draw[num] = 1;
 1002f54:	4b403d15 	stw	r13,244(r9)
 1002f58:	003f5706 	br	1002cb8 <handle_timer_interrupts+0xec>
		else if( box->x[num] <= 2)
		{

			if( box->temp_length[num] <= 0)
			{
				box->x[num] = 340;
 1002f5c:	39400a15 	stw	r5,40(r7)
				box->temp_length[num] = -1;
 1002f60:	3c003215 	stw	r16,200(r7)
				draw[num] = 1;
 1002f64:	3b403d15 	stw	r13,244(r7)
 1002f68:	003f3b06 	br	1002c58 <handle_timer_interrupts+0x8c>
		else if( box->x[num] <= 2)
		{

			if( box->temp_length[num] <= 0)
			{
				box->x[num] = 340;
 1002f6c:	41400a15 	stw	r5,40(r8)
				box->temp_length[num] = -1;
 1002f70:	44003215 	stw	r16,200(r8)
				draw[num] = 1;
 1002f74:	43403d15 	stw	r13,244(r8)
 1002f78:	003f4306 	br	1002c88 <handle_timer_interrupts+0xbc>
		else if( box->x[num] <= 2)
		{

			if( box->temp_length[num] <= 0)
			{
				box->x[num] = 340;
 1002f7c:	51400a15 	stw	r5,40(r10)
				box->temp_length[num] = -1;
 1002f80:	54003215 	stw	r16,200(r10)
				draw[num] = 1;
 1002f84:	53403d15 	stw	r13,244(r10)
 1002f88:	003f5706 	br	1002ce8 <handle_timer_interrupts+0x11c>
		else if( box->x[num] <= 2)
		{

			if( box->temp_length[num] <= 0)
			{
				box->x[num] = 340;
 1002f8c:	5bc00a15 	stw	r15,40(r11)
				box->temp_length[num] = -1;
 1002f90:	5c003215 	stw	r16,200(r11)
				draw[num] = 1;
 1002f94:	5b403d15 	stw	r13,244(r11)
 1002f98:	003f2306 	br	1002c28 <handle_timer_interrupts+0x5c>
	if(box->x[num] == 340) return;

	if(box->x[num] == 319 )
			{
				draw[num] = 1;
				box->x[num] -= speed;
 1002f9c:	d0a00017 	ldw	r2,-32768(gp)

	if(box->x[num] == 340) return;

	if(box->x[num] == 319 )
			{
				draw[num] = 1;
 1002fa0:	31403d15 	stw	r5,244(r6)
				box->x[num] -= speed;
 1002fa4:	1885c83a 	sub	r2,r3,r2
 1002fa8:	30800a15 	stw	r2,40(r6)
		update_object(&box_3 , i);
		update_object(&box_1, i );
	}
	update_object(&flag,0);//update winning flag

	IOWR_16DIRECT(TIMER_0_BASE,0,0); //needed to show that interrupt finished executing
 1002fac:	00910804 	movi	r2,17440
 1002fb0:	1000002d 	sthio	zero,0(r2)
	IOWR_16DIRECT(TIMER_0_BASE,4,0x5); //restarts the hardware timer before exiting the isr
 1002fb4:	00c00144 	movi	r3,5
 1002fb8:	00910904 	movi	r2,17444
 1002fbc:	10c0002d 	sthio	r3,0(r2)
	return;
}
 1002fc0:	dc000017 	ldw	r16,0(sp)
 1002fc4:	dec00104 	addi	sp,sp,4
 1002fc8:	f800283a 	ret
		}

		else
		{
			//box.temp_length = box.length;
			box->x[num] -= speed;
 1002fcc:	d0a00017 	ldw	r2,-32768(gp)
			draw[num] = 0;
			box->dec[num] = 0;
 1002fd0:	30004715 	stw	zero,284(r6)

		else
		{
			//box.temp_length = box.length;
			box->x[num] -= speed;
			draw[num] = 0;
 1002fd4:	30003d15 	stw	zero,244(r6)
		}

		else
		{
			//box.temp_length = box.length;
			box->x[num] -= speed;
 1002fd8:	1885c83a 	sub	r2,r3,r2
 1002fdc:	30800a15 	stw	r2,40(r6)
		update_object(&box_3 , i);
		update_object(&box_1, i );
	}
	update_object(&flag,0);//update winning flag

	IOWR_16DIRECT(TIMER_0_BASE,0,0); //needed to show that interrupt finished executing
 1002fe0:	00910804 	movi	r2,17440
 1002fe4:	1000002d 	sthio	zero,0(r2)
	IOWR_16DIRECT(TIMER_0_BASE,4,0x5); //restarts the hardware timer before exiting the isr
 1002fe8:	00c00144 	movi	r3,5
 1002fec:	00910904 	movi	r2,17444
 1002ff0:	10c0002d 	sthio	r3,0(r2)
	return;
}
 1002ff4:	dc000017 	ldw	r16,0(sp)
 1002ff8:	dec00104 	addi	sp,sp,4
 1002ffc:	f800283a 	ret
		{

			if( box->temp_length[num] <= 0)
			{
				box->x[num] = 340;
				box->temp_length[num] = -1;
 1003000:	00bfffc4 	movi	r2,-1
				draw[num] = 1;
 1003004:	31403d15 	stw	r5,244(r6)
		else if( box->x[num] <= 2)
		{

			if( box->temp_length[num] <= 0)
			{
				box->x[num] = 340;
 1003008:	31c00a15 	stw	r7,40(r6)
				box->temp_length[num] = -1;
 100300c:	30803215 	stw	r2,200(r6)
 1003010:	003fb906 	br	1002ef8 <handle_timer_interrupts+0x32c>

01003014 <main>:
alt_up_char_buffer_dev *char_buffer;

extern char playername[12];


int main(){
 1003014:	deff8404 	addi	sp,sp,-496
	printf("NEW GAME!\n\n");
 1003018:	010040b4 	movhi	r4,258
 100301c:	21242304 	addi	r4,r4,-28532
alt_up_char_buffer_dev *char_buffer;

extern char playername[12];


int main(){
 1003020:	dfc07b15 	stw	ra,492(sp)
 1003024:	df007a15 	stw	fp,488(sp)
 1003028:	ddc07915 	stw	r23,484(sp)
 100302c:	dd807815 	stw	r22,480(sp)
 1003030:	dd407715 	stw	r21,476(sp)
 1003034:	dd007615 	stw	r20,472(sp)
 1003038:	dcc07515 	stw	r19,468(sp)
 100303c:	dc807415 	stw	r18,464(sp)
 1003040:	dc407315 	stw	r17,460(sp)
 1003044:	dc007215 	stw	r16,456(sp)
	printf("NEW GAME!\n\n");
 1003048:	100707c0 	call	100707c <puts>

	volatile int old_game_state = 0;
	int doge = 0; //animation counter

	//buffer init stuff
	pixel_buffer = alt_up_pixel_buffer_dma_open_dev("/dev/pixel_buffer_dma");
 100304c:	010040b4 	movhi	r4,258
 1003050:	21242604 	addi	r4,r4,-28520


int main(){
	printf("NEW GAME!\n\n");

	volatile int old_game_state = 0;
 1003054:	d8000215 	stw	zero,8(sp)
	int doge = 0; //animation counter

	//buffer init stuff
	pixel_buffer = alt_up_pixel_buffer_dma_open_dev("/dev/pixel_buffer_dma");
 1003058:	1012b2c0 	call	1012b2c <alt_up_pixel_buffer_dma_open_dev>
	char_buffer = alt_up_char_buffer_open_dev("/dev/char_drawer");
 100305c:	010040b4 	movhi	r4,258
 1003060:	21242c04 	addi	r4,r4,-28496

	volatile int old_game_state = 0;
	int doge = 0; //animation counter

	//buffer init stuff
	pixel_buffer = alt_up_pixel_buffer_dma_open_dev("/dev/pixel_buffer_dma");
 1003064:	d0a7e715 	stw	r2,-24676(gp)
	char_buffer = alt_up_char_buffer_open_dev("/dev/char_drawer");
 1003068:	10122fc0 	call	10122fc <alt_up_char_buffer_open_dev>
 100306c:	d0a7dd15 	stw	r2,-24716(gp)

	//phil's stuff
	master* m = master_init();
 1003070:	1004c480 	call	1004c48 <master_init>

	printf("NEW GAME!\n\n");
 1003074:	010040b4 	movhi	r4,258
 1003078:	21242304 	addi	r4,r4,-28532
	//buffer init stuff
	pixel_buffer = alt_up_pixel_buffer_dma_open_dev("/dev/pixel_buffer_dma");
	char_buffer = alt_up_char_buffer_open_dev("/dev/char_drawer");

	//phil's stuff
	master* m = master_init();
 100307c:	d8807015 	stw	r2,448(sp)

	printf("NEW GAME!\n\n");
 1003080:	100707c0 	call	100707c <puts>

	// Set the 1st buffer address
	alt_up_pixel_buffer_dma_change_back_buffer_address(pixel_buffer,pixel_buffer_addr1);
 1003084:	d127e717 	ldw	r4,-24676(gp)
 1003088:	d1600117 	ldw	r5,-32764(gp)
 100308c:	1012b040 	call	1012b04 <alt_up_pixel_buffer_dma_change_back_buffer_address>
	// Swap buffers  we have to swap because there is only an API function
	// to set the address of the background buffer.
	alt_up_pixel_buffer_dma_swap_buffers(pixel_buffer);
 1003090:	d127e717 	ldw	r4,-24676(gp)
 1003094:	1012a100 	call	1012a10 <alt_up_pixel_buffer_dma_swap_buffers>
	while (alt_up_pixel_buffer_dma_check_swap_buffers_status(pixel_buffer));
 1003098:	d127e717 	ldw	r4,-24676(gp)
 100309c:	1012af40 	call	1012af4 <alt_up_pixel_buffer_dma_check_swap_buffers_status>
 10030a0:	103ffd1e 	bne	r2,zero,1003098 <main+0x84>
	// Set the 2nd buffer address
	alt_up_pixel_buffer_dma_change_back_buffer_address(pixel_buffer,pixel_buffer_addr2);
 10030a4:	d1600217 	ldw	r5,-32760(gp)
 10030a8:	d127e717 	ldw	r4,-24676(gp)
 10030ac:	1012b040 	call	1012b04 <alt_up_pixel_buffer_dma_change_back_buffer_address>

	printf("NEW GAME!\n\n");
 10030b0:	010040b4 	movhi	r4,258
 10030b4:	21242304 	addi	r4,r4,-28532
 10030b8:	100707c0 	call	100707c <puts>

	// Clear the screen
	alt_up_pixel_buffer_dma_clear_screen(pixel_buffer, 1);
 10030bc:	d127e717 	ldw	r4,-24676(gp)
 10030c0:	01400044 	movi	r5,1
 10030c4:	10129680 	call	1012968 <alt_up_pixel_buffer_dma_clear_screen>
	alt_up_pixel_buffer_dma_swap_buffers(pixel_buffer);
 10030c8:	d127e717 	ldw	r4,-24676(gp)
 10030cc:	1012a100 	call	1012a10 <alt_up_pixel_buffer_dma_swap_buffers>
	while (alt_up_pixel_buffer_dma_check_swap_buffers_status(pixel_buffer));
 10030d0:	d127e717 	ldw	r4,-24676(gp)
 10030d4:	1012af40 	call	1012af4 <alt_up_pixel_buffer_dma_check_swap_buffers_status>
 10030d8:	103ffd1e 	bne	r2,zero,10030d0 <main+0xbc>
	alt_up_pixel_buffer_dma_clear_screen(pixel_buffer, 1);
 10030dc:	d127e717 	ldw	r4,-24676(gp)
 10030e0:	01400044 	movi	r5,1
 10030e4:	10129680 	call	1012968 <alt_up_pixel_buffer_dma_clear_screen>
	alt_up_pixel_buffer_dma_swap_buffers(pixel_buffer);
 10030e8:	d127e717 	ldw	r4,-24676(gp)
 10030ec:	1012a100 	call	1012a10 <alt_up_pixel_buffer_dma_swap_buffers>
	while (alt_up_pixel_buffer_dma_check_swap_buffers_status(pixel_buffer));
 10030f0:	d127e717 	ldw	r4,-24676(gp)
 10030f4:	1012af40 	call	1012af4 <alt_up_pixel_buffer_dma_check_swap_buffers_status>
 10030f8:	103ffd1e 	bne	r2,zero,10030f0 <main+0xdc>

	alt_up_char_buffer_clear(char_buffer);
 10030fc:	d127dd17 	ldw	r4,-24716(gp)

	selC = read_bmp("selC.bmp");
	alt_up_char_buffer_string(char_buffer, "selC.bmp", 0, 6);

	dead = read_bmp("dead.bmp");
	alt_up_char_buffer_string(char_buffer, "dead.bmp", 0, 7);
 1003100:	040001c4 	movi	r16,7



	bmp * b 	= read_bmp("para1.bmp");
	alt_up_char_buffer_string(char_buffer, "para.bmp", 0, 8);
 1003104:	04400204 	movi	r17,8
	while (alt_up_pixel_buffer_dma_check_swap_buffers_status(pixel_buffer));
	alt_up_pixel_buffer_dma_clear_screen(pixel_buffer, 1);
	alt_up_pixel_buffer_dma_swap_buffers(pixel_buffer);
	while (alt_up_pixel_buffer_dma_check_swap_buffers_status(pixel_buffer));

	alt_up_char_buffer_clear(char_buffer);
 1003108:	10122d80 	call	10122d8 <alt_up_char_buffer_clear>
	//Write some text
	alt_up_char_buffer_string(char_buffer, "LOADING...", 0, 0);
 100310c:	d127dd17 	ldw	r4,-24716(gp)
 1003110:	014040b4 	movhi	r5,258
 1003114:	29643104 	addi	r5,r5,-28476
 1003118:	000d883a 	mov	r6,zero
 100311c:	000f883a 	mov	r7,zero
 1003120:	10122240 	call	1012224 <alt_up_char_buffer_string>

	//load bitmap files
	title = read_bmp("title.bmp");
 1003124:	010040b4 	movhi	r4,258
 1003128:	21243404 	addi	r4,r4,-28464
 100312c:	1005f980 	call	1005f98 <read_bmp>
	alt_up_char_buffer_string(char_buffer, "title.bmp", 0, 2);
 1003130:	d127dd17 	ldw	r4,-24716(gp)
 1003134:	014040b4 	movhi	r5,258
 1003138:	29643404 	addi	r5,r5,-28464
 100313c:	000d883a 	mov	r6,zero
 1003140:	01c00084 	movi	r7,2
	alt_up_char_buffer_clear(char_buffer);
	//Write some text
	alt_up_char_buffer_string(char_buffer, "LOADING...", 0, 0);

	//load bitmap files
	title = read_bmp("title.bmp");
 1003144:	d0a7df15 	stw	r2,-24708(gp)
	alt_up_char_buffer_string(char_buffer, "title.bmp", 0, 2);
 1003148:	10122240 	call	1012224 <alt_up_char_buffer_string>

	menu = read_bmp("menu.bmp");
 100314c:	010040b4 	movhi	r4,258
 1003150:	21243704 	addi	r4,r4,-28452
 1003154:	1005f980 	call	1005f98 <read_bmp>
	alt_up_char_buffer_string(char_buffer, "MENU.BMP", 0, 3);
 1003158:	d127dd17 	ldw	r4,-24716(gp)
 100315c:	014040b4 	movhi	r5,258
 1003160:	29643a04 	addi	r5,r5,-28440
 1003164:	000d883a 	mov	r6,zero
 1003168:	01c000c4 	movi	r7,3

	//load bitmap files
	title = read_bmp("title.bmp");
	alt_up_char_buffer_string(char_buffer, "title.bmp", 0, 2);

	menu = read_bmp("menu.bmp");
 100316c:	d0a7dc15 	stw	r2,-24720(gp)
	alt_up_char_buffer_string(char_buffer, "MENU.BMP", 0, 3);
 1003170:	10122240 	call	1012224 <alt_up_char_buffer_string>

	selA = read_bmp("selA.bmp");
 1003174:	010040b4 	movhi	r4,258
 1003178:	21243d04 	addi	r4,r4,-28428
 100317c:	1005f980 	call	1005f98 <read_bmp>
	alt_up_char_buffer_string(char_buffer, "selA.bmp", 0, 4);
 1003180:	d127dd17 	ldw	r4,-24716(gp)
 1003184:	014040b4 	movhi	r5,258
 1003188:	29643d04 	addi	r5,r5,-28428
 100318c:	000d883a 	mov	r6,zero
 1003190:	01c00104 	movi	r7,4
	alt_up_char_buffer_string(char_buffer, "title.bmp", 0, 2);

	menu = read_bmp("menu.bmp");
	alt_up_char_buffer_string(char_buffer, "MENU.BMP", 0, 3);

	selA = read_bmp("selA.bmp");
 1003194:	d0a7ea15 	stw	r2,-24664(gp)
	alt_up_char_buffer_string(char_buffer, "selA.bmp", 0, 4);
 1003198:	10122240 	call	1012224 <alt_up_char_buffer_string>

	selB = read_bmp("selB.bmp");
 100319c:	010040b4 	movhi	r4,258
 10031a0:	21244004 	addi	r4,r4,-28416
 10031a4:	1005f980 	call	1005f98 <read_bmp>
	alt_up_char_buffer_string(char_buffer, "selB.bmp", 0, 5);
 10031a8:	d127dd17 	ldw	r4,-24716(gp)
 10031ac:	014040b4 	movhi	r5,258
 10031b0:	29644004 	addi	r5,r5,-28416
 10031b4:	000d883a 	mov	r6,zero
 10031b8:	01c00144 	movi	r7,5
	alt_up_char_buffer_string(char_buffer, "MENU.BMP", 0, 3);

	selA = read_bmp("selA.bmp");
	alt_up_char_buffer_string(char_buffer, "selA.bmp", 0, 4);

	selB = read_bmp("selB.bmp");
 10031bc:	d0a7e515 	stw	r2,-24684(gp)
	alt_up_char_buffer_string(char_buffer, "selB.bmp", 0, 5);
 10031c0:	10122240 	call	1012224 <alt_up_char_buffer_string>

	selC = read_bmp("selC.bmp");
 10031c4:	010040b4 	movhi	r4,258
 10031c8:	21244304 	addi	r4,r4,-28404
 10031cc:	1005f980 	call	1005f98 <read_bmp>
	alt_up_char_buffer_string(char_buffer, "selC.bmp", 0, 6);
 10031d0:	d127dd17 	ldw	r4,-24716(gp)
 10031d4:	014040b4 	movhi	r5,258
 10031d8:	29644304 	addi	r5,r5,-28404
 10031dc:	000d883a 	mov	r6,zero
 10031e0:	01c00184 	movi	r7,6
	alt_up_char_buffer_string(char_buffer, "selA.bmp", 0, 4);

	selB = read_bmp("selB.bmp");
	alt_up_char_buffer_string(char_buffer, "selB.bmp", 0, 5);

	selC = read_bmp("selC.bmp");
 10031e4:	d0a7de15 	stw	r2,-24712(gp)
	alt_up_char_buffer_string(char_buffer, "selC.bmp", 0, 6);
 10031e8:	10122240 	call	1012224 <alt_up_char_buffer_string>

	dead = read_bmp("dead.bmp");
 10031ec:	010040b4 	movhi	r4,258
 10031f0:	21244604 	addi	r4,r4,-28392
 10031f4:	1005f980 	call	1005f98 <read_bmp>
	alt_up_char_buffer_string(char_buffer, "dead.bmp", 0, 7);
 10031f8:	d127dd17 	ldw	r4,-24716(gp)
 10031fc:	800f883a 	mov	r7,r16
 1003200:	014040b4 	movhi	r5,258
 1003204:	29644604 	addi	r5,r5,-28392
 1003208:	000d883a 	mov	r6,zero
	alt_up_char_buffer_string(char_buffer, "selB.bmp", 0, 5);

	selC = read_bmp("selC.bmp");
	alt_up_char_buffer_string(char_buffer, "selC.bmp", 0, 6);

	dead = read_bmp("dead.bmp");
 100320c:	d0a7e215 	stw	r2,-24696(gp)
	alt_up_char_buffer_string(char_buffer, "dead.bmp", 0, 7);
 1003210:	10122240 	call	1012224 <alt_up_char_buffer_string>



	bmp * b 	= read_bmp("para1.bmp");
 1003214:	010040b4 	movhi	r4,258
 1003218:	21244904 	addi	r4,r4,-28380
 100321c:	1005f980 	call	1005f98 <read_bmp>
	alt_up_char_buffer_string(char_buffer, "para.bmp", 0, 8);
 1003220:	d127dd17 	ldw	r4,-24716(gp)
 1003224:	880f883a 	mov	r7,r17
 1003228:	014040b4 	movhi	r5,258
 100322c:	29644c04 	addi	r5,r5,-28368
 1003230:	000d883a 	mov	r6,zero
	dead = read_bmp("dead.bmp");
	alt_up_char_buffer_string(char_buffer, "dead.bmp", 0, 7);



	bmp * b 	= read_bmp("para1.bmp");
 1003234:	d8806f15 	stw	r2,444(sp)
	alt_up_char_buffer_string(char_buffer, "para.bmp", 0, 8);
 1003238:	10122240 	call	1012224 <alt_up_char_buffer_string>

	bmp * doge0 = read_bmp("doge0.bmp");
 100323c:	010040b4 	movhi	r4,258
 1003240:	21244f04 	addi	r4,r4,-28356
 1003244:	1005f980 	call	1005f98 <read_bmp>
	alt_up_char_buffer_string(char_buffer, "doge0.bmp", 0, 9);
 1003248:	d127dd17 	ldw	r4,-24716(gp)
 100324c:	014040b4 	movhi	r5,258
 1003250:	29644f04 	addi	r5,r5,-28356
 1003254:	000d883a 	mov	r6,zero
 1003258:	01c00244 	movi	r7,9


	bmp * b 	= read_bmp("para1.bmp");
	alt_up_char_buffer_string(char_buffer, "para.bmp", 0, 8);

	bmp * doge0 = read_bmp("doge0.bmp");
 100325c:	d8806e15 	stw	r2,440(sp)
	alt_up_char_buffer_string(char_buffer, "doge0.bmp", 0, 9);
 1003260:	10122240 	call	1012224 <alt_up_char_buffer_string>

	bmp * doge1 = read_bmp("doge1.bmp");
 1003264:	010040b4 	movhi	r4,258
 1003268:	21245204 	addi	r4,r4,-28344
 100326c:	1005f980 	call	1005f98 <read_bmp>
	alt_up_char_buffer_string(char_buffer, "doge1.bmp", 0, 10);
 1003270:	d127dd17 	ldw	r4,-24716(gp)
 1003274:	014040b4 	movhi	r5,258
 1003278:	29645204 	addi	r5,r5,-28344
 100327c:	000d883a 	mov	r6,zero
 1003280:	01c00284 	movi	r7,10
	alt_up_char_buffer_string(char_buffer, "para.bmp", 0, 8);

	bmp * doge0 = read_bmp("doge0.bmp");
	alt_up_char_buffer_string(char_buffer, "doge0.bmp", 0, 9);

	bmp * doge1 = read_bmp("doge1.bmp");
 1003284:	d8806d15 	stw	r2,436(sp)
	alt_up_char_buffer_string(char_buffer, "doge1.bmp", 0, 10);
 1003288:	10122240 	call	1012224 <alt_up_char_buffer_string>

	bmp * doge2 = read_bmp("doge2.bmp");
 100328c:	010040b4 	movhi	r4,258
 1003290:	21245504 	addi	r4,r4,-28332
 1003294:	1005f980 	call	1005f98 <read_bmp>
	alt_up_char_buffer_string(char_buffer, "doge2.bmp", 0, 11);
 1003298:	d127dd17 	ldw	r4,-24716(gp)
 100329c:	014040b4 	movhi	r5,258
 10032a0:	29645504 	addi	r5,r5,-28332
 10032a4:	000d883a 	mov	r6,zero
 10032a8:	01c002c4 	movi	r7,11
	alt_up_char_buffer_string(char_buffer, "doge0.bmp", 0, 9);

	bmp * doge1 = read_bmp("doge1.bmp");
	alt_up_char_buffer_string(char_buffer, "doge1.bmp", 0, 10);

	bmp * doge2 = read_bmp("doge2.bmp");
 10032ac:	d8806c15 	stw	r2,432(sp)
	alt_up_char_buffer_string(char_buffer, "doge2.bmp", 0, 11);
 10032b0:	10122240 	call	1012224 <alt_up_char_buffer_string>

	bmp * doge3 = read_bmp("doge3.bmp");
 10032b4:	010040b4 	movhi	r4,258
 10032b8:	21245804 	addi	r4,r4,-28320
 10032bc:	1005f980 	call	1005f98 <read_bmp>
	alt_up_char_buffer_string(char_buffer, "doge3.bmp", 0, 12);
 10032c0:	d127dd17 	ldw	r4,-24716(gp)
 10032c4:	014040b4 	movhi	r5,258
 10032c8:	29645804 	addi	r5,r5,-28320
 10032cc:	000d883a 	mov	r6,zero
 10032d0:	01c00304 	movi	r7,12
	alt_up_char_buffer_string(char_buffer, "doge1.bmp", 0, 10);

	bmp * doge2 = read_bmp("doge2.bmp");
	alt_up_char_buffer_string(char_buffer, "doge2.bmp", 0, 11);

	bmp * doge3 = read_bmp("doge3.bmp");
 10032d4:	d8806b15 	stw	r2,428(sp)
	alt_up_char_buffer_string(char_buffer, "doge3.bmp", 0, 12);
 10032d8:	10122240 	call	1012224 <alt_up_char_buffer_string>

	bmp * flat  = read_bmp("flat.bmp");
 10032dc:	010040b4 	movhi	r4,258
 10032e0:	21245b04 	addi	r4,r4,-28308
 10032e4:	1005f980 	call	1005f98 <read_bmp>
	alt_up_char_buffer_string(char_buffer, "flat.bmp", 0, 13);
 10032e8:	d127dd17 	ldw	r4,-24716(gp)
 10032ec:	014040b4 	movhi	r5,258
 10032f0:	29645b04 	addi	r5,r5,-28308
 10032f4:	000d883a 	mov	r6,zero
 10032f8:	01c00344 	movi	r7,13
	alt_up_char_buffer_string(char_buffer, "doge2.bmp", 0, 11);

	bmp * doge3 = read_bmp("doge3.bmp");
	alt_up_char_buffer_string(char_buffer, "doge3.bmp", 0, 12);

	bmp * flat  = read_bmp("flat.bmp");
 10032fc:	d8806a15 	stw	r2,424(sp)
	alt_up_char_buffer_string(char_buffer, "flat.bmp", 0, 13);
 1003300:	10122240 	call	1012224 <alt_up_char_buffer_string>

	bmp * coin  = read_bmp("coin.bmp");
 1003304:	010040b4 	movhi	r4,258
 1003308:	21245e04 	addi	r4,r4,-28296
 100330c:	1005f980 	call	1005f98 <read_bmp>
	alt_up_char_buffer_string(char_buffer, "coin.bmp", 0, 14);
 1003310:	d127dd17 	ldw	r4,-24716(gp)
 1003314:	014040b4 	movhi	r5,258
 1003318:	29645e04 	addi	r5,r5,-28296
 100331c:	000d883a 	mov	r6,zero
 1003320:	01c00384 	movi	r7,14
	alt_up_char_buffer_string(char_buffer, "doge3.bmp", 0, 12);

	bmp * flat  = read_bmp("flat.bmp");
	alt_up_char_buffer_string(char_buffer, "flat.bmp", 0, 13);

	bmp * coin  = read_bmp("coin.bmp");
 1003324:	d8806915 	stw	r2,420(sp)
	alt_up_char_buffer_string(char_buffer, "coin.bmp", 0, 14);
 1003328:	10122240 	call	1012224 <alt_up_char_buffer_string>

	bmp * spike = read_bmp("spike.bmp");
 100332c:	010040b4 	movhi	r4,258
 1003330:	21246104 	addi	r4,r4,-28284
 1003334:	1005f980 	call	1005f98 <read_bmp>
	alt_up_char_buffer_string(char_buffer, "spike.bmp", 0, 15);
 1003338:	d127dd17 	ldw	r4,-24716(gp)
 100333c:	014040b4 	movhi	r5,258
 1003340:	29646104 	addi	r5,r5,-28284
 1003344:	000d883a 	mov	r6,zero
 1003348:	01c003c4 	movi	r7,15
	alt_up_char_buffer_string(char_buffer, "flat.bmp", 0, 13);

	bmp * coin  = read_bmp("coin.bmp");
	alt_up_char_buffer_string(char_buffer, "coin.bmp", 0, 14);

	bmp * spike = read_bmp("spike.bmp");
 100334c:	d8806815 	stw	r2,416(sp)
	alt_up_char_buffer_string(char_buffer, "spike.bmp", 0, 15);
 1003350:	10122240 	call	1012224 <alt_up_char_buffer_string>

	bmp * box1  = read_bmp("box1.bmp");
 1003354:	010040b4 	movhi	r4,258
 1003358:	21246404 	addi	r4,r4,-28272
 100335c:	1005f980 	call	1005f98 <read_bmp>
	alt_up_char_buffer_string(char_buffer, "box1.bmp", 0, 16);
 1003360:	d127dd17 	ldw	r4,-24716(gp)
 1003364:	014040b4 	movhi	r5,258
 1003368:	29646404 	addi	r5,r5,-28272
 100336c:	000d883a 	mov	r6,zero
 1003370:	01c00404 	movi	r7,16
	alt_up_char_buffer_string(char_buffer, "coin.bmp", 0, 14);

	bmp * spike = read_bmp("spike.bmp");
	alt_up_char_buffer_string(char_buffer, "spike.bmp", 0, 15);

	bmp * box1  = read_bmp("box1.bmp");
 1003374:	d8806715 	stw	r2,412(sp)
	alt_up_char_buffer_string(char_buffer, "box1.bmp", 0, 16);
 1003378:	10122240 	call	1012224 <alt_up_char_buffer_string>

	bmp * box3  = read_bmp("box3.bmp");
 100337c:	010040b4 	movhi	r4,258
 1003380:	21246704 	addi	r4,r4,-28260
 1003384:	1005f980 	call	1005f98 <read_bmp>
	alt_up_char_buffer_string(char_buffer, "box3.bmp", 0, 17);
 1003388:	d127dd17 	ldw	r4,-24716(gp)
 100338c:	014040b4 	movhi	r5,258
 1003390:	29646704 	addi	r5,r5,-28260
 1003394:	000d883a 	mov	r6,zero
 1003398:	01c00444 	movi	r7,17
	alt_up_char_buffer_string(char_buffer, "spike.bmp", 0, 15);

	bmp * box1  = read_bmp("box1.bmp");
	alt_up_char_buffer_string(char_buffer, "box1.bmp", 0, 16);

	bmp * box3  = read_bmp("box3.bmp");
 100339c:	d8806615 	stw	r2,408(sp)
	alt_up_char_buffer_string(char_buffer, "box3.bmp", 0, 17);
 10033a0:	10122240 	call	1012224 <alt_up_char_buffer_string>

	bmp * low  = read_bmp("low.bmp");
 10033a4:	010040b4 	movhi	r4,258
 10033a8:	21246a04 	addi	r4,r4,-28248
 10033ac:	1005f980 	call	1005f98 <read_bmp>
	alt_up_char_buffer_string(char_buffer, "low.bmp", 0, 18);
 10033b0:	d127dd17 	ldw	r4,-24716(gp)
 10033b4:	014040b4 	movhi	r5,258
 10033b8:	29646a04 	addi	r5,r5,-28248
 10033bc:	000d883a 	mov	r6,zero
 10033c0:	01c00484 	movi	r7,18
	alt_up_char_buffer_string(char_buffer, "box1.bmp", 0, 16);

	bmp * box3  = read_bmp("box3.bmp");
	alt_up_char_buffer_string(char_buffer, "box3.bmp", 0, 17);

	bmp * low  = read_bmp("low.bmp");
 10033c4:	d8806515 	stw	r2,404(sp)
	alt_up_char_buffer_string(char_buffer, "low.bmp", 0, 18);
 10033c8:	10122240 	call	1012224 <alt_up_char_buffer_string>

	bmp * flatb = read_bmp("flatb.bmp");
 10033cc:	010040b4 	movhi	r4,258
 10033d0:	21246c04 	addi	r4,r4,-28240
 10033d4:	1005f980 	call	1005f98 <read_bmp>
	alt_up_char_buffer_string(char_buffer, "flatb.bmp", 0, 19);
 10033d8:	d127dd17 	ldw	r4,-24716(gp)
 10033dc:	014040b4 	movhi	r5,258
 10033e0:	29646c04 	addi	r5,r5,-28240
 10033e4:	000d883a 	mov	r6,zero
 10033e8:	01c004c4 	movi	r7,19
	alt_up_char_buffer_string(char_buffer, "box3.bmp", 0, 17);

	bmp * low  = read_bmp("low.bmp");
	alt_up_char_buffer_string(char_buffer, "low.bmp", 0, 18);

	bmp * flatb = read_bmp("flatb.bmp");
 10033ec:	d8806415 	stw	r2,400(sp)
	alt_up_char_buffer_string(char_buffer, "flatb.bmp", 0, 19);
 10033f0:	10122240 	call	1012224 <alt_up_char_buffer_string>

	bmp * flatr = read_bmp("flatr.bmp");
 10033f4:	010040b4 	movhi	r4,258
 10033f8:	21246f04 	addi	r4,r4,-28228
 10033fc:	1005f980 	call	1005f98 <read_bmp>
	alt_up_char_buffer_string(char_buffer, "flatr.bmp", 0, 20);
 1003400:	d127dd17 	ldw	r4,-24716(gp)
 1003404:	014040b4 	movhi	r5,258
 1003408:	29646f04 	addi	r5,r5,-28228
 100340c:	000d883a 	mov	r6,zero
 1003410:	01c00504 	movi	r7,20
	alt_up_char_buffer_string(char_buffer, "low.bmp", 0, 18);

	bmp * flatb = read_bmp("flatb.bmp");
	alt_up_char_buffer_string(char_buffer, "flatb.bmp", 0, 19);

	bmp * flatr = read_bmp("flatr.bmp");
 1003414:	d8806315 	stw	r2,396(sp)
	alt_up_char_buffer_string(char_buffer, "flatr.bmp", 0, 20);
 1003418:	10122240 	call	1012224 <alt_up_char_buffer_string>

	bmp * blue = read_bmp("bstar.bmp");
 100341c:	010040b4 	movhi	r4,258
 1003420:	21247204 	addi	r4,r4,-28216
 1003424:	1005f980 	call	1005f98 <read_bmp>
	alt_up_char_buffer_string(char_buffer, "blue.bmp", 0, 21);
 1003428:	d127dd17 	ldw	r4,-24716(gp)
 100342c:	014040b4 	movhi	r5,258
 1003430:	29647504 	addi	r5,r5,-28204
 1003434:	000d883a 	mov	r6,zero
 1003438:	01c00544 	movi	r7,21
	alt_up_char_buffer_string(char_buffer, "flatb.bmp", 0, 19);

	bmp * flatr = read_bmp("flatr.bmp");
	alt_up_char_buffer_string(char_buffer, "flatr.bmp", 0, 20);

	bmp * blue = read_bmp("bstar.bmp");
 100343c:	d8806215 	stw	r2,392(sp)
	alt_up_char_buffer_string(char_buffer, "blue.bmp", 0, 21);
 1003440:	10122240 	call	1012224 <alt_up_char_buffer_string>

	bmp * red = read_bmp("rstar.bmp");
 1003444:	010040b4 	movhi	r4,258
 1003448:	21247804 	addi	r4,r4,-28192
 100344c:	1005f980 	call	1005f98 <read_bmp>
	alt_up_char_buffer_string(char_buffer, "red.bmp", 0, 22);
 1003450:	d127dd17 	ldw	r4,-24716(gp)
 1003454:	014040b4 	movhi	r5,258
 1003458:	29647b04 	addi	r5,r5,-28180
 100345c:	000d883a 	mov	r6,zero
 1003460:	01c00584 	movi	r7,22
	alt_up_char_buffer_string(char_buffer, "flatr.bmp", 0, 20);

	bmp * blue = read_bmp("bstar.bmp");
	alt_up_char_buffer_string(char_buffer, "blue.bmp", 0, 21);

	bmp * red = read_bmp("rstar.bmp");
